
RNG.elf:     file format elf32-littlearm

Sections:
Idx Name          Size      VMA       LMA       File off  Algn
  0 .isr_vector   000000c0  08000000  08000000  00010000  2**0
                  CONTENTS, ALLOC, LOAD, READONLY, DATA
  1 .text         00006c48  080000c0  080000c0  000100c0  2**3
                  CONTENTS, ALLOC, LOAD, READONLY, CODE
  2 .rodata       00000bb4  08006d08  08006d08  00016d08  2**3
                  CONTENTS, ALLOC, LOAD, READONLY, DATA
  3 .ARM.extab    00000000  080078bc  080078bc  0002003c  2**0
                  CONTENTS
  4 .ARM          00000000  080078bc  080078bc  0002003c  2**0
                  CONTENTS
  5 .preinit_array 00000000  080078bc  080078bc  0002003c  2**0
                  CONTENTS, ALLOC, LOAD, DATA
  6 .init_array   00000004  080078bc  080078bc  000178bc  2**2
                  CONTENTS, ALLOC, LOAD, DATA
  7 .fini_array   00000004  080078c0  080078c0  000178c0  2**2
                  CONTENTS, ALLOC, LOAD, DATA
  8 .data         0000003c  20000000  080078c4  00020000  2**2
                  CONTENTS, ALLOC, LOAD, DATA
  9 .bss          00000150  2000003c  08007900  0002003c  2**2
                  ALLOC
 10 ._user_heap_stack 00000604  2000018c  08007900  0002018c  2**0
                  ALLOC
 11 .ARM.attributes 00000028  00000000  00000000  0002003c  2**0
                  CONTENTS, READONLY
 12 .debug_info   0000a1dd  00000000  00000000  00020064  2**0
                  CONTENTS, READONLY, DEBUGGING
 13 .debug_abbrev 000016f3  00000000  00000000  0002a241  2**0
                  CONTENTS, READONLY, DEBUGGING
 14 .debug_aranges 000005e0  00000000  00000000  0002b938  2**3
                  CONTENTS, READONLY, DEBUGGING
 15 .debug_ranges 00000538  00000000  00000000  0002bf18  2**3
                  CONTENTS, READONLY, DEBUGGING
 16 .debug_macro  00016ce8  00000000  00000000  0002c450  2**0
                  CONTENTS, READONLY, DEBUGGING
 17 .debug_line   00018f1c  00000000  00000000  00043138  2**0
                  CONTENTS, READONLY, DEBUGGING
 18 .debug_str    000729cf  00000000  00000000  0005c054  2**0
                  CONTENTS, READONLY, DEBUGGING
 19 .comment      000000fd  00000000  00000000  000cea23  2**0
                  CONTENTS, READONLY
 20 .debug_frame  00001414  00000000  00000000  000ceb20  2**2
                  CONTENTS, READONLY, DEBUGGING

Disassembly of section .text:

080000c0 <__do_global_dtors_aux>:
 80000c0:	b510      	push	{r4, lr}
 80000c2:	4c06      	ldr	r4, [pc, #24]	; (80000dc <__do_global_dtors_aux+0x1c>)
 80000c4:	7823      	ldrb	r3, [r4, #0]
 80000c6:	2b00      	cmp	r3, #0
 80000c8:	d107      	bne.n	80000da <__do_global_dtors_aux+0x1a>
 80000ca:	4b05      	ldr	r3, [pc, #20]	; (80000e0 <__do_global_dtors_aux+0x20>)
 80000cc:	2b00      	cmp	r3, #0
 80000ce:	d002      	beq.n	80000d6 <__do_global_dtors_aux+0x16>
 80000d0:	4804      	ldr	r0, [pc, #16]	; (80000e4 <__do_global_dtors_aux+0x24>)
 80000d2:	e000      	b.n	80000d6 <__do_global_dtors_aux+0x16>
 80000d4:	bf00      	nop
 80000d6:	2301      	movs	r3, #1
 80000d8:	7023      	strb	r3, [r4, #0]
 80000da:	bd10      	pop	{r4, pc}
 80000dc:	2000003c 	.word	0x2000003c
 80000e0:	00000000 	.word	0x00000000
 80000e4:	08006cf0 	.word	0x08006cf0

080000e8 <frame_dummy>:
 80000e8:	4b04      	ldr	r3, [pc, #16]	; (80000fc <frame_dummy+0x14>)
 80000ea:	b510      	push	{r4, lr}
 80000ec:	2b00      	cmp	r3, #0
 80000ee:	d003      	beq.n	80000f8 <frame_dummy+0x10>
 80000f0:	4903      	ldr	r1, [pc, #12]	; (8000100 <frame_dummy+0x18>)
 80000f2:	4804      	ldr	r0, [pc, #16]	; (8000104 <frame_dummy+0x1c>)
 80000f4:	e000      	b.n	80000f8 <frame_dummy+0x10>
 80000f6:	bf00      	nop
 80000f8:	bd10      	pop	{r4, pc}
 80000fa:	46c0      	nop			; (mov r8, r8)
 80000fc:	00000000 	.word	0x00000000
 8000100:	20000040 	.word	0x20000040
 8000104:	08006cf0 	.word	0x08006cf0

08000108 <__udivsi3>:
 8000108:	2200      	movs	r2, #0
 800010a:	0843      	lsrs	r3, r0, #1
 800010c:	428b      	cmp	r3, r1
 800010e:	d374      	bcc.n	80001fa <__udivsi3+0xf2>
 8000110:	0903      	lsrs	r3, r0, #4
 8000112:	428b      	cmp	r3, r1
 8000114:	d35f      	bcc.n	80001d6 <__udivsi3+0xce>
 8000116:	0a03      	lsrs	r3, r0, #8
 8000118:	428b      	cmp	r3, r1
 800011a:	d344      	bcc.n	80001a6 <__udivsi3+0x9e>
 800011c:	0b03      	lsrs	r3, r0, #12
 800011e:	428b      	cmp	r3, r1
 8000120:	d328      	bcc.n	8000174 <__udivsi3+0x6c>
 8000122:	0c03      	lsrs	r3, r0, #16
 8000124:	428b      	cmp	r3, r1
 8000126:	d30d      	bcc.n	8000144 <__udivsi3+0x3c>
 8000128:	22ff      	movs	r2, #255	; 0xff
 800012a:	0209      	lsls	r1, r1, #8
 800012c:	ba12      	rev	r2, r2
 800012e:	0c03      	lsrs	r3, r0, #16
 8000130:	428b      	cmp	r3, r1
 8000132:	d302      	bcc.n	800013a <__udivsi3+0x32>
 8000134:	1212      	asrs	r2, r2, #8
 8000136:	0209      	lsls	r1, r1, #8
 8000138:	d065      	beq.n	8000206 <__udivsi3+0xfe>
 800013a:	0b03      	lsrs	r3, r0, #12
 800013c:	428b      	cmp	r3, r1
 800013e:	d319      	bcc.n	8000174 <__udivsi3+0x6c>
 8000140:	e000      	b.n	8000144 <__udivsi3+0x3c>
 8000142:	0a09      	lsrs	r1, r1, #8
 8000144:	0bc3      	lsrs	r3, r0, #15
 8000146:	428b      	cmp	r3, r1
 8000148:	d301      	bcc.n	800014e <__udivsi3+0x46>
 800014a:	03cb      	lsls	r3, r1, #15
 800014c:	1ac0      	subs	r0, r0, r3
 800014e:	4152      	adcs	r2, r2
 8000150:	0b83      	lsrs	r3, r0, #14
 8000152:	428b      	cmp	r3, r1
 8000154:	d301      	bcc.n	800015a <__udivsi3+0x52>
 8000156:	038b      	lsls	r3, r1, #14
 8000158:	1ac0      	subs	r0, r0, r3
 800015a:	4152      	adcs	r2, r2
 800015c:	0b43      	lsrs	r3, r0, #13
 800015e:	428b      	cmp	r3, r1
 8000160:	d301      	bcc.n	8000166 <__udivsi3+0x5e>
 8000162:	034b      	lsls	r3, r1, #13
 8000164:	1ac0      	subs	r0, r0, r3
 8000166:	4152      	adcs	r2, r2
 8000168:	0b03      	lsrs	r3, r0, #12
 800016a:	428b      	cmp	r3, r1
 800016c:	d301      	bcc.n	8000172 <__udivsi3+0x6a>
 800016e:	030b      	lsls	r3, r1, #12
 8000170:	1ac0      	subs	r0, r0, r3
 8000172:	4152      	adcs	r2, r2
 8000174:	0ac3      	lsrs	r3, r0, #11
 8000176:	428b      	cmp	r3, r1
 8000178:	d301      	bcc.n	800017e <__udivsi3+0x76>
 800017a:	02cb      	lsls	r3, r1, #11
 800017c:	1ac0      	subs	r0, r0, r3
 800017e:	4152      	adcs	r2, r2
 8000180:	0a83      	lsrs	r3, r0, #10
 8000182:	428b      	cmp	r3, r1
 8000184:	d301      	bcc.n	800018a <__udivsi3+0x82>
 8000186:	028b      	lsls	r3, r1, #10
 8000188:	1ac0      	subs	r0, r0, r3
 800018a:	4152      	adcs	r2, r2
 800018c:	0a43      	lsrs	r3, r0, #9
 800018e:	428b      	cmp	r3, r1
 8000190:	d301      	bcc.n	8000196 <__udivsi3+0x8e>
 8000192:	024b      	lsls	r3, r1, #9
 8000194:	1ac0      	subs	r0, r0, r3
 8000196:	4152      	adcs	r2, r2
 8000198:	0a03      	lsrs	r3, r0, #8
 800019a:	428b      	cmp	r3, r1
 800019c:	d301      	bcc.n	80001a2 <__udivsi3+0x9a>
 800019e:	020b      	lsls	r3, r1, #8
 80001a0:	1ac0      	subs	r0, r0, r3
 80001a2:	4152      	adcs	r2, r2
 80001a4:	d2cd      	bcs.n	8000142 <__udivsi3+0x3a>
 80001a6:	09c3      	lsrs	r3, r0, #7
 80001a8:	428b      	cmp	r3, r1
 80001aa:	d301      	bcc.n	80001b0 <__udivsi3+0xa8>
 80001ac:	01cb      	lsls	r3, r1, #7
 80001ae:	1ac0      	subs	r0, r0, r3
 80001b0:	4152      	adcs	r2, r2
 80001b2:	0983      	lsrs	r3, r0, #6
 80001b4:	428b      	cmp	r3, r1
 80001b6:	d301      	bcc.n	80001bc <__udivsi3+0xb4>
 80001b8:	018b      	lsls	r3, r1, #6
 80001ba:	1ac0      	subs	r0, r0, r3
 80001bc:	4152      	adcs	r2, r2
 80001be:	0943      	lsrs	r3, r0, #5
 80001c0:	428b      	cmp	r3, r1
 80001c2:	d301      	bcc.n	80001c8 <__udivsi3+0xc0>
 80001c4:	014b      	lsls	r3, r1, #5
 80001c6:	1ac0      	subs	r0, r0, r3
 80001c8:	4152      	adcs	r2, r2
 80001ca:	0903      	lsrs	r3, r0, #4
 80001cc:	428b      	cmp	r3, r1
 80001ce:	d301      	bcc.n	80001d4 <__udivsi3+0xcc>
 80001d0:	010b      	lsls	r3, r1, #4
 80001d2:	1ac0      	subs	r0, r0, r3
 80001d4:	4152      	adcs	r2, r2
 80001d6:	08c3      	lsrs	r3, r0, #3
 80001d8:	428b      	cmp	r3, r1
 80001da:	d301      	bcc.n	80001e0 <__udivsi3+0xd8>
 80001dc:	00cb      	lsls	r3, r1, #3
 80001de:	1ac0      	subs	r0, r0, r3
 80001e0:	4152      	adcs	r2, r2
 80001e2:	0883      	lsrs	r3, r0, #2
 80001e4:	428b      	cmp	r3, r1
 80001e6:	d301      	bcc.n	80001ec <__udivsi3+0xe4>
 80001e8:	008b      	lsls	r3, r1, #2
 80001ea:	1ac0      	subs	r0, r0, r3
 80001ec:	4152      	adcs	r2, r2
 80001ee:	0843      	lsrs	r3, r0, #1
 80001f0:	428b      	cmp	r3, r1
 80001f2:	d301      	bcc.n	80001f8 <__udivsi3+0xf0>
 80001f4:	004b      	lsls	r3, r1, #1
 80001f6:	1ac0      	subs	r0, r0, r3
 80001f8:	4152      	adcs	r2, r2
 80001fa:	1a41      	subs	r1, r0, r1
 80001fc:	d200      	bcs.n	8000200 <__udivsi3+0xf8>
 80001fe:	4601      	mov	r1, r0
 8000200:	4152      	adcs	r2, r2
 8000202:	4610      	mov	r0, r2
 8000204:	4770      	bx	lr
 8000206:	e7ff      	b.n	8000208 <__udivsi3+0x100>
 8000208:	b501      	push	{r0, lr}
 800020a:	2000      	movs	r0, #0
 800020c:	f000 f806 	bl	800021c <__aeabi_idiv0>
 8000210:	bd02      	pop	{r1, pc}
 8000212:	46c0      	nop			; (mov r8, r8)

08000214 <__aeabi_uidivmod>:
 8000214:	2900      	cmp	r1, #0
 8000216:	d0f7      	beq.n	8000208 <__udivsi3+0x100>
 8000218:	e776      	b.n	8000108 <__udivsi3>
 800021a:	4770      	bx	lr

0800021c <__aeabi_idiv0>:
 800021c:	4770      	bx	lr
 800021e:	46c0      	nop			; (mov r8, r8)

08000220 <__aeabi_lmul>:
 8000220:	b5f0      	push	{r4, r5, r6, r7, lr}
 8000222:	46ce      	mov	lr, r9
 8000224:	4647      	mov	r7, r8
 8000226:	0415      	lsls	r5, r2, #16
 8000228:	0c2d      	lsrs	r5, r5, #16
 800022a:	002e      	movs	r6, r5
 800022c:	b580      	push	{r7, lr}
 800022e:	0407      	lsls	r7, r0, #16
 8000230:	0c14      	lsrs	r4, r2, #16
 8000232:	0c3f      	lsrs	r7, r7, #16
 8000234:	4699      	mov	r9, r3
 8000236:	0c03      	lsrs	r3, r0, #16
 8000238:	437e      	muls	r6, r7
 800023a:	435d      	muls	r5, r3
 800023c:	4367      	muls	r7, r4
 800023e:	4363      	muls	r3, r4
 8000240:	197f      	adds	r7, r7, r5
 8000242:	0c34      	lsrs	r4, r6, #16
 8000244:	19e4      	adds	r4, r4, r7
 8000246:	469c      	mov	ip, r3
 8000248:	42a5      	cmp	r5, r4
 800024a:	d903      	bls.n	8000254 <__aeabi_lmul+0x34>
 800024c:	2380      	movs	r3, #128	; 0x80
 800024e:	025b      	lsls	r3, r3, #9
 8000250:	4698      	mov	r8, r3
 8000252:	44c4      	add	ip, r8
 8000254:	464b      	mov	r3, r9
 8000256:	4343      	muls	r3, r0
 8000258:	4351      	muls	r1, r2
 800025a:	0c25      	lsrs	r5, r4, #16
 800025c:	0436      	lsls	r6, r6, #16
 800025e:	4465      	add	r5, ip
 8000260:	0c36      	lsrs	r6, r6, #16
 8000262:	0424      	lsls	r4, r4, #16
 8000264:	19a4      	adds	r4, r4, r6
 8000266:	195b      	adds	r3, r3, r5
 8000268:	1859      	adds	r1, r3, r1
 800026a:	0020      	movs	r0, r4
 800026c:	bc0c      	pop	{r2, r3}
 800026e:	4690      	mov	r8, r2
 8000270:	4699      	mov	r9, r3
 8000272:	bdf0      	pop	{r4, r5, r6, r7, pc}

08000274 <main>:
/**
  * @brief  The application entry point.
  * @retval int
  */
int main(void)
{
 8000274:	b580      	push	{r7, lr}
 8000276:	af00      	add	r7, sp, #0
  /* USER CODE END 1 */

  /* MCU Configuration--------------------------------------------------------*/

  /* Reset of all peripherals, Initializes the Flash interface and the Systick. */
  HAL_Init();
 8000278:	f000 f9aa 	bl	80005d0 <HAL_Init>
  /* Configure the system clock */
  /* USER CODE BEGIN SysInit */
  /* USER CODE END SysInit */

  /* Initialize all configured peripherals */
  MX_USART2_UART_Init();
 800027c:	f000 f882 	bl	8000384 <MX_USART2_UART_Init>
  MX_CRC_Init();
 8000280:	f000 f860 	bl	8000344 <MX_CRC_Init>
  /* USER CODE BEGIN 2 */
  /* Set the values of EntropyData, Nonce, Personalization String and their sizes inside the RNGinit_st structure */
    RNGinit_st.pmEntropyData = entropy_data;
 8000284:	4b27      	ldr	r3, [pc, #156]	; (8000324 <main+0xb0>)
 8000286:	4a28      	ldr	r2, [pc, #160]	; (8000328 <main+0xb4>)
 8000288:	601a      	str	r2, [r3, #0]
    RNGinit_st.mEntropyDataSize = sizeof(entropy_data);
 800028a:	4b26      	ldr	r3, [pc, #152]	; (8000324 <main+0xb0>)
 800028c:	2220      	movs	r2, #32
 800028e:	605a      	str	r2, [r3, #4]
    RNGinit_st.pmNonce =  nonce;
 8000290:	4b24      	ldr	r3, [pc, #144]	; (8000324 <main+0xb0>)
 8000292:	4a26      	ldr	r2, [pc, #152]	; (800032c <main+0xb8>)
 8000294:	609a      	str	r2, [r3, #8]
    RNGinit_st.mNonceSize = sizeof( nonce );
 8000296:	4b23      	ldr	r3, [pc, #140]	; (8000324 <main+0xb0>)
 8000298:	2206      	movs	r2, #6
 800029a:	60da      	str	r2, [r3, #12]
    RNGinit_st.pmPersData = personalization_String;
 800029c:	4b21      	ldr	r3, [pc, #132]	; (8000324 <main+0xb0>)
 800029e:	4a24      	ldr	r2, [pc, #144]	; (8000330 <main+0xbc>)
 80002a0:	611a      	str	r2, [r3, #16]
    RNGinit_st.mPersDataSize = sizeof( personalization_String );
 80002a2:	4b20      	ldr	r3, [pc, #128]	; (8000324 <main+0xb0>)
 80002a4:	2208      	movs	r2, #8
 80002a6:	615a      	str	r2, [r3, #20]

    status = RNGinit(&RNGinit_st,&RNGstate);
 80002a8:	4a22      	ldr	r2, [pc, #136]	; (8000334 <main+0xc0>)
 80002aa:	4b1e      	ldr	r3, [pc, #120]	; (8000324 <main+0xb0>)
 80002ac:	0011      	movs	r1, r2
 80002ae:	0018      	movs	r0, r3
 80002b0:	f003 f92a 	bl	8003508 <RNGinit>
 80002b4:	0002      	movs	r2, r0
 80002b6:	4b20      	ldr	r3, [pc, #128]	; (8000338 <main+0xc4>)
 80002b8:	601a      	str	r2, [r3, #0]
    if  ( status == RNG_SUCCESS )
 80002ba:	4b1f      	ldr	r3, [pc, #124]	; (8000338 <main+0xc4>)
 80002bc:	681b      	ldr	r3, [r3, #0]
 80002be:	2b00      	cmp	r3, #0
 80002c0:	d12c      	bne.n	800031c <main+0xa8>
    {
      /* The Random engine has been initialized, the status is in RNGstate */

      /* Now fill the random string with random bytes */
      status = RNGgenBytes(&RNGstate, NULL, RandomString, sizeof(RandomString));
 80002c2:	4a1e      	ldr	r2, [pc, #120]	; (800033c <main+0xc8>)
 80002c4:	481b      	ldr	r0, [pc, #108]	; (8000334 <main+0xc0>)
 80002c6:	2320      	movs	r3, #32
 80002c8:	2100      	movs	r1, #0
 80002ca:	f003 f951 	bl	8003570 <RNGgenBytes>
 80002ce:	0002      	movs	r2, r0
 80002d0:	4b19      	ldr	r3, [pc, #100]	; (8000338 <main+0xc4>)
 80002d2:	601a      	str	r2, [r3, #0]
      if (status == RNG_SUCCESS)
 80002d4:	4b18      	ldr	r3, [pc, #96]	; (8000338 <main+0xc4>)
 80002d6:	681b      	ldr	r3, [r3, #0]
 80002d8:	2b00      	cmp	r3, #0
 80002da:	d11c      	bne.n	8000316 <main+0xa2>
      {

    	  status = ED25519keyGen(RandomString, pubKey);
 80002dc:	4a18      	ldr	r2, [pc, #96]	; (8000340 <main+0xcc>)
 80002de:	4b17      	ldr	r3, [pc, #92]	; (800033c <main+0xc8>)
 80002e0:	0011      	movs	r1, r2
 80002e2:	0018      	movs	r0, r3
 80002e4:	f006 f9dc 	bl	80066a0 <ED25519keyGen>
 80002e8:	0002      	movs	r2, r0
 80002ea:	4b13      	ldr	r3, [pc, #76]	; (8000338 <main+0xc4>)
 80002ec:	601a      	str	r2, [r3, #0]
    	  if (status != ED25519_SUCCESS)
 80002ee:	4b12      	ldr	r3, [pc, #72]	; (8000338 <main+0xc4>)
 80002f0:	681b      	ldr	r3, [r3, #0]
 80002f2:	2b00      	cmp	r3, #0
 80002f4:	d001      	beq.n	80002fa <main+0x86>
    	  {
    		  Error_Handler();
 80002f6:	f000 f875 	bl	80003e4 <Error_Handler>
    	  }


        /* Random Generated Succefully, free the state before returning */
         status = RNGfree(&RNGstate);
 80002fa:	4b0e      	ldr	r3, [pc, #56]	; (8000334 <main+0xc0>)
 80002fc:	0018      	movs	r0, r3
 80002fe:	f003 f923 	bl	8003548 <RNGfree>
 8000302:	0002      	movs	r2, r0
 8000304:	4b0c      	ldr	r3, [pc, #48]	; (8000338 <main+0xc4>)
 8000306:	601a      	str	r2, [r3, #0]
         if  ( status != RNG_SUCCESS )
 8000308:	4b0b      	ldr	r3, [pc, #44]	; (8000338 <main+0xc4>)
 800030a:	681b      	ldr	r3, [r3, #0]
 800030c:	2b00      	cmp	r3, #0
 800030e:	d007      	beq.n	8000320 <main+0xac>
         {
             Error_Handler();
 8000310:	f000 f868 	bl	80003e4 <Error_Handler>
 8000314:	e004      	b.n	8000320 <main+0xac>
      {
        /* In case of randomization not success possible values of status:
         * RNG_ERR_BAD_PARAMETER, RNG_ERR_UNINIT_STATE
         */

        Error_Handler();
 8000316:	f000 f865 	bl	80003e4 <Error_Handler>
 800031a:	e001      	b.n	8000320 <main+0xac>
    else
    {
      /* In case of randomization not success possible values of status:
       * RNG_ERR_BAD_ENTROPY_SIZE, RNG_ERR_BAD_PERS_STRING_SIZE
       */
    	Error_Handler();
 800031c:	f000 f862 	bl	80003e4 <Error_Handler>
  /* USER CODE END 2 */

  /* Infinite loop */
  /* USER CODE BEGIN WHILE */

  while (1)
 8000320:	e7fe      	b.n	8000320 <main+0xac>
 8000322:	46c0      	nop			; (mov r8, r8)
 8000324:	200000c0 	.word	0x200000c0
 8000328:	20000000 	.word	0x20000000
 800032c:	20000020 	.word	0x20000020
 8000330:	20000028 	.word	0x20000028
 8000334:	20000078 	.word	0x20000078
 8000338:	20000184 	.word	0x20000184
 800033c:	20000158 	.word	0x20000158
 8000340:	20000058 	.word	0x20000058

08000344 <MX_CRC_Init>:
  * @brief CRC Initialization Function
  * @param None
  * @retval None
  */
static void MX_CRC_Init(void)
{
 8000344:	b580      	push	{r7, lr}
 8000346:	af00      	add	r7, sp, #0
  /* USER CODE END CRC_Init 0 */

  /* USER CODE BEGIN CRC_Init 1 */

  /* USER CODE END CRC_Init 1 */
  hcrc.Instance = CRC;
 8000348:	4b0c      	ldr	r3, [pc, #48]	; (800037c <MX_CRC_Init+0x38>)
 800034a:	4a0d      	ldr	r2, [pc, #52]	; (8000380 <MX_CRC_Init+0x3c>)
 800034c:	601a      	str	r2, [r3, #0]
  hcrc.Init.DefaultInitValueUse = DEFAULT_INIT_VALUE_ENABLE;
 800034e:	4b0b      	ldr	r3, [pc, #44]	; (800037c <MX_CRC_Init+0x38>)
 8000350:	2200      	movs	r2, #0
 8000352:	711a      	strb	r2, [r3, #4]
  hcrc.Init.InputDataInversionMode = CRC_INPUTDATA_INVERSION_NONE;
 8000354:	4b09      	ldr	r3, [pc, #36]	; (800037c <MX_CRC_Init+0x38>)
 8000356:	2200      	movs	r2, #0
 8000358:	60da      	str	r2, [r3, #12]
  hcrc.Init.OutputDataInversionMode = CRC_OUTPUTDATA_INVERSION_DISABLE;
 800035a:	4b08      	ldr	r3, [pc, #32]	; (800037c <MX_CRC_Init+0x38>)
 800035c:	2200      	movs	r2, #0
 800035e:	611a      	str	r2, [r3, #16]
  hcrc.InputDataFormat = CRC_INPUTDATA_FORMAT_BYTES;
 8000360:	4b06      	ldr	r3, [pc, #24]	; (800037c <MX_CRC_Init+0x38>)
 8000362:	2201      	movs	r2, #1
 8000364:	619a      	str	r2, [r3, #24]
  if (HAL_CRC_Init(&hcrc) != HAL_OK)
 8000366:	4b05      	ldr	r3, [pc, #20]	; (800037c <MX_CRC_Init+0x38>)
 8000368:	0018      	movs	r0, r3
 800036a:	f000 fa49 	bl	8000800 <HAL_CRC_Init>
 800036e:	1e03      	subs	r3, r0, #0
 8000370:	d001      	beq.n	8000376 <MX_CRC_Init+0x32>
  {
    Error_Handler();
 8000372:	f000 f837 	bl	80003e4 <Error_Handler>
  }
  /* USER CODE BEGIN CRC_Init 2 */

  /* USER CODE END CRC_Init 2 */

}
 8000376:	46c0      	nop			; (mov r8, r8)
 8000378:	46bd      	mov	sp, r7
 800037a:	bd80      	pop	{r7, pc}
 800037c:	200000a4 	.word	0x200000a4
 8000380:	40023000 	.word	0x40023000

08000384 <MX_USART2_UART_Init>:
  * @brief USART2 Initialization Function
  * @param None
  * @retval None
  */
static void MX_USART2_UART_Init(void)
{
 8000384:	b580      	push	{r7, lr}
 8000386:	af00      	add	r7, sp, #0
  /* USER CODE END USART2_Init 0 */

  /* USER CODE BEGIN USART2_Init 1 */

  /* USER CODE END USART2_Init 1 */
  huart2.Instance = USART2;
 8000388:	4b14      	ldr	r3, [pc, #80]	; (80003dc <MX_USART2_UART_Init+0x58>)
 800038a:	4a15      	ldr	r2, [pc, #84]	; (80003e0 <MX_USART2_UART_Init+0x5c>)
 800038c:	601a      	str	r2, [r3, #0]
  huart2.Init.BaudRate = 38400;
 800038e:	4b13      	ldr	r3, [pc, #76]	; (80003dc <MX_USART2_UART_Init+0x58>)
 8000390:	2296      	movs	r2, #150	; 0x96
 8000392:	0212      	lsls	r2, r2, #8
 8000394:	605a      	str	r2, [r3, #4]
  huart2.Init.WordLength = UART_WORDLENGTH_8B;
 8000396:	4b11      	ldr	r3, [pc, #68]	; (80003dc <MX_USART2_UART_Init+0x58>)
 8000398:	2200      	movs	r2, #0
 800039a:	609a      	str	r2, [r3, #8]
  huart2.Init.StopBits = UART_STOPBITS_1;
 800039c:	4b0f      	ldr	r3, [pc, #60]	; (80003dc <MX_USART2_UART_Init+0x58>)
 800039e:	2200      	movs	r2, #0
 80003a0:	60da      	str	r2, [r3, #12]
  huart2.Init.Parity = UART_PARITY_NONE;
 80003a2:	4b0e      	ldr	r3, [pc, #56]	; (80003dc <MX_USART2_UART_Init+0x58>)
 80003a4:	2200      	movs	r2, #0
 80003a6:	611a      	str	r2, [r3, #16]
  huart2.Init.Mode = UART_MODE_TX_RX;
 80003a8:	4b0c      	ldr	r3, [pc, #48]	; (80003dc <MX_USART2_UART_Init+0x58>)
 80003aa:	220c      	movs	r2, #12
 80003ac:	615a      	str	r2, [r3, #20]
  huart2.Init.HwFlowCtl = UART_HWCONTROL_NONE;
 80003ae:	4b0b      	ldr	r3, [pc, #44]	; (80003dc <MX_USART2_UART_Init+0x58>)
 80003b0:	2200      	movs	r2, #0
 80003b2:	619a      	str	r2, [r3, #24]
  huart2.Init.OverSampling = UART_OVERSAMPLING_16;
 80003b4:	4b09      	ldr	r3, [pc, #36]	; (80003dc <MX_USART2_UART_Init+0x58>)
 80003b6:	2200      	movs	r2, #0
 80003b8:	61da      	str	r2, [r3, #28]
  huart2.Init.OneBitSampling = UART_ONE_BIT_SAMPLE_DISABLE;
 80003ba:	4b08      	ldr	r3, [pc, #32]	; (80003dc <MX_USART2_UART_Init+0x58>)
 80003bc:	2200      	movs	r2, #0
 80003be:	621a      	str	r2, [r3, #32]
  huart2.AdvancedInit.AdvFeatureInit = UART_ADVFEATURE_NO_INIT;
 80003c0:	4b06      	ldr	r3, [pc, #24]	; (80003dc <MX_USART2_UART_Init+0x58>)
 80003c2:	2200      	movs	r2, #0
 80003c4:	625a      	str	r2, [r3, #36]	; 0x24
  if (HAL_UART_Init(&huart2) != HAL_OK)
 80003c6:	4b05      	ldr	r3, [pc, #20]	; (80003dc <MX_USART2_UART_Init+0x58>)
 80003c8:	0018      	movs	r0, r3
 80003ca:	f000 fc67 	bl	8000c9c <HAL_UART_Init>
 80003ce:	1e03      	subs	r3, r0, #0
 80003d0:	d001      	beq.n	80003d6 <MX_USART2_UART_Init+0x52>
  {
    Error_Handler();
 80003d2:	f000 f807 	bl	80003e4 <Error_Handler>
  }
  /* USER CODE BEGIN USART2_Init 2 */

  /* USER CODE END USART2_Init 2 */

}
 80003d6:	46c0      	nop			; (mov r8, r8)
 80003d8:	46bd      	mov	sp, r7
 80003da:	bd80      	pop	{r7, pc}
 80003dc:	200000d8 	.word	0x200000d8
 80003e0:	40004400 	.word	0x40004400

080003e4 <Error_Handler>:


void Error_Handler(void)
{
 80003e4:	b580      	push	{r7, lr}
 80003e6:	af00      	add	r7, sp, #0
  /* USER CODE BEGIN Error_Handler_Debug */
  /* User can add his own implementation to report the HAL error return state */

  /* USER CODE END Error_Handler_Debug */
}
 80003e8:	46c0      	nop			; (mov r8, r8)
 80003ea:	46bd      	mov	sp, r7
 80003ec:	bd80      	pop	{r7, pc}
	...

080003f0 <HAL_MspInit>:
/* USER CODE END 0 */
/**
  * Initializes the Global MSP.
  */
void HAL_MspInit(void)
{
 80003f0:	b580      	push	{r7, lr}
 80003f2:	b082      	sub	sp, #8
 80003f4:	af00      	add	r7, sp, #0
  /* USER CODE BEGIN MspInit 0 */

  /* USER CODE END MspInit 0 */

  __HAL_RCC_SYSCFG_CLK_ENABLE();
 80003f6:	4b0f      	ldr	r3, [pc, #60]	; (8000434 <HAL_MspInit+0x44>)
 80003f8:	699a      	ldr	r2, [r3, #24]
 80003fa:	4b0e      	ldr	r3, [pc, #56]	; (8000434 <HAL_MspInit+0x44>)
 80003fc:	2101      	movs	r1, #1
 80003fe:	430a      	orrs	r2, r1
 8000400:	619a      	str	r2, [r3, #24]
 8000402:	4b0c      	ldr	r3, [pc, #48]	; (8000434 <HAL_MspInit+0x44>)
 8000404:	699b      	ldr	r3, [r3, #24]
 8000406:	2201      	movs	r2, #1
 8000408:	4013      	ands	r3, r2
 800040a:	607b      	str	r3, [r7, #4]
 800040c:	687b      	ldr	r3, [r7, #4]
  __HAL_RCC_PWR_CLK_ENABLE();
 800040e:	4b09      	ldr	r3, [pc, #36]	; (8000434 <HAL_MspInit+0x44>)
 8000410:	69da      	ldr	r2, [r3, #28]
 8000412:	4b08      	ldr	r3, [pc, #32]	; (8000434 <HAL_MspInit+0x44>)
 8000414:	2180      	movs	r1, #128	; 0x80
 8000416:	0549      	lsls	r1, r1, #21
 8000418:	430a      	orrs	r2, r1
 800041a:	61da      	str	r2, [r3, #28]
 800041c:	4b05      	ldr	r3, [pc, #20]	; (8000434 <HAL_MspInit+0x44>)
 800041e:	69da      	ldr	r2, [r3, #28]
 8000420:	2380      	movs	r3, #128	; 0x80
 8000422:	055b      	lsls	r3, r3, #21
 8000424:	4013      	ands	r3, r2
 8000426:	603b      	str	r3, [r7, #0]
 8000428:	683b      	ldr	r3, [r7, #0]
  /* System interrupt init*/

  /* USER CODE BEGIN MspInit 1 */

  /* USER CODE END MspInit 1 */
}
 800042a:	46c0      	nop			; (mov r8, r8)
 800042c:	46bd      	mov	sp, r7
 800042e:	b002      	add	sp, #8
 8000430:	bd80      	pop	{r7, pc}
 8000432:	46c0      	nop			; (mov r8, r8)
 8000434:	40021000 	.word	0x40021000

08000438 <HAL_CRC_MspInit>:
* This function configures the hardware resources used in this example
* @param hcrc: CRC handle pointer
* @retval None
*/
void HAL_CRC_MspInit(CRC_HandleTypeDef* hcrc)
{
 8000438:	b580      	push	{r7, lr}
 800043a:	b084      	sub	sp, #16
 800043c:	af00      	add	r7, sp, #0
 800043e:	6078      	str	r0, [r7, #4]
  if(hcrc->Instance==CRC)
 8000440:	687b      	ldr	r3, [r7, #4]
 8000442:	681b      	ldr	r3, [r3, #0]
 8000444:	4a09      	ldr	r2, [pc, #36]	; (800046c <HAL_CRC_MspInit+0x34>)
 8000446:	4293      	cmp	r3, r2
 8000448:	d10b      	bne.n	8000462 <HAL_CRC_MspInit+0x2a>
  {
  /* USER CODE BEGIN CRC_MspInit 0 */

  /* USER CODE END CRC_MspInit 0 */
    /* Peripheral clock enable */
    __HAL_RCC_CRC_CLK_ENABLE();
 800044a:	4b09      	ldr	r3, [pc, #36]	; (8000470 <HAL_CRC_MspInit+0x38>)
 800044c:	695a      	ldr	r2, [r3, #20]
 800044e:	4b08      	ldr	r3, [pc, #32]	; (8000470 <HAL_CRC_MspInit+0x38>)
 8000450:	2140      	movs	r1, #64	; 0x40
 8000452:	430a      	orrs	r2, r1
 8000454:	615a      	str	r2, [r3, #20]
 8000456:	4b06      	ldr	r3, [pc, #24]	; (8000470 <HAL_CRC_MspInit+0x38>)
 8000458:	695b      	ldr	r3, [r3, #20]
 800045a:	2240      	movs	r2, #64	; 0x40
 800045c:	4013      	ands	r3, r2
 800045e:	60fb      	str	r3, [r7, #12]
 8000460:	68fb      	ldr	r3, [r7, #12]
  /* USER CODE BEGIN CRC_MspInit 1 */

  /* USER CODE END CRC_MspInit 1 */
  }

}
 8000462:	46c0      	nop			; (mov r8, r8)
 8000464:	46bd      	mov	sp, r7
 8000466:	b004      	add	sp, #16
 8000468:	bd80      	pop	{r7, pc}
 800046a:	46c0      	nop			; (mov r8, r8)
 800046c:	40023000 	.word	0x40023000
 8000470:	40021000 	.word	0x40021000

08000474 <HAL_UART_MspInit>:
* This function configures the hardware resources used in this example
* @param huart: UART handle pointer
* @retval None
*/
void HAL_UART_MspInit(UART_HandleTypeDef* huart)
{
 8000474:	b580      	push	{r7, lr}
 8000476:	b08a      	sub	sp, #40	; 0x28
 8000478:	af00      	add	r7, sp, #0
 800047a:	6078      	str	r0, [r7, #4]
  GPIO_InitTypeDef GPIO_InitStruct = {0};
 800047c:	2314      	movs	r3, #20
 800047e:	18fb      	adds	r3, r7, r3
 8000480:	0018      	movs	r0, r3
 8000482:	2314      	movs	r3, #20
 8000484:	001a      	movs	r2, r3
 8000486:	2100      	movs	r1, #0
 8000488:	f006 fc2a 	bl	8006ce0 <memset>
  if(huart->Instance==USART2)
 800048c:	687b      	ldr	r3, [r7, #4]
 800048e:	681b      	ldr	r3, [r3, #0]
 8000490:	4a1c      	ldr	r2, [pc, #112]	; (8000504 <HAL_UART_MspInit+0x90>)
 8000492:	4293      	cmp	r3, r2
 8000494:	d132      	bne.n	80004fc <HAL_UART_MspInit+0x88>
  {
  /* USER CODE BEGIN USART2_MspInit 0 */

  /* USER CODE END USART2_MspInit 0 */
    /* Peripheral clock enable */
    __HAL_RCC_USART2_CLK_ENABLE();
 8000496:	4b1c      	ldr	r3, [pc, #112]	; (8000508 <HAL_UART_MspInit+0x94>)
 8000498:	69da      	ldr	r2, [r3, #28]
 800049a:	4b1b      	ldr	r3, [pc, #108]	; (8000508 <HAL_UART_MspInit+0x94>)
 800049c:	2180      	movs	r1, #128	; 0x80
 800049e:	0289      	lsls	r1, r1, #10
 80004a0:	430a      	orrs	r2, r1
 80004a2:	61da      	str	r2, [r3, #28]
 80004a4:	4b18      	ldr	r3, [pc, #96]	; (8000508 <HAL_UART_MspInit+0x94>)
 80004a6:	69da      	ldr	r2, [r3, #28]
 80004a8:	2380      	movs	r3, #128	; 0x80
 80004aa:	029b      	lsls	r3, r3, #10
 80004ac:	4013      	ands	r3, r2
 80004ae:	613b      	str	r3, [r7, #16]
 80004b0:	693b      	ldr	r3, [r7, #16]

    __HAL_RCC_GPIOA_CLK_ENABLE();
 80004b2:	4b15      	ldr	r3, [pc, #84]	; (8000508 <HAL_UART_MspInit+0x94>)
 80004b4:	695a      	ldr	r2, [r3, #20]
 80004b6:	4b14      	ldr	r3, [pc, #80]	; (8000508 <HAL_UART_MspInit+0x94>)
 80004b8:	2180      	movs	r1, #128	; 0x80
 80004ba:	0289      	lsls	r1, r1, #10
 80004bc:	430a      	orrs	r2, r1
 80004be:	615a      	str	r2, [r3, #20]
 80004c0:	4b11      	ldr	r3, [pc, #68]	; (8000508 <HAL_UART_MspInit+0x94>)
 80004c2:	695a      	ldr	r2, [r3, #20]
 80004c4:	2380      	movs	r3, #128	; 0x80
 80004c6:	029b      	lsls	r3, r3, #10
 80004c8:	4013      	ands	r3, r2
 80004ca:	60fb      	str	r3, [r7, #12]
 80004cc:	68fb      	ldr	r3, [r7, #12]
    /**USART2 GPIO Configuration
    PA2     ------> USART2_TX
    PA15     ------> USART2_RX
    */
    GPIO_InitStruct.Pin = VCP_TX_Pin|VCP_RX_Pin;
 80004ce:	2114      	movs	r1, #20
 80004d0:	187b      	adds	r3, r7, r1
 80004d2:	4a0e      	ldr	r2, [pc, #56]	; (800050c <HAL_UART_MspInit+0x98>)
 80004d4:	601a      	str	r2, [r3, #0]
    GPIO_InitStruct.Mode = GPIO_MODE_AF_PP;
 80004d6:	187b      	adds	r3, r7, r1
 80004d8:	2202      	movs	r2, #2
 80004da:	605a      	str	r2, [r3, #4]
    GPIO_InitStruct.Pull = GPIO_NOPULL;
 80004dc:	187b      	adds	r3, r7, r1
 80004de:	2200      	movs	r2, #0
 80004e0:	609a      	str	r2, [r3, #8]
    GPIO_InitStruct.Speed = GPIO_SPEED_FREQ_HIGH;
 80004e2:	187b      	adds	r3, r7, r1
 80004e4:	2203      	movs	r2, #3
 80004e6:	60da      	str	r2, [r3, #12]
    GPIO_InitStruct.Alternate = GPIO_AF1_USART2;
 80004e8:	187b      	adds	r3, r7, r1
 80004ea:	2201      	movs	r2, #1
 80004ec:	611a      	str	r2, [r3, #16]
    HAL_GPIO_Init(GPIOA, &GPIO_InitStruct);
 80004ee:	187a      	adds	r2, r7, r1
 80004f0:	2390      	movs	r3, #144	; 0x90
 80004f2:	05db      	lsls	r3, r3, #23
 80004f4:	0011      	movs	r1, r2
 80004f6:	0018      	movs	r0, r3
 80004f8:	f000 f9ca 	bl	8000890 <HAL_GPIO_Init>
  /* USER CODE BEGIN USART2_MspInit 1 */

  /* USER CODE END USART2_MspInit 1 */
  }

}
 80004fc:	46c0      	nop			; (mov r8, r8)
 80004fe:	46bd      	mov	sp, r7
 8000500:	b00a      	add	sp, #40	; 0x28
 8000502:	bd80      	pop	{r7, pc}
 8000504:	40004400 	.word	0x40004400
 8000508:	40021000 	.word	0x40021000
 800050c:	00008004 	.word	0x00008004

08000510 <NMI_Handler>:
/******************************************************************************/
/**
  * @brief This function handles Non maskable interrupt.
  */
void NMI_Handler(void)
{
 8000510:	b580      	push	{r7, lr}
 8000512:	af00      	add	r7, sp, #0

  /* USER CODE END NonMaskableInt_IRQn 0 */
  /* USER CODE BEGIN NonMaskableInt_IRQn 1 */

  /* USER CODE END NonMaskableInt_IRQn 1 */
}
 8000514:	46c0      	nop			; (mov r8, r8)
 8000516:	46bd      	mov	sp, r7
 8000518:	bd80      	pop	{r7, pc}

0800051a <HardFault_Handler>:

/**
  * @brief This function handles Hard fault interrupt.
  */
void HardFault_Handler(void)
{
 800051a:	b580      	push	{r7, lr}
 800051c:	af00      	add	r7, sp, #0
  /* USER CODE BEGIN HardFault_IRQn 0 */

  /* USER CODE END HardFault_IRQn 0 */
  while (1)
 800051e:	e7fe      	b.n	800051e <HardFault_Handler+0x4>

08000520 <SVC_Handler>:

/**
  * @brief This function handles System service call via SWI instruction.
  */
void SVC_Handler(void)
{
 8000520:	b580      	push	{r7, lr}
 8000522:	af00      	add	r7, sp, #0

  /* USER CODE END SVC_IRQn 0 */
  /* USER CODE BEGIN SVC_IRQn 1 */

  /* USER CODE END SVC_IRQn 1 */
}
 8000524:	46c0      	nop			; (mov r8, r8)
 8000526:	46bd      	mov	sp, r7
 8000528:	bd80      	pop	{r7, pc}

0800052a <PendSV_Handler>:

/**
  * @brief This function handles Pendable request for system service.
  */
void PendSV_Handler(void)
{
 800052a:	b580      	push	{r7, lr}
 800052c:	af00      	add	r7, sp, #0

  /* USER CODE END PendSV_IRQn 0 */
  /* USER CODE BEGIN PendSV_IRQn 1 */

  /* USER CODE END PendSV_IRQn 1 */
}
 800052e:	46c0      	nop			; (mov r8, r8)
 8000530:	46bd      	mov	sp, r7
 8000532:	bd80      	pop	{r7, pc}

08000534 <SysTick_Handler>:

/**
  * @brief This function handles System tick timer.
  */
void SysTick_Handler(void)
{
 8000534:	b580      	push	{r7, lr}
 8000536:	af00      	add	r7, sp, #0
  /* USER CODE BEGIN SysTick_IRQn 0 */

  /* USER CODE END SysTick_IRQn 0 */
  HAL_IncTick();
 8000538:	f000 f892 	bl	8000660 <HAL_IncTick>
  /* USER CODE BEGIN SysTick_IRQn 1 */

  /* USER CODE END SysTick_IRQn 1 */
}
 800053c:	46c0      	nop			; (mov r8, r8)
 800053e:	46bd      	mov	sp, r7
 8000540:	bd80      	pop	{r7, pc}

08000542 <SystemInit>:
  * @brief  Setup the microcontroller system.
  * @param  None
  * @retval None
  */
void SystemInit(void)
{
 8000542:	b580      	push	{r7, lr}
 8000544:	af00      	add	r7, sp, #0
                         before branch to main program. This call is made inside
                         the "startup_stm32f0xx.s" file.
                         User can setups the default system clock (System clock source, PLL Multiplier
                         and Divider factors, AHB/APBx prescalers and Flash settings).
   */
}
 8000546:	46c0      	nop			; (mov r8, r8)
 8000548:	46bd      	mov	sp, r7
 800054a:	bd80      	pop	{r7, pc}

0800054c <Reset_Handler>:

  .section .text.Reset_Handler
  .weak Reset_Handler
  .type Reset_Handler, %function
Reset_Handler:
  ldr   r0, =_estack
 800054c:	4813      	ldr	r0, [pc, #76]	; (800059c <LoopForever+0x2>)
  mov   sp, r0          /* set stack pointer */
 800054e:	4685      	mov	sp, r0

/*Check if boot space corresponds to test memory*/
 
    LDR R0,=0x00000004
 8000550:	4813      	ldr	r0, [pc, #76]	; (80005a0 <LoopForever+0x6>)
    LDR R1, [R0]
 8000552:	6801      	ldr	r1, [r0, #0]
    LSRS R1, R1, #24
 8000554:	0e09      	lsrs	r1, r1, #24
    LDR R2,=0x1F
 8000556:	4a13      	ldr	r2, [pc, #76]	; (80005a4 <LoopForever+0xa>)
    CMP R1, R2
 8000558:	4291      	cmp	r1, r2
    BNE ApplicationStart
 800055a:	d105      	bne.n	8000568 <ApplicationStart>

 /*SYSCFG clock enable*/

    LDR R0,=0x40021018
 800055c:	4812      	ldr	r0, [pc, #72]	; (80005a8 <LoopForever+0xe>)
    LDR R1,=0x00000001
 800055e:	4913      	ldr	r1, [pc, #76]	; (80005ac <LoopForever+0x12>)
    STR R1, [R0]
 8000560:	6001      	str	r1, [r0, #0]

/*Set CFGR1 register with flash memory remap at address 0*/
    LDR R0,=0x40010000
 8000562:	4813      	ldr	r0, [pc, #76]	; (80005b0 <LoopForever+0x16>)
    LDR R1,=0x00000000
 8000564:	4913      	ldr	r1, [pc, #76]	; (80005b4 <LoopForever+0x1a>)
    STR R1, [R0]
 8000566:	6001      	str	r1, [r0, #0]

08000568 <ApplicationStart>:

ApplicationStart:
/* Copy the data segment initializers from flash to SRAM */
  ldr r0, =_sdata
 8000568:	4813      	ldr	r0, [pc, #76]	; (80005b8 <LoopForever+0x1e>)
  ldr r1, =_edata
 800056a:	4914      	ldr	r1, [pc, #80]	; (80005bc <LoopForever+0x22>)
  ldr r2, =_sidata
 800056c:	4a14      	ldr	r2, [pc, #80]	; (80005c0 <LoopForever+0x26>)
  movs r3, #0
 800056e:	2300      	movs	r3, #0
  b LoopCopyDataInit
 8000570:	e002      	b.n	8000578 <LoopCopyDataInit>

08000572 <CopyDataInit>:

CopyDataInit:
  ldr r4, [r2, r3]
 8000572:	58d4      	ldr	r4, [r2, r3]
  str r4, [r0, r3]
 8000574:	50c4      	str	r4, [r0, r3]
  adds r3, r3, #4
 8000576:	3304      	adds	r3, #4

08000578 <LoopCopyDataInit>:

LoopCopyDataInit:
  adds r4, r0, r3
 8000578:	18c4      	adds	r4, r0, r3
  cmp r4, r1
 800057a:	428c      	cmp	r4, r1
  bcc CopyDataInit
 800057c:	d3f9      	bcc.n	8000572 <CopyDataInit>
  
/* Zero fill the bss segment. */
  ldr r2, =_sbss
 800057e:	4a11      	ldr	r2, [pc, #68]	; (80005c4 <LoopForever+0x2a>)
  ldr r4, =_ebss
 8000580:	4c11      	ldr	r4, [pc, #68]	; (80005c8 <LoopForever+0x2e>)
  movs r3, #0
 8000582:	2300      	movs	r3, #0
  b LoopFillZerobss
 8000584:	e001      	b.n	800058a <LoopFillZerobss>

08000586 <FillZerobss>:

FillZerobss:
  str  r3, [r2]
 8000586:	6013      	str	r3, [r2, #0]
  adds r2, r2, #4
 8000588:	3204      	adds	r2, #4

0800058a <LoopFillZerobss>:

LoopFillZerobss:
  cmp r2, r4
 800058a:	42a2      	cmp	r2, r4
  bcc FillZerobss
 800058c:	d3fb      	bcc.n	8000586 <FillZerobss>

/* Call the clock system intitialization function.*/
  bl  SystemInit
 800058e:	f7ff ffd8 	bl	8000542 <SystemInit>
/* Call static constructors */
  bl __libc_init_array
 8000592:	f006 fb65 	bl	8006c60 <__libc_init_array>
/* Call the application's entry point.*/
  bl main
 8000596:	f7ff fe6d 	bl	8000274 <main>

0800059a <LoopForever>:

LoopForever:
    b LoopForever
 800059a:	e7fe      	b.n	800059a <LoopForever>
  ldr   r0, =_estack
 800059c:	20001800 	.word	0x20001800
    LDR R0,=0x00000004
 80005a0:	00000004 	.word	0x00000004
    LDR R2,=0x1F
 80005a4:	0000001f 	.word	0x0000001f
    LDR R0,=0x40021018
 80005a8:	40021018 	.word	0x40021018
    LDR R1,=0x00000001
 80005ac:	00000001 	.word	0x00000001
    LDR R0,=0x40010000
 80005b0:	40010000 	.word	0x40010000
    LDR R1,=0x00000000
 80005b4:	00000000 	.word	0x00000000
  ldr r0, =_sdata
 80005b8:	20000000 	.word	0x20000000
  ldr r1, =_edata
 80005bc:	2000003c 	.word	0x2000003c
  ldr r2, =_sidata
 80005c0:	080078c4 	.word	0x080078c4
  ldr r2, =_sbss
 80005c4:	2000003c 	.word	0x2000003c
  ldr r4, =_ebss
 80005c8:	2000018c 	.word	0x2000018c

080005cc <ADC1_IRQHandler>:
 * @retval : None
*/
    .section .text.Default_Handler,"ax",%progbits
Default_Handler:
Infinite_Loop:
  b Infinite_Loop
 80005cc:	e7fe      	b.n	80005cc <ADC1_IRQHandler>
	...

080005d0 <HAL_Init>:
  *       In the default implementation,Systick is used as source of time base.
  *       The tick variable is incremented each 1ms in its ISR.
  * @retval HAL status
  */
HAL_StatusTypeDef HAL_Init(void)
{
 80005d0:	b580      	push	{r7, lr}
 80005d2:	af00      	add	r7, sp, #0
  /* Configure Flash prefetch */ 
#if (PREFETCH_ENABLE != 0)
  __HAL_FLASH_PREFETCH_BUFFER_ENABLE();
 80005d4:	4b07      	ldr	r3, [pc, #28]	; (80005f4 <HAL_Init+0x24>)
 80005d6:	681a      	ldr	r2, [r3, #0]
 80005d8:	4b06      	ldr	r3, [pc, #24]	; (80005f4 <HAL_Init+0x24>)
 80005da:	2110      	movs	r1, #16
 80005dc:	430a      	orrs	r2, r1
 80005de:	601a      	str	r2, [r3, #0]
#endif /* PREFETCH_ENABLE */

  /* Use systick as time base source and configure 1ms tick (default clock after Reset is HSI) */

  HAL_InitTick(TICK_INT_PRIORITY);
 80005e0:	2000      	movs	r0, #0
 80005e2:	f000 f809 	bl	80005f8 <HAL_InitTick>

  /* Init the low level hardware */
  HAL_MspInit();
 80005e6:	f7ff ff03 	bl	80003f0 <HAL_MspInit>

  /* Return function status */
  return HAL_OK;
 80005ea:	2300      	movs	r3, #0
}
 80005ec:	0018      	movs	r0, r3
 80005ee:	46bd      	mov	sp, r7
 80005f0:	bd80      	pop	{r7, pc}
 80005f2:	46c0      	nop			; (mov r8, r8)
 80005f4:	40022000 	.word	0x40022000

080005f8 <HAL_InitTick>:
  *       implementation  in user file.
  * @param TickPriority Tick interrupt priority.
  * @retval HAL status
  */
__weak HAL_StatusTypeDef HAL_InitTick(uint32_t TickPriority)
{
 80005f8:	b590      	push	{r4, r7, lr}
 80005fa:	b083      	sub	sp, #12
 80005fc:	af00      	add	r7, sp, #0
 80005fe:	6078      	str	r0, [r7, #4]
  /*Configure the SysTick to have interrupt in 1ms time basis*/
  if (HAL_SYSTICK_Config(SystemCoreClock / (1000U / uwTickFreq)) > 0U)
 8000600:	4b14      	ldr	r3, [pc, #80]	; (8000654 <HAL_InitTick+0x5c>)
 8000602:	681c      	ldr	r4, [r3, #0]
 8000604:	4b14      	ldr	r3, [pc, #80]	; (8000658 <HAL_InitTick+0x60>)
 8000606:	781b      	ldrb	r3, [r3, #0]
 8000608:	0019      	movs	r1, r3
 800060a:	23fa      	movs	r3, #250	; 0xfa
 800060c:	0098      	lsls	r0, r3, #2
 800060e:	f7ff fd7b 	bl	8000108 <__udivsi3>
 8000612:	0003      	movs	r3, r0
 8000614:	0019      	movs	r1, r3
 8000616:	0020      	movs	r0, r4
 8000618:	f7ff fd76 	bl	8000108 <__udivsi3>
 800061c:	0003      	movs	r3, r0
 800061e:	0018      	movs	r0, r3
 8000620:	f000 f8e1 	bl	80007e6 <HAL_SYSTICK_Config>
 8000624:	1e03      	subs	r3, r0, #0
 8000626:	d001      	beq.n	800062c <HAL_InitTick+0x34>
  {
    return HAL_ERROR;
 8000628:	2301      	movs	r3, #1
 800062a:	e00f      	b.n	800064c <HAL_InitTick+0x54>
  }

  /* Configure the SysTick IRQ priority */
  if (TickPriority < (1UL << __NVIC_PRIO_BITS))
 800062c:	687b      	ldr	r3, [r7, #4]
 800062e:	2b03      	cmp	r3, #3
 8000630:	d80b      	bhi.n	800064a <HAL_InitTick+0x52>
  {
    HAL_NVIC_SetPriority(SysTick_IRQn, TickPriority, 0U);
 8000632:	6879      	ldr	r1, [r7, #4]
 8000634:	2301      	movs	r3, #1
 8000636:	425b      	negs	r3, r3
 8000638:	2200      	movs	r2, #0
 800063a:	0018      	movs	r0, r3
 800063c:	f000 f8be 	bl	80007bc <HAL_NVIC_SetPriority>
    uwTickPrio = TickPriority;
 8000640:	4b06      	ldr	r3, [pc, #24]	; (800065c <HAL_InitTick+0x64>)
 8000642:	687a      	ldr	r2, [r7, #4]
 8000644:	601a      	str	r2, [r3, #0]
  {
    return HAL_ERROR;
  }

   /* Return function status */
  return HAL_OK;
 8000646:	2300      	movs	r3, #0
 8000648:	e000      	b.n	800064c <HAL_InitTick+0x54>
    return HAL_ERROR;
 800064a:	2301      	movs	r3, #1
}
 800064c:	0018      	movs	r0, r3
 800064e:	46bd      	mov	sp, r7
 8000650:	b003      	add	sp, #12
 8000652:	bd90      	pop	{r4, r7, pc}
 8000654:	20000030 	.word	0x20000030
 8000658:	20000038 	.word	0x20000038
 800065c:	20000034 	.word	0x20000034

08000660 <HAL_IncTick>:
  * @note This function is declared as __weak to be overwritten in case of other 
  *       implementations in user file.
  * @retval None
  */
__weak void HAL_IncTick(void)
{
 8000660:	b580      	push	{r7, lr}
 8000662:	af00      	add	r7, sp, #0
  uwTick += uwTickFreq;
 8000664:	4b05      	ldr	r3, [pc, #20]	; (800067c <HAL_IncTick+0x1c>)
 8000666:	781b      	ldrb	r3, [r3, #0]
 8000668:	001a      	movs	r2, r3
 800066a:	4b05      	ldr	r3, [pc, #20]	; (8000680 <HAL_IncTick+0x20>)
 800066c:	681b      	ldr	r3, [r3, #0]
 800066e:	18d2      	adds	r2, r2, r3
 8000670:	4b03      	ldr	r3, [pc, #12]	; (8000680 <HAL_IncTick+0x20>)
 8000672:	601a      	str	r2, [r3, #0]
}
 8000674:	46c0      	nop			; (mov r8, r8)
 8000676:	46bd      	mov	sp, r7
 8000678:	bd80      	pop	{r7, pc}
 800067a:	46c0      	nop			; (mov r8, r8)
 800067c:	20000038 	.word	0x20000038
 8000680:	20000188 	.word	0x20000188

08000684 <HAL_GetTick>:
  * @note   This function is declared as __weak  to be overwritten  in case of other 
  *       implementations in user file.
  * @retval tick value
  */
__weak uint32_t HAL_GetTick(void)
{
 8000684:	b580      	push	{r7, lr}
 8000686:	af00      	add	r7, sp, #0
  return uwTick;
 8000688:	4b02      	ldr	r3, [pc, #8]	; (8000694 <HAL_GetTick+0x10>)
 800068a:	681b      	ldr	r3, [r3, #0]
}
 800068c:	0018      	movs	r0, r3
 800068e:	46bd      	mov	sp, r7
 8000690:	bd80      	pop	{r7, pc}
 8000692:	46c0      	nop			; (mov r8, r8)
 8000694:	20000188 	.word	0x20000188

08000698 <__NVIC_SetPriority>:
  \param [in]      IRQn  Interrupt number.
  \param [in]  priority  Priority to set.
  \note    The priority cannot be set for every processor exception.
 */
__STATIC_INLINE void __NVIC_SetPriority(IRQn_Type IRQn, uint32_t priority)
{
 8000698:	b590      	push	{r4, r7, lr}
 800069a:	b083      	sub	sp, #12
 800069c:	af00      	add	r7, sp, #0
 800069e:	0002      	movs	r2, r0
 80006a0:	6039      	str	r1, [r7, #0]
 80006a2:	1dfb      	adds	r3, r7, #7
 80006a4:	701a      	strb	r2, [r3, #0]
  if ((int32_t)(IRQn) >= 0)
 80006a6:	1dfb      	adds	r3, r7, #7
 80006a8:	781b      	ldrb	r3, [r3, #0]
 80006aa:	2b7f      	cmp	r3, #127	; 0x7f
 80006ac:	d828      	bhi.n	8000700 <__NVIC_SetPriority+0x68>
  {
    NVIC->IP[_IP_IDX(IRQn)]  = ((uint32_t)(NVIC->IP[_IP_IDX(IRQn)]  & ~(0xFFUL << _BIT_SHIFT(IRQn))) |
 80006ae:	4a2f      	ldr	r2, [pc, #188]	; (800076c <__NVIC_SetPriority+0xd4>)
 80006b0:	1dfb      	adds	r3, r7, #7
 80006b2:	781b      	ldrb	r3, [r3, #0]
 80006b4:	b25b      	sxtb	r3, r3
 80006b6:	089b      	lsrs	r3, r3, #2
 80006b8:	33c0      	adds	r3, #192	; 0xc0
 80006ba:	009b      	lsls	r3, r3, #2
 80006bc:	589b      	ldr	r3, [r3, r2]
 80006be:	1dfa      	adds	r2, r7, #7
 80006c0:	7812      	ldrb	r2, [r2, #0]
 80006c2:	0011      	movs	r1, r2
 80006c4:	2203      	movs	r2, #3
 80006c6:	400a      	ands	r2, r1
 80006c8:	00d2      	lsls	r2, r2, #3
 80006ca:	21ff      	movs	r1, #255	; 0xff
 80006cc:	4091      	lsls	r1, r2
 80006ce:	000a      	movs	r2, r1
 80006d0:	43d2      	mvns	r2, r2
 80006d2:	401a      	ands	r2, r3
 80006d4:	0011      	movs	r1, r2
       (((priority << (8U - __NVIC_PRIO_BITS)) & (uint32_t)0xFFUL) << _BIT_SHIFT(IRQn)));
 80006d6:	683b      	ldr	r3, [r7, #0]
 80006d8:	019b      	lsls	r3, r3, #6
 80006da:	22ff      	movs	r2, #255	; 0xff
 80006dc:	401a      	ands	r2, r3
 80006de:	1dfb      	adds	r3, r7, #7
 80006e0:	781b      	ldrb	r3, [r3, #0]
 80006e2:	0018      	movs	r0, r3
 80006e4:	2303      	movs	r3, #3
 80006e6:	4003      	ands	r3, r0
 80006e8:	00db      	lsls	r3, r3, #3
 80006ea:	409a      	lsls	r2, r3
    NVIC->IP[_IP_IDX(IRQn)]  = ((uint32_t)(NVIC->IP[_IP_IDX(IRQn)]  & ~(0xFFUL << _BIT_SHIFT(IRQn))) |
 80006ec:	481f      	ldr	r0, [pc, #124]	; (800076c <__NVIC_SetPriority+0xd4>)
 80006ee:	1dfb      	adds	r3, r7, #7
 80006f0:	781b      	ldrb	r3, [r3, #0]
 80006f2:	b25b      	sxtb	r3, r3
 80006f4:	089b      	lsrs	r3, r3, #2
 80006f6:	430a      	orrs	r2, r1
 80006f8:	33c0      	adds	r3, #192	; 0xc0
 80006fa:	009b      	lsls	r3, r3, #2
 80006fc:	501a      	str	r2, [r3, r0]
  else
  {
    SCB->SHP[_SHP_IDX(IRQn)] = ((uint32_t)(SCB->SHP[_SHP_IDX(IRQn)] & ~(0xFFUL << _BIT_SHIFT(IRQn))) |
       (((priority << (8U - __NVIC_PRIO_BITS)) & (uint32_t)0xFFUL) << _BIT_SHIFT(IRQn)));
  }
}
 80006fe:	e031      	b.n	8000764 <__NVIC_SetPriority+0xcc>
    SCB->SHP[_SHP_IDX(IRQn)] = ((uint32_t)(SCB->SHP[_SHP_IDX(IRQn)] & ~(0xFFUL << _BIT_SHIFT(IRQn))) |
 8000700:	4a1b      	ldr	r2, [pc, #108]	; (8000770 <__NVIC_SetPriority+0xd8>)
 8000702:	1dfb      	adds	r3, r7, #7
 8000704:	781b      	ldrb	r3, [r3, #0]
 8000706:	0019      	movs	r1, r3
 8000708:	230f      	movs	r3, #15
 800070a:	400b      	ands	r3, r1
 800070c:	3b08      	subs	r3, #8
 800070e:	089b      	lsrs	r3, r3, #2
 8000710:	3306      	adds	r3, #6
 8000712:	009b      	lsls	r3, r3, #2
 8000714:	18d3      	adds	r3, r2, r3
 8000716:	3304      	adds	r3, #4
 8000718:	681b      	ldr	r3, [r3, #0]
 800071a:	1dfa      	adds	r2, r7, #7
 800071c:	7812      	ldrb	r2, [r2, #0]
 800071e:	0011      	movs	r1, r2
 8000720:	2203      	movs	r2, #3
 8000722:	400a      	ands	r2, r1
 8000724:	00d2      	lsls	r2, r2, #3
 8000726:	21ff      	movs	r1, #255	; 0xff
 8000728:	4091      	lsls	r1, r2
 800072a:	000a      	movs	r2, r1
 800072c:	43d2      	mvns	r2, r2
 800072e:	401a      	ands	r2, r3
 8000730:	0011      	movs	r1, r2
       (((priority << (8U - __NVIC_PRIO_BITS)) & (uint32_t)0xFFUL) << _BIT_SHIFT(IRQn)));
 8000732:	683b      	ldr	r3, [r7, #0]
 8000734:	019b      	lsls	r3, r3, #6
 8000736:	22ff      	movs	r2, #255	; 0xff
 8000738:	401a      	ands	r2, r3
 800073a:	1dfb      	adds	r3, r7, #7
 800073c:	781b      	ldrb	r3, [r3, #0]
 800073e:	0018      	movs	r0, r3
 8000740:	2303      	movs	r3, #3
 8000742:	4003      	ands	r3, r0
 8000744:	00db      	lsls	r3, r3, #3
 8000746:	409a      	lsls	r2, r3
    SCB->SHP[_SHP_IDX(IRQn)] = ((uint32_t)(SCB->SHP[_SHP_IDX(IRQn)] & ~(0xFFUL << _BIT_SHIFT(IRQn))) |
 8000748:	4809      	ldr	r0, [pc, #36]	; (8000770 <__NVIC_SetPriority+0xd8>)
 800074a:	1dfb      	adds	r3, r7, #7
 800074c:	781b      	ldrb	r3, [r3, #0]
 800074e:	001c      	movs	r4, r3
 8000750:	230f      	movs	r3, #15
 8000752:	4023      	ands	r3, r4
 8000754:	3b08      	subs	r3, #8
 8000756:	089b      	lsrs	r3, r3, #2
 8000758:	430a      	orrs	r2, r1
 800075a:	3306      	adds	r3, #6
 800075c:	009b      	lsls	r3, r3, #2
 800075e:	18c3      	adds	r3, r0, r3
 8000760:	3304      	adds	r3, #4
 8000762:	601a      	str	r2, [r3, #0]
}
 8000764:	46c0      	nop			; (mov r8, r8)
 8000766:	46bd      	mov	sp, r7
 8000768:	b003      	add	sp, #12
 800076a:	bd90      	pop	{r4, r7, pc}
 800076c:	e000e100 	.word	0xe000e100
 8000770:	e000ed00 	.word	0xe000ed00

08000774 <SysTick_Config>:
  \note    When the variable <b>__Vendor_SysTickConfig</b> is set to 1, then the
           function <b>SysTick_Config</b> is not included. In this case, the file <b><i>device</i>.h</b>
           must contain a vendor-specific implementation of this function.
 */
__STATIC_INLINE uint32_t SysTick_Config(uint32_t ticks)
{
 8000774:	b580      	push	{r7, lr}
 8000776:	b082      	sub	sp, #8
 8000778:	af00      	add	r7, sp, #0
 800077a:	6078      	str	r0, [r7, #4]
  if ((ticks - 1UL) > SysTick_LOAD_RELOAD_Msk)
 800077c:	687b      	ldr	r3, [r7, #4]
 800077e:	3b01      	subs	r3, #1
 8000780:	4a0c      	ldr	r2, [pc, #48]	; (80007b4 <SysTick_Config+0x40>)
 8000782:	4293      	cmp	r3, r2
 8000784:	d901      	bls.n	800078a <SysTick_Config+0x16>
  {
    return (1UL);                                                   /* Reload value impossible */
 8000786:	2301      	movs	r3, #1
 8000788:	e010      	b.n	80007ac <SysTick_Config+0x38>
  }

  SysTick->LOAD  = (uint32_t)(ticks - 1UL);                         /* set reload register */
 800078a:	4b0b      	ldr	r3, [pc, #44]	; (80007b8 <SysTick_Config+0x44>)
 800078c:	687a      	ldr	r2, [r7, #4]
 800078e:	3a01      	subs	r2, #1
 8000790:	605a      	str	r2, [r3, #4]
  NVIC_SetPriority (SysTick_IRQn, (1UL << __NVIC_PRIO_BITS) - 1UL); /* set Priority for Systick Interrupt */
 8000792:	2301      	movs	r3, #1
 8000794:	425b      	negs	r3, r3
 8000796:	2103      	movs	r1, #3
 8000798:	0018      	movs	r0, r3
 800079a:	f7ff ff7d 	bl	8000698 <__NVIC_SetPriority>
  SysTick->VAL   = 0UL;                                             /* Load the SysTick Counter Value */
 800079e:	4b06      	ldr	r3, [pc, #24]	; (80007b8 <SysTick_Config+0x44>)
 80007a0:	2200      	movs	r2, #0
 80007a2:	609a      	str	r2, [r3, #8]
  SysTick->CTRL  = SysTick_CTRL_CLKSOURCE_Msk |
 80007a4:	4b04      	ldr	r3, [pc, #16]	; (80007b8 <SysTick_Config+0x44>)
 80007a6:	2207      	movs	r2, #7
 80007a8:	601a      	str	r2, [r3, #0]
                   SysTick_CTRL_TICKINT_Msk   |
                   SysTick_CTRL_ENABLE_Msk;                         /* Enable SysTick IRQ and SysTick Timer */
  return (0UL);                                                     /* Function successful */
 80007aa:	2300      	movs	r3, #0
}
 80007ac:	0018      	movs	r0, r3
 80007ae:	46bd      	mov	sp, r7
 80007b0:	b002      	add	sp, #8
 80007b2:	bd80      	pop	{r7, pc}
 80007b4:	00ffffff 	.word	0x00ffffff
 80007b8:	e000e010 	.word	0xe000e010

080007bc <HAL_NVIC_SetPriority>:
  *         with stm32f0xx devices, this parameter is a dummy value and it is ignored, because 
  *         no subpriority supported in Cortex M0 based products.   
  * @retval None
  */
void HAL_NVIC_SetPriority(IRQn_Type IRQn, uint32_t PreemptPriority, uint32_t SubPriority)
{ 
 80007bc:	b580      	push	{r7, lr}
 80007be:	b084      	sub	sp, #16
 80007c0:	af00      	add	r7, sp, #0
 80007c2:	60b9      	str	r1, [r7, #8]
 80007c4:	607a      	str	r2, [r7, #4]
 80007c6:	210f      	movs	r1, #15
 80007c8:	187b      	adds	r3, r7, r1
 80007ca:	1c02      	adds	r2, r0, #0
 80007cc:	701a      	strb	r2, [r3, #0]
  /* Check the parameters */
  assert_param(IS_NVIC_PREEMPTION_PRIORITY(PreemptPriority));
  NVIC_SetPriority(IRQn,PreemptPriority);
 80007ce:	68ba      	ldr	r2, [r7, #8]
 80007d0:	187b      	adds	r3, r7, r1
 80007d2:	781b      	ldrb	r3, [r3, #0]
 80007d4:	b25b      	sxtb	r3, r3
 80007d6:	0011      	movs	r1, r2
 80007d8:	0018      	movs	r0, r3
 80007da:	f7ff ff5d 	bl	8000698 <__NVIC_SetPriority>
}
 80007de:	46c0      	nop			; (mov r8, r8)
 80007e0:	46bd      	mov	sp, r7
 80007e2:	b004      	add	sp, #16
 80007e4:	bd80      	pop	{r7, pc}

080007e6 <HAL_SYSTICK_Config>:
  * @param  TicksNumb Specifies the ticks Number of ticks between two interrupts.
  * @retval status:  - 0  Function succeeded.
  *                  - 1  Function failed.
  */
uint32_t HAL_SYSTICK_Config(uint32_t TicksNumb)
{
 80007e6:	b580      	push	{r7, lr}
 80007e8:	b082      	sub	sp, #8
 80007ea:	af00      	add	r7, sp, #0
 80007ec:	6078      	str	r0, [r7, #4]
   return SysTick_Config(TicksNumb);
 80007ee:	687b      	ldr	r3, [r7, #4]
 80007f0:	0018      	movs	r0, r3
 80007f2:	f7ff ffbf 	bl	8000774 <SysTick_Config>
 80007f6:	0003      	movs	r3, r0
}
 80007f8:	0018      	movs	r0, r3
 80007fa:	46bd      	mov	sp, r7
 80007fc:	b002      	add	sp, #8
 80007fe:	bd80      	pop	{r7, pc}

08000800 <HAL_CRC_Init>:
  *         parameters in the CRC_InitTypeDef and create the associated handle.
  * @param  hcrc CRC handle
  * @retval HAL status
  */
HAL_StatusTypeDef HAL_CRC_Init(CRC_HandleTypeDef *hcrc)
{
 8000800:	b580      	push	{r7, lr}
 8000802:	b082      	sub	sp, #8
 8000804:	af00      	add	r7, sp, #0
 8000806:	6078      	str	r0, [r7, #4]
  /* Check the CRC handle allocation */
  if (hcrc == NULL)
 8000808:	687b      	ldr	r3, [r7, #4]
 800080a:	2b00      	cmp	r3, #0
 800080c:	d101      	bne.n	8000812 <HAL_CRC_Init+0x12>
  {
    return HAL_ERROR;
 800080e:	2301      	movs	r3, #1
 8000810:	e039      	b.n	8000886 <HAL_CRC_Init+0x86>
  }

  /* Check the parameters */
  assert_param(IS_CRC_ALL_INSTANCE(hcrc->Instance));

  if (hcrc->State == HAL_CRC_STATE_RESET)
 8000812:	687b      	ldr	r3, [r7, #4]
 8000814:	7d5b      	ldrb	r3, [r3, #21]
 8000816:	b2db      	uxtb	r3, r3
 8000818:	2b00      	cmp	r3, #0
 800081a:	d106      	bne.n	800082a <HAL_CRC_Init+0x2a>
  {
    /* Allocate lock resource and initialize it */
    hcrc->Lock = HAL_UNLOCKED;
 800081c:	687b      	ldr	r3, [r7, #4]
 800081e:	2200      	movs	r2, #0
 8000820:	751a      	strb	r2, [r3, #20]
    /* Init the low level hardware */
    HAL_CRC_MspInit(hcrc);
 8000822:	687b      	ldr	r3, [r7, #4]
 8000824:	0018      	movs	r0, r3
 8000826:	f7ff fe07 	bl	8000438 <HAL_CRC_MspInit>
  }

  hcrc->State = HAL_CRC_STATE_BUSY;
 800082a:	687b      	ldr	r3, [r7, #4]
 800082c:	2202      	movs	r2, #2
 800082e:	755a      	strb	r2, [r3, #21]
#endif /* CRC_POL_POL */

  /* check whether or not non-default CRC initial value has been
   * picked up by user */
  assert_param(IS_DEFAULT_INIT_VALUE(hcrc->Init.DefaultInitValueUse));
  if (hcrc->Init.DefaultInitValueUse == DEFAULT_INIT_VALUE_ENABLE)
 8000830:	687b      	ldr	r3, [r7, #4]
 8000832:	791b      	ldrb	r3, [r3, #4]
 8000834:	2b00      	cmp	r3, #0
 8000836:	d105      	bne.n	8000844 <HAL_CRC_Init+0x44>
  {
    WRITE_REG(hcrc->Instance->INIT, DEFAULT_CRC_INITVALUE);
 8000838:	687b      	ldr	r3, [r7, #4]
 800083a:	681b      	ldr	r3, [r3, #0]
 800083c:	2201      	movs	r2, #1
 800083e:	4252      	negs	r2, r2
 8000840:	611a      	str	r2, [r3, #16]
 8000842:	e004      	b.n	800084e <HAL_CRC_Init+0x4e>
  }
  else
  {
    WRITE_REG(hcrc->Instance->INIT, hcrc->Init.InitValue);
 8000844:	687b      	ldr	r3, [r7, #4]
 8000846:	681b      	ldr	r3, [r3, #0]
 8000848:	687a      	ldr	r2, [r7, #4]
 800084a:	6892      	ldr	r2, [r2, #8]
 800084c:	611a      	str	r2, [r3, #16]
  }


  /* set input data inversion mode */
  assert_param(IS_CRC_INPUTDATA_INVERSION_MODE(hcrc->Init.InputDataInversionMode));
  MODIFY_REG(hcrc->Instance->CR, CRC_CR_REV_IN, hcrc->Init.InputDataInversionMode);
 800084e:	687b      	ldr	r3, [r7, #4]
 8000850:	681b      	ldr	r3, [r3, #0]
 8000852:	689b      	ldr	r3, [r3, #8]
 8000854:	2260      	movs	r2, #96	; 0x60
 8000856:	4393      	bics	r3, r2
 8000858:	0019      	movs	r1, r3
 800085a:	687b      	ldr	r3, [r7, #4]
 800085c:	68da      	ldr	r2, [r3, #12]
 800085e:	687b      	ldr	r3, [r7, #4]
 8000860:	681b      	ldr	r3, [r3, #0]
 8000862:	430a      	orrs	r2, r1
 8000864:	609a      	str	r2, [r3, #8]

  /* set output data inversion mode */
  assert_param(IS_CRC_OUTPUTDATA_INVERSION_MODE(hcrc->Init.OutputDataInversionMode));
  MODIFY_REG(hcrc->Instance->CR, CRC_CR_REV_OUT, hcrc->Init.OutputDataInversionMode);
 8000866:	687b      	ldr	r3, [r7, #4]
 8000868:	681b      	ldr	r3, [r3, #0]
 800086a:	689b      	ldr	r3, [r3, #8]
 800086c:	2280      	movs	r2, #128	; 0x80
 800086e:	4393      	bics	r3, r2
 8000870:	0019      	movs	r1, r3
 8000872:	687b      	ldr	r3, [r7, #4]
 8000874:	691a      	ldr	r2, [r3, #16]
 8000876:	687b      	ldr	r3, [r7, #4]
 8000878:	681b      	ldr	r3, [r3, #0]
 800087a:	430a      	orrs	r2, r1
 800087c:	609a      	str	r2, [r3, #8]
  /* makes sure the input data format (bytes, halfwords or words stream)
   * is properly specified by user */
  assert_param(IS_CRC_INPUTDATA_FORMAT(hcrc->InputDataFormat));

  /* Change CRC peripheral state */
  hcrc->State = HAL_CRC_STATE_READY;
 800087e:	687b      	ldr	r3, [r7, #4]
 8000880:	2201      	movs	r2, #1
 8000882:	755a      	strb	r2, [r3, #21]

  /* Return function status */
  return HAL_OK;
 8000884:	2300      	movs	r3, #0
}
 8000886:	0018      	movs	r0, r3
 8000888:	46bd      	mov	sp, r7
 800088a:	b002      	add	sp, #8
 800088c:	bd80      	pop	{r7, pc}
	...

08000890 <HAL_GPIO_Init>:
  * @param  GPIO_Init pointer to a GPIO_InitTypeDef structure that contains
  *         the configuration information for the specified GPIO peripheral.
  * @retval None
  */
void HAL_GPIO_Init(GPIO_TypeDef  *GPIOx, GPIO_InitTypeDef *GPIO_Init)
{ 
 8000890:	b580      	push	{r7, lr}
 8000892:	b086      	sub	sp, #24
 8000894:	af00      	add	r7, sp, #0
 8000896:	6078      	str	r0, [r7, #4]
 8000898:	6039      	str	r1, [r7, #0]
  uint32_t position = 0x00u;
 800089a:	2300      	movs	r3, #0
 800089c:	617b      	str	r3, [r7, #20]
  assert_param(IS_GPIO_PIN(GPIO_Init->Pin));
  assert_param(IS_GPIO_MODE(GPIO_Init->Mode));
  assert_param(IS_GPIO_PULL(GPIO_Init->Pull));

  /* Configure the port pins */
  while (((GPIO_Init->Pin) >> position) != 0x00u)
 800089e:	e149      	b.n	8000b34 <HAL_GPIO_Init+0x2a4>
  {
    /* Get current io position */
    iocurrent = (GPIO_Init->Pin) & (1uL << position);
 80008a0:	683b      	ldr	r3, [r7, #0]
 80008a2:	681b      	ldr	r3, [r3, #0]
 80008a4:	2101      	movs	r1, #1
 80008a6:	697a      	ldr	r2, [r7, #20]
 80008a8:	4091      	lsls	r1, r2
 80008aa:	000a      	movs	r2, r1
 80008ac:	4013      	ands	r3, r2
 80008ae:	60fb      	str	r3, [r7, #12]

    if (iocurrent != 0x00u)
 80008b0:	68fb      	ldr	r3, [r7, #12]
 80008b2:	2b00      	cmp	r3, #0
 80008b4:	d100      	bne.n	80008b8 <HAL_GPIO_Init+0x28>
 80008b6:	e13a      	b.n	8000b2e <HAL_GPIO_Init+0x29e>
    {
      /*--------------------- GPIO Mode Configuration ------------------------*/
      /* In case of Output or Alternate function mode selection */
      if((GPIO_Init->Mode == GPIO_MODE_OUTPUT_PP) || (GPIO_Init->Mode == GPIO_MODE_AF_PP) ||
 80008b8:	683b      	ldr	r3, [r7, #0]
 80008ba:	685b      	ldr	r3, [r3, #4]
 80008bc:	2b01      	cmp	r3, #1
 80008be:	d00b      	beq.n	80008d8 <HAL_GPIO_Init+0x48>
 80008c0:	683b      	ldr	r3, [r7, #0]
 80008c2:	685b      	ldr	r3, [r3, #4]
 80008c4:	2b02      	cmp	r3, #2
 80008c6:	d007      	beq.n	80008d8 <HAL_GPIO_Init+0x48>
         (GPIO_Init->Mode == GPIO_MODE_OUTPUT_OD) || (GPIO_Init->Mode == GPIO_MODE_AF_OD))
 80008c8:	683b      	ldr	r3, [r7, #0]
 80008ca:	685b      	ldr	r3, [r3, #4]
      if((GPIO_Init->Mode == GPIO_MODE_OUTPUT_PP) || (GPIO_Init->Mode == GPIO_MODE_AF_PP) ||
 80008cc:	2b11      	cmp	r3, #17
 80008ce:	d003      	beq.n	80008d8 <HAL_GPIO_Init+0x48>
         (GPIO_Init->Mode == GPIO_MODE_OUTPUT_OD) || (GPIO_Init->Mode == GPIO_MODE_AF_OD))
 80008d0:	683b      	ldr	r3, [r7, #0]
 80008d2:	685b      	ldr	r3, [r3, #4]
 80008d4:	2b12      	cmp	r3, #18
 80008d6:	d130      	bne.n	800093a <HAL_GPIO_Init+0xaa>
      {
        /* Check the Speed parameter */
        assert_param(IS_GPIO_SPEED(GPIO_Init->Speed));
        /* Configure the IO Speed */
        temp = GPIOx->OSPEEDR;
 80008d8:	687b      	ldr	r3, [r7, #4]
 80008da:	689b      	ldr	r3, [r3, #8]
 80008dc:	613b      	str	r3, [r7, #16]
        temp &= ~(GPIO_OSPEEDER_OSPEEDR0 << (position * 2u));
 80008de:	697b      	ldr	r3, [r7, #20]
 80008e0:	005b      	lsls	r3, r3, #1
 80008e2:	2203      	movs	r2, #3
 80008e4:	409a      	lsls	r2, r3
 80008e6:	0013      	movs	r3, r2
 80008e8:	43da      	mvns	r2, r3
 80008ea:	693b      	ldr	r3, [r7, #16]
 80008ec:	4013      	ands	r3, r2
 80008ee:	613b      	str	r3, [r7, #16]
        temp |= (GPIO_Init->Speed << (position * 2u));
 80008f0:	683b      	ldr	r3, [r7, #0]
 80008f2:	68da      	ldr	r2, [r3, #12]
 80008f4:	697b      	ldr	r3, [r7, #20]
 80008f6:	005b      	lsls	r3, r3, #1
 80008f8:	409a      	lsls	r2, r3
 80008fa:	0013      	movs	r3, r2
 80008fc:	693a      	ldr	r2, [r7, #16]
 80008fe:	4313      	orrs	r3, r2
 8000900:	613b      	str	r3, [r7, #16]
        GPIOx->OSPEEDR = temp;
 8000902:	687b      	ldr	r3, [r7, #4]
 8000904:	693a      	ldr	r2, [r7, #16]
 8000906:	609a      	str	r2, [r3, #8]

        /* Configure the IO Output Type */
        temp = GPIOx->OTYPER;
 8000908:	687b      	ldr	r3, [r7, #4]
 800090a:	685b      	ldr	r3, [r3, #4]
 800090c:	613b      	str	r3, [r7, #16]
        temp &= ~(GPIO_OTYPER_OT_0 << position) ;
 800090e:	2201      	movs	r2, #1
 8000910:	697b      	ldr	r3, [r7, #20]
 8000912:	409a      	lsls	r2, r3
 8000914:	0013      	movs	r3, r2
 8000916:	43da      	mvns	r2, r3
 8000918:	693b      	ldr	r3, [r7, #16]
 800091a:	4013      	ands	r3, r2
 800091c:	613b      	str	r3, [r7, #16]
        temp |= (((GPIO_Init->Mode & GPIO_OUTPUT_TYPE) >> 4u) << position);
 800091e:	683b      	ldr	r3, [r7, #0]
 8000920:	685b      	ldr	r3, [r3, #4]
 8000922:	091b      	lsrs	r3, r3, #4
 8000924:	2201      	movs	r2, #1
 8000926:	401a      	ands	r2, r3
 8000928:	697b      	ldr	r3, [r7, #20]
 800092a:	409a      	lsls	r2, r3
 800092c:	0013      	movs	r3, r2
 800092e:	693a      	ldr	r2, [r7, #16]
 8000930:	4313      	orrs	r3, r2
 8000932:	613b      	str	r3, [r7, #16]
        GPIOx->OTYPER = temp;
 8000934:	687b      	ldr	r3, [r7, #4]
 8000936:	693a      	ldr	r2, [r7, #16]
 8000938:	605a      	str	r2, [r3, #4]
      }

      /* Activate the Pull-up or Pull down resistor for the current IO */
      temp = GPIOx->PUPDR;
 800093a:	687b      	ldr	r3, [r7, #4]
 800093c:	68db      	ldr	r3, [r3, #12]
 800093e:	613b      	str	r3, [r7, #16]
      temp &= ~(GPIO_PUPDR_PUPDR0 << (position * 2u));
 8000940:	697b      	ldr	r3, [r7, #20]
 8000942:	005b      	lsls	r3, r3, #1
 8000944:	2203      	movs	r2, #3
 8000946:	409a      	lsls	r2, r3
 8000948:	0013      	movs	r3, r2
 800094a:	43da      	mvns	r2, r3
 800094c:	693b      	ldr	r3, [r7, #16]
 800094e:	4013      	ands	r3, r2
 8000950:	613b      	str	r3, [r7, #16]
      temp |= ((GPIO_Init->Pull) << (position * 2u));
 8000952:	683b      	ldr	r3, [r7, #0]
 8000954:	689a      	ldr	r2, [r3, #8]
 8000956:	697b      	ldr	r3, [r7, #20]
 8000958:	005b      	lsls	r3, r3, #1
 800095a:	409a      	lsls	r2, r3
 800095c:	0013      	movs	r3, r2
 800095e:	693a      	ldr	r2, [r7, #16]
 8000960:	4313      	orrs	r3, r2
 8000962:	613b      	str	r3, [r7, #16]
      GPIOx->PUPDR = temp;
 8000964:	687b      	ldr	r3, [r7, #4]
 8000966:	693a      	ldr	r2, [r7, #16]
 8000968:	60da      	str	r2, [r3, #12]

      /* In case of Alternate function mode selection */
      if((GPIO_Init->Mode == GPIO_MODE_AF_PP) || (GPIO_Init->Mode == GPIO_MODE_AF_OD))
 800096a:	683b      	ldr	r3, [r7, #0]
 800096c:	685b      	ldr	r3, [r3, #4]
 800096e:	2b02      	cmp	r3, #2
 8000970:	d003      	beq.n	800097a <HAL_GPIO_Init+0xea>
 8000972:	683b      	ldr	r3, [r7, #0]
 8000974:	685b      	ldr	r3, [r3, #4]
 8000976:	2b12      	cmp	r3, #18
 8000978:	d123      	bne.n	80009c2 <HAL_GPIO_Init+0x132>
        /* Check the Alternate function parameters */
        assert_param(IS_GPIO_AF_INSTANCE(GPIOx));
        assert_param(IS_GPIO_AF(GPIO_Init->Alternate));

        /* Configure Alternate function mapped with the current IO */
        temp = GPIOx->AFR[position >> 3u];
 800097a:	697b      	ldr	r3, [r7, #20]
 800097c:	08da      	lsrs	r2, r3, #3
 800097e:	687b      	ldr	r3, [r7, #4]
 8000980:	3208      	adds	r2, #8
 8000982:	0092      	lsls	r2, r2, #2
 8000984:	58d3      	ldr	r3, [r2, r3]
 8000986:	613b      	str	r3, [r7, #16]
        temp &= ~(0xFu << ((position & 0x07u) * 4u));
 8000988:	697b      	ldr	r3, [r7, #20]
 800098a:	2207      	movs	r2, #7
 800098c:	4013      	ands	r3, r2
 800098e:	009b      	lsls	r3, r3, #2
 8000990:	220f      	movs	r2, #15
 8000992:	409a      	lsls	r2, r3
 8000994:	0013      	movs	r3, r2
 8000996:	43da      	mvns	r2, r3
 8000998:	693b      	ldr	r3, [r7, #16]
 800099a:	4013      	ands	r3, r2
 800099c:	613b      	str	r3, [r7, #16]
        temp |= ((GPIO_Init->Alternate) << ((position & 0x07u) * 4u));
 800099e:	683b      	ldr	r3, [r7, #0]
 80009a0:	691a      	ldr	r2, [r3, #16]
 80009a2:	697b      	ldr	r3, [r7, #20]
 80009a4:	2107      	movs	r1, #7
 80009a6:	400b      	ands	r3, r1
 80009a8:	009b      	lsls	r3, r3, #2
 80009aa:	409a      	lsls	r2, r3
 80009ac:	0013      	movs	r3, r2
 80009ae:	693a      	ldr	r2, [r7, #16]
 80009b0:	4313      	orrs	r3, r2
 80009b2:	613b      	str	r3, [r7, #16]
        GPIOx->AFR[position >> 3u] = temp;
 80009b4:	697b      	ldr	r3, [r7, #20]
 80009b6:	08da      	lsrs	r2, r3, #3
 80009b8:	687b      	ldr	r3, [r7, #4]
 80009ba:	3208      	adds	r2, #8
 80009bc:	0092      	lsls	r2, r2, #2
 80009be:	6939      	ldr	r1, [r7, #16]
 80009c0:	50d1      	str	r1, [r2, r3]
      }

      /* Configure IO Direction mode (Input, Output, Alternate or Analog) */
      temp = GPIOx->MODER;
 80009c2:	687b      	ldr	r3, [r7, #4]
 80009c4:	681b      	ldr	r3, [r3, #0]
 80009c6:	613b      	str	r3, [r7, #16]
      temp &= ~(GPIO_MODER_MODER0 << (position * 2u));
 80009c8:	697b      	ldr	r3, [r7, #20]
 80009ca:	005b      	lsls	r3, r3, #1
 80009cc:	2203      	movs	r2, #3
 80009ce:	409a      	lsls	r2, r3
 80009d0:	0013      	movs	r3, r2
 80009d2:	43da      	mvns	r2, r3
 80009d4:	693b      	ldr	r3, [r7, #16]
 80009d6:	4013      	ands	r3, r2
 80009d8:	613b      	str	r3, [r7, #16]
      temp |= ((GPIO_Init->Mode & GPIO_MODE) << (position * 2u));
 80009da:	683b      	ldr	r3, [r7, #0]
 80009dc:	685b      	ldr	r3, [r3, #4]
 80009de:	2203      	movs	r2, #3
 80009e0:	401a      	ands	r2, r3
 80009e2:	697b      	ldr	r3, [r7, #20]
 80009e4:	005b      	lsls	r3, r3, #1
 80009e6:	409a      	lsls	r2, r3
 80009e8:	0013      	movs	r3, r2
 80009ea:	693a      	ldr	r2, [r7, #16]
 80009ec:	4313      	orrs	r3, r2
 80009ee:	613b      	str	r3, [r7, #16]
      GPIOx->MODER = temp;
 80009f0:	687b      	ldr	r3, [r7, #4]
 80009f2:	693a      	ldr	r2, [r7, #16]
 80009f4:	601a      	str	r2, [r3, #0]

      /*--------------------- EXTI Mode Configuration ------------------------*/
      /* Configure the External Interrupt or event for the current IO */
      if((GPIO_Init->Mode & EXTI_MODE) == EXTI_MODE)
 80009f6:	683b      	ldr	r3, [r7, #0]
 80009f8:	685a      	ldr	r2, [r3, #4]
 80009fa:	2380      	movs	r3, #128	; 0x80
 80009fc:	055b      	lsls	r3, r3, #21
 80009fe:	4013      	ands	r3, r2
 8000a00:	d100      	bne.n	8000a04 <HAL_GPIO_Init+0x174>
 8000a02:	e094      	b.n	8000b2e <HAL_GPIO_Init+0x29e>
      {
        /* Enable SYSCFG Clock */
        __HAL_RCC_SYSCFG_CLK_ENABLE();
 8000a04:	4b51      	ldr	r3, [pc, #324]	; (8000b4c <HAL_GPIO_Init+0x2bc>)
 8000a06:	699a      	ldr	r2, [r3, #24]
 8000a08:	4b50      	ldr	r3, [pc, #320]	; (8000b4c <HAL_GPIO_Init+0x2bc>)
 8000a0a:	2101      	movs	r1, #1
 8000a0c:	430a      	orrs	r2, r1
 8000a0e:	619a      	str	r2, [r3, #24]
 8000a10:	4b4e      	ldr	r3, [pc, #312]	; (8000b4c <HAL_GPIO_Init+0x2bc>)
 8000a12:	699b      	ldr	r3, [r3, #24]
 8000a14:	2201      	movs	r2, #1
 8000a16:	4013      	ands	r3, r2
 8000a18:	60bb      	str	r3, [r7, #8]
 8000a1a:	68bb      	ldr	r3, [r7, #8]

        temp = SYSCFG->EXTICR[position >> 2u];
 8000a1c:	4a4c      	ldr	r2, [pc, #304]	; (8000b50 <HAL_GPIO_Init+0x2c0>)
 8000a1e:	697b      	ldr	r3, [r7, #20]
 8000a20:	089b      	lsrs	r3, r3, #2
 8000a22:	3302      	adds	r3, #2
 8000a24:	009b      	lsls	r3, r3, #2
 8000a26:	589b      	ldr	r3, [r3, r2]
 8000a28:	613b      	str	r3, [r7, #16]
        temp &= ~(0x0FuL << (4u * (position & 0x03u)));
 8000a2a:	697b      	ldr	r3, [r7, #20]
 8000a2c:	2203      	movs	r2, #3
 8000a2e:	4013      	ands	r3, r2
 8000a30:	009b      	lsls	r3, r3, #2
 8000a32:	220f      	movs	r2, #15
 8000a34:	409a      	lsls	r2, r3
 8000a36:	0013      	movs	r3, r2
 8000a38:	43da      	mvns	r2, r3
 8000a3a:	693b      	ldr	r3, [r7, #16]
 8000a3c:	4013      	ands	r3, r2
 8000a3e:	613b      	str	r3, [r7, #16]
        temp |= (GPIO_GET_INDEX(GPIOx) << (4u * (position & 0x03u)));
 8000a40:	687a      	ldr	r2, [r7, #4]
 8000a42:	2390      	movs	r3, #144	; 0x90
 8000a44:	05db      	lsls	r3, r3, #23
 8000a46:	429a      	cmp	r2, r3
 8000a48:	d00d      	beq.n	8000a66 <HAL_GPIO_Init+0x1d6>
 8000a4a:	687b      	ldr	r3, [r7, #4]
 8000a4c:	4a41      	ldr	r2, [pc, #260]	; (8000b54 <HAL_GPIO_Init+0x2c4>)
 8000a4e:	4293      	cmp	r3, r2
 8000a50:	d007      	beq.n	8000a62 <HAL_GPIO_Init+0x1d2>
 8000a52:	687b      	ldr	r3, [r7, #4]
 8000a54:	4a40      	ldr	r2, [pc, #256]	; (8000b58 <HAL_GPIO_Init+0x2c8>)
 8000a56:	4293      	cmp	r3, r2
 8000a58:	d101      	bne.n	8000a5e <HAL_GPIO_Init+0x1ce>
 8000a5a:	2302      	movs	r3, #2
 8000a5c:	e004      	b.n	8000a68 <HAL_GPIO_Init+0x1d8>
 8000a5e:	2305      	movs	r3, #5
 8000a60:	e002      	b.n	8000a68 <HAL_GPIO_Init+0x1d8>
 8000a62:	2301      	movs	r3, #1
 8000a64:	e000      	b.n	8000a68 <HAL_GPIO_Init+0x1d8>
 8000a66:	2300      	movs	r3, #0
 8000a68:	697a      	ldr	r2, [r7, #20]
 8000a6a:	2103      	movs	r1, #3
 8000a6c:	400a      	ands	r2, r1
 8000a6e:	0092      	lsls	r2, r2, #2
 8000a70:	4093      	lsls	r3, r2
 8000a72:	693a      	ldr	r2, [r7, #16]
 8000a74:	4313      	orrs	r3, r2
 8000a76:	613b      	str	r3, [r7, #16]
        SYSCFG->EXTICR[position >> 2u] = temp;
 8000a78:	4935      	ldr	r1, [pc, #212]	; (8000b50 <HAL_GPIO_Init+0x2c0>)
 8000a7a:	697b      	ldr	r3, [r7, #20]
 8000a7c:	089b      	lsrs	r3, r3, #2
 8000a7e:	3302      	adds	r3, #2
 8000a80:	009b      	lsls	r3, r3, #2
 8000a82:	693a      	ldr	r2, [r7, #16]
 8000a84:	505a      	str	r2, [r3, r1]

        /* Clear EXTI line configuration */
        temp = EXTI->IMR;
 8000a86:	4b35      	ldr	r3, [pc, #212]	; (8000b5c <HAL_GPIO_Init+0x2cc>)
 8000a88:	681b      	ldr	r3, [r3, #0]
 8000a8a:	613b      	str	r3, [r7, #16]
        temp &= ~(iocurrent);
 8000a8c:	68fb      	ldr	r3, [r7, #12]
 8000a8e:	43da      	mvns	r2, r3
 8000a90:	693b      	ldr	r3, [r7, #16]
 8000a92:	4013      	ands	r3, r2
 8000a94:	613b      	str	r3, [r7, #16]
        if((GPIO_Init->Mode & GPIO_MODE_IT) == GPIO_MODE_IT)
 8000a96:	683b      	ldr	r3, [r7, #0]
 8000a98:	685a      	ldr	r2, [r3, #4]
 8000a9a:	2380      	movs	r3, #128	; 0x80
 8000a9c:	025b      	lsls	r3, r3, #9
 8000a9e:	4013      	ands	r3, r2
 8000aa0:	d003      	beq.n	8000aaa <HAL_GPIO_Init+0x21a>
        {
          temp |= iocurrent;
 8000aa2:	693a      	ldr	r2, [r7, #16]
 8000aa4:	68fb      	ldr	r3, [r7, #12]
 8000aa6:	4313      	orrs	r3, r2
 8000aa8:	613b      	str	r3, [r7, #16]
        }
        EXTI->IMR = temp;
 8000aaa:	4b2c      	ldr	r3, [pc, #176]	; (8000b5c <HAL_GPIO_Init+0x2cc>)
 8000aac:	693a      	ldr	r2, [r7, #16]
 8000aae:	601a      	str	r2, [r3, #0]

        temp = EXTI->EMR;
 8000ab0:	4b2a      	ldr	r3, [pc, #168]	; (8000b5c <HAL_GPIO_Init+0x2cc>)
 8000ab2:	685b      	ldr	r3, [r3, #4]
 8000ab4:	613b      	str	r3, [r7, #16]
        temp &= ~(iocurrent);
 8000ab6:	68fb      	ldr	r3, [r7, #12]
 8000ab8:	43da      	mvns	r2, r3
 8000aba:	693b      	ldr	r3, [r7, #16]
 8000abc:	4013      	ands	r3, r2
 8000abe:	613b      	str	r3, [r7, #16]
        if((GPIO_Init->Mode & GPIO_MODE_EVT) == GPIO_MODE_EVT)
 8000ac0:	683b      	ldr	r3, [r7, #0]
 8000ac2:	685a      	ldr	r2, [r3, #4]
 8000ac4:	2380      	movs	r3, #128	; 0x80
 8000ac6:	029b      	lsls	r3, r3, #10
 8000ac8:	4013      	ands	r3, r2
 8000aca:	d003      	beq.n	8000ad4 <HAL_GPIO_Init+0x244>
        {
          temp |= iocurrent;
 8000acc:	693a      	ldr	r2, [r7, #16]
 8000ace:	68fb      	ldr	r3, [r7, #12]
 8000ad0:	4313      	orrs	r3, r2
 8000ad2:	613b      	str	r3, [r7, #16]
        }
        EXTI->EMR = temp;
 8000ad4:	4b21      	ldr	r3, [pc, #132]	; (8000b5c <HAL_GPIO_Init+0x2cc>)
 8000ad6:	693a      	ldr	r2, [r7, #16]
 8000ad8:	605a      	str	r2, [r3, #4]

        /* Clear Rising Falling edge configuration */
        temp = EXTI->RTSR;
 8000ada:	4b20      	ldr	r3, [pc, #128]	; (8000b5c <HAL_GPIO_Init+0x2cc>)
 8000adc:	689b      	ldr	r3, [r3, #8]
 8000ade:	613b      	str	r3, [r7, #16]
        temp &= ~(iocurrent);
 8000ae0:	68fb      	ldr	r3, [r7, #12]
 8000ae2:	43da      	mvns	r2, r3
 8000ae4:	693b      	ldr	r3, [r7, #16]
 8000ae6:	4013      	ands	r3, r2
 8000ae8:	613b      	str	r3, [r7, #16]
        if((GPIO_Init->Mode & RISING_EDGE) == RISING_EDGE)
 8000aea:	683b      	ldr	r3, [r7, #0]
 8000aec:	685a      	ldr	r2, [r3, #4]
 8000aee:	2380      	movs	r3, #128	; 0x80
 8000af0:	035b      	lsls	r3, r3, #13
 8000af2:	4013      	ands	r3, r2
 8000af4:	d003      	beq.n	8000afe <HAL_GPIO_Init+0x26e>
        {
          temp |= iocurrent;
 8000af6:	693a      	ldr	r2, [r7, #16]
 8000af8:	68fb      	ldr	r3, [r7, #12]
 8000afa:	4313      	orrs	r3, r2
 8000afc:	613b      	str	r3, [r7, #16]
        }
        EXTI->RTSR = temp;
 8000afe:	4b17      	ldr	r3, [pc, #92]	; (8000b5c <HAL_GPIO_Init+0x2cc>)
 8000b00:	693a      	ldr	r2, [r7, #16]
 8000b02:	609a      	str	r2, [r3, #8]

        temp = EXTI->FTSR;
 8000b04:	4b15      	ldr	r3, [pc, #84]	; (8000b5c <HAL_GPIO_Init+0x2cc>)
 8000b06:	68db      	ldr	r3, [r3, #12]
 8000b08:	613b      	str	r3, [r7, #16]
        temp &= ~(iocurrent);
 8000b0a:	68fb      	ldr	r3, [r7, #12]
 8000b0c:	43da      	mvns	r2, r3
 8000b0e:	693b      	ldr	r3, [r7, #16]
 8000b10:	4013      	ands	r3, r2
 8000b12:	613b      	str	r3, [r7, #16]
        if((GPIO_Init->Mode & FALLING_EDGE) == FALLING_EDGE)
 8000b14:	683b      	ldr	r3, [r7, #0]
 8000b16:	685a      	ldr	r2, [r3, #4]
 8000b18:	2380      	movs	r3, #128	; 0x80
 8000b1a:	039b      	lsls	r3, r3, #14
 8000b1c:	4013      	ands	r3, r2
 8000b1e:	d003      	beq.n	8000b28 <HAL_GPIO_Init+0x298>
        {
          temp |= iocurrent;
 8000b20:	693a      	ldr	r2, [r7, #16]
 8000b22:	68fb      	ldr	r3, [r7, #12]
 8000b24:	4313      	orrs	r3, r2
 8000b26:	613b      	str	r3, [r7, #16]
        }
        EXTI->FTSR = temp;
 8000b28:	4b0c      	ldr	r3, [pc, #48]	; (8000b5c <HAL_GPIO_Init+0x2cc>)
 8000b2a:	693a      	ldr	r2, [r7, #16]
 8000b2c:	60da      	str	r2, [r3, #12]
      }
    }

    position++;
 8000b2e:	697b      	ldr	r3, [r7, #20]
 8000b30:	3301      	adds	r3, #1
 8000b32:	617b      	str	r3, [r7, #20]
  while (((GPIO_Init->Pin) >> position) != 0x00u)
 8000b34:	683b      	ldr	r3, [r7, #0]
 8000b36:	681a      	ldr	r2, [r3, #0]
 8000b38:	697b      	ldr	r3, [r7, #20]
 8000b3a:	40da      	lsrs	r2, r3
 8000b3c:	1e13      	subs	r3, r2, #0
 8000b3e:	d000      	beq.n	8000b42 <HAL_GPIO_Init+0x2b2>
 8000b40:	e6ae      	b.n	80008a0 <HAL_GPIO_Init+0x10>
  } 
}
 8000b42:	46c0      	nop			; (mov r8, r8)
 8000b44:	46bd      	mov	sp, r7
 8000b46:	b006      	add	sp, #24
 8000b48:	bd80      	pop	{r7, pc}
 8000b4a:	46c0      	nop			; (mov r8, r8)
 8000b4c:	40021000 	.word	0x40021000
 8000b50:	40010000 	.word	0x40010000
 8000b54:	48000400 	.word	0x48000400
 8000b58:	48000800 	.word	0x48000800
 8000b5c:	40010400 	.word	0x40010400

08000b60 <HAL_RCC_GetSysClockFreq>:
  *         right SYSCLK value. Otherwise, any configuration based on this function will be incorrect.
  *         
  * @retval SYSCLK frequency
  */
uint32_t HAL_RCC_GetSysClockFreq(void)
{
 8000b60:	b590      	push	{r4, r7, lr}
 8000b62:	b08f      	sub	sp, #60	; 0x3c
 8000b64:	af00      	add	r7, sp, #0
  const uint8_t aPLLMULFactorTable[16] = { 2U,  3U,  4U,  5U,  6U,  7U,  8U,  9U,
 8000b66:	2314      	movs	r3, #20
 8000b68:	18fb      	adds	r3, r7, r3
 8000b6a:	4a37      	ldr	r2, [pc, #220]	; (8000c48 <HAL_RCC_GetSysClockFreq+0xe8>)
 8000b6c:	ca13      	ldmia	r2!, {r0, r1, r4}
 8000b6e:	c313      	stmia	r3!, {r0, r1, r4}
 8000b70:	6812      	ldr	r2, [r2, #0]
 8000b72:	601a      	str	r2, [r3, #0]
                                         10U, 11U, 12U, 13U, 14U, 15U, 16U, 16U};
  const uint8_t aPredivFactorTable[16] = { 1U, 2U,  3U,  4U,  5U,  6U,  7U,  8U,
 8000b74:	1d3b      	adds	r3, r7, #4
 8000b76:	4a35      	ldr	r2, [pc, #212]	; (8000c4c <HAL_RCC_GetSysClockFreq+0xec>)
 8000b78:	ca13      	ldmia	r2!, {r0, r1, r4}
 8000b7a:	c313      	stmia	r3!, {r0, r1, r4}
 8000b7c:	6812      	ldr	r2, [r2, #0]
 8000b7e:	601a      	str	r2, [r3, #0]
                                           9U,10U, 11U, 12U, 13U, 14U, 15U, 16U};

  uint32_t tmpreg = 0U, prediv = 0U, pllclk = 0U, pllmul = 0U;
 8000b80:	2300      	movs	r3, #0
 8000b82:	62fb      	str	r3, [r7, #44]	; 0x2c
 8000b84:	2300      	movs	r3, #0
 8000b86:	62bb      	str	r3, [r7, #40]	; 0x28
 8000b88:	2300      	movs	r3, #0
 8000b8a:	637b      	str	r3, [r7, #52]	; 0x34
 8000b8c:	2300      	movs	r3, #0
 8000b8e:	627b      	str	r3, [r7, #36]	; 0x24
  uint32_t sysclockfreq = 0U;
 8000b90:	2300      	movs	r3, #0
 8000b92:	633b      	str	r3, [r7, #48]	; 0x30
  
  tmpreg = RCC->CFGR;
 8000b94:	4b2e      	ldr	r3, [pc, #184]	; (8000c50 <HAL_RCC_GetSysClockFreq+0xf0>)
 8000b96:	685b      	ldr	r3, [r3, #4]
 8000b98:	62fb      	str	r3, [r7, #44]	; 0x2c
  
  /* Get SYSCLK source -------------------------------------------------------*/
  switch (tmpreg & RCC_CFGR_SWS)
 8000b9a:	6afb      	ldr	r3, [r7, #44]	; 0x2c
 8000b9c:	220c      	movs	r2, #12
 8000b9e:	4013      	ands	r3, r2
 8000ba0:	2b08      	cmp	r3, #8
 8000ba2:	d006      	beq.n	8000bb2 <HAL_RCC_GetSysClockFreq+0x52>
 8000ba4:	2b0c      	cmp	r3, #12
 8000ba6:	d043      	beq.n	8000c30 <HAL_RCC_GetSysClockFreq+0xd0>
 8000ba8:	2b04      	cmp	r3, #4
 8000baa:	d144      	bne.n	8000c36 <HAL_RCC_GetSysClockFreq+0xd6>
  {
    case RCC_SYSCLKSOURCE_STATUS_HSE:  /* HSE used as system clock */
    {
      sysclockfreq = HSE_VALUE;
 8000bac:	4b29      	ldr	r3, [pc, #164]	; (8000c54 <HAL_RCC_GetSysClockFreq+0xf4>)
 8000bae:	633b      	str	r3, [r7, #48]	; 0x30
      break;
 8000bb0:	e044      	b.n	8000c3c <HAL_RCC_GetSysClockFreq+0xdc>
    }
    case RCC_SYSCLKSOURCE_STATUS_PLLCLK:  /* PLL used as system clock */
    {
      pllmul = aPLLMULFactorTable[(uint32_t)(tmpreg & RCC_CFGR_PLLMUL) >> RCC_CFGR_PLLMUL_BITNUMBER];
 8000bb2:	6afb      	ldr	r3, [r7, #44]	; 0x2c
 8000bb4:	0c9b      	lsrs	r3, r3, #18
 8000bb6:	220f      	movs	r2, #15
 8000bb8:	4013      	ands	r3, r2
 8000bba:	2214      	movs	r2, #20
 8000bbc:	18ba      	adds	r2, r7, r2
 8000bbe:	5cd3      	ldrb	r3, [r2, r3]
 8000bc0:	627b      	str	r3, [r7, #36]	; 0x24
      prediv = aPredivFactorTable[(uint32_t)(RCC->CFGR2 & RCC_CFGR2_PREDIV) >> RCC_CFGR2_PREDIV_BITNUMBER];
 8000bc2:	4b23      	ldr	r3, [pc, #140]	; (8000c50 <HAL_RCC_GetSysClockFreq+0xf0>)
 8000bc4:	6adb      	ldr	r3, [r3, #44]	; 0x2c
 8000bc6:	220f      	movs	r2, #15
 8000bc8:	4013      	ands	r3, r2
 8000bca:	1d3a      	adds	r2, r7, #4
 8000bcc:	5cd3      	ldrb	r3, [r2, r3]
 8000bce:	62bb      	str	r3, [r7, #40]	; 0x28
      if ((tmpreg & RCC_CFGR_PLLSRC) == RCC_PLLSOURCE_HSE)
 8000bd0:	6afa      	ldr	r2, [r7, #44]	; 0x2c
 8000bd2:	23c0      	movs	r3, #192	; 0xc0
 8000bd4:	025b      	lsls	r3, r3, #9
 8000bd6:	401a      	ands	r2, r3
 8000bd8:	2380      	movs	r3, #128	; 0x80
 8000bda:	025b      	lsls	r3, r3, #9
 8000bdc:	429a      	cmp	r2, r3
 8000bde:	d109      	bne.n	8000bf4 <HAL_RCC_GetSysClockFreq+0x94>
      {
        /* HSE used as PLL clock source : PLLCLK = HSE/PREDIV * PLLMUL */
        pllclk = (uint32_t)((uint64_t) HSE_VALUE / (uint64_t) (prediv)) * ((uint64_t) pllmul);
 8000be0:	6ab9      	ldr	r1, [r7, #40]	; 0x28
 8000be2:	481c      	ldr	r0, [pc, #112]	; (8000c54 <HAL_RCC_GetSysClockFreq+0xf4>)
 8000be4:	f7ff fa90 	bl	8000108 <__udivsi3>
 8000be8:	0003      	movs	r3, r0
 8000bea:	001a      	movs	r2, r3
 8000bec:	6a7b      	ldr	r3, [r7, #36]	; 0x24
 8000bee:	4353      	muls	r3, r2
 8000bf0:	637b      	str	r3, [r7, #52]	; 0x34
 8000bf2:	e01a      	b.n	8000c2a <HAL_RCC_GetSysClockFreq+0xca>
      }
#if defined(RCC_CFGR_PLLSRC_HSI48_PREDIV)
      else if ((tmpreg & RCC_CFGR_PLLSRC) == RCC_PLLSOURCE_HSI48)
 8000bf4:	6afa      	ldr	r2, [r7, #44]	; 0x2c
 8000bf6:	23c0      	movs	r3, #192	; 0xc0
 8000bf8:	025b      	lsls	r3, r3, #9
 8000bfa:	401a      	ands	r2, r3
 8000bfc:	23c0      	movs	r3, #192	; 0xc0
 8000bfe:	025b      	lsls	r3, r3, #9
 8000c00:	429a      	cmp	r2, r3
 8000c02:	d109      	bne.n	8000c18 <HAL_RCC_GetSysClockFreq+0xb8>
      {
        /* HSI48 used as PLL clock source : PLLCLK = HSI48/PREDIV * PLLMUL */
        pllclk = (uint32_t)((uint64_t) HSI48_VALUE / (uint64_t) (prediv)) * ((uint64_t) pllmul);
 8000c04:	6ab9      	ldr	r1, [r7, #40]	; 0x28
 8000c06:	4814      	ldr	r0, [pc, #80]	; (8000c58 <HAL_RCC_GetSysClockFreq+0xf8>)
 8000c08:	f7ff fa7e 	bl	8000108 <__udivsi3>
 8000c0c:	0003      	movs	r3, r0
 8000c0e:	001a      	movs	r2, r3
 8000c10:	6a7b      	ldr	r3, [r7, #36]	; 0x24
 8000c12:	4353      	muls	r3, r2
 8000c14:	637b      	str	r3, [r7, #52]	; 0x34
 8000c16:	e008      	b.n	8000c2a <HAL_RCC_GetSysClockFreq+0xca>
#endif /* RCC_CFGR_PLLSRC_HSI48_PREDIV */
      else
      {
#if  (defined(STM32F042x6) || defined(STM32F048xx) || defined(STM32F070x6) || defined(STM32F071xB) || defined(STM32F072xB) || defined(STM32F078xx) || defined(STM32F070xB) || defined(STM32F091xC) || defined(STM32F098xx) || defined(STM32F030xC))
        /* HSI used as PLL clock source : PLLCLK = HSI/PREDIV * PLLMUL */
        pllclk = (uint32_t)((uint64_t) HSI_VALUE / (uint64_t) (prediv)) * ((uint64_t) pllmul);
 8000c18:	6ab9      	ldr	r1, [r7, #40]	; 0x28
 8000c1a:	480e      	ldr	r0, [pc, #56]	; (8000c54 <HAL_RCC_GetSysClockFreq+0xf4>)
 8000c1c:	f7ff fa74 	bl	8000108 <__udivsi3>
 8000c20:	0003      	movs	r3, r0
 8000c22:	001a      	movs	r2, r3
 8000c24:	6a7b      	ldr	r3, [r7, #36]	; 0x24
 8000c26:	4353      	muls	r3, r2
 8000c28:	637b      	str	r3, [r7, #52]	; 0x34
#else
        /* HSI used as PLL clock source : PLLCLK = HSI/2 * PLLMUL */
        pllclk = (uint32_t)((uint64_t) (HSI_VALUE >> 1U) * ((uint64_t) pllmul));
#endif
      }
      sysclockfreq = pllclk;
 8000c2a:	6b7b      	ldr	r3, [r7, #52]	; 0x34
 8000c2c:	633b      	str	r3, [r7, #48]	; 0x30
      break;
 8000c2e:	e005      	b.n	8000c3c <HAL_RCC_GetSysClockFreq+0xdc>
    }
#if defined(RCC_CFGR_SWS_HSI48)
    case RCC_SYSCLKSOURCE_STATUS_HSI48:    /* HSI48 used as system clock source */
    {
      sysclockfreq = HSI48_VALUE;
 8000c30:	4b09      	ldr	r3, [pc, #36]	; (8000c58 <HAL_RCC_GetSysClockFreq+0xf8>)
 8000c32:	633b      	str	r3, [r7, #48]	; 0x30
      break;
 8000c34:	e002      	b.n	8000c3c <HAL_RCC_GetSysClockFreq+0xdc>
    }
#endif /* RCC_CFGR_SWS_HSI48 */
    case RCC_SYSCLKSOURCE_STATUS_HSI:  /* HSI used as system clock source */
    default: /* HSI used as system clock */
    {
      sysclockfreq = HSI_VALUE;
 8000c36:	4b07      	ldr	r3, [pc, #28]	; (8000c54 <HAL_RCC_GetSysClockFreq+0xf4>)
 8000c38:	633b      	str	r3, [r7, #48]	; 0x30
      break;
 8000c3a:	46c0      	nop			; (mov r8, r8)
    }
  }
  return sysclockfreq;
 8000c3c:	6b3b      	ldr	r3, [r7, #48]	; 0x30
}
 8000c3e:	0018      	movs	r0, r3
 8000c40:	46bd      	mov	sp, r7
 8000c42:	b00f      	add	sp, #60	; 0x3c
 8000c44:	bd90      	pop	{r4, r7, pc}
 8000c46:	46c0      	nop			; (mov r8, r8)
 8000c48:	08006d08 	.word	0x08006d08
 8000c4c:	08006d18 	.word	0x08006d18
 8000c50:	40021000 	.word	0x40021000
 8000c54:	007a1200 	.word	0x007a1200
 8000c58:	02dc6c00 	.word	0x02dc6c00

08000c5c <HAL_RCC_GetHCLKFreq>:
  * @note   The SystemCoreClock CMSIS variable is used to store System Clock Frequency 
  *         and updated within this function
  * @retval HCLK frequency
  */
uint32_t HAL_RCC_GetHCLKFreq(void)
{
 8000c5c:	b580      	push	{r7, lr}
 8000c5e:	af00      	add	r7, sp, #0
  return SystemCoreClock;
 8000c60:	4b02      	ldr	r3, [pc, #8]	; (8000c6c <HAL_RCC_GetHCLKFreq+0x10>)
 8000c62:	681b      	ldr	r3, [r3, #0]
}
 8000c64:	0018      	movs	r0, r3
 8000c66:	46bd      	mov	sp, r7
 8000c68:	bd80      	pop	{r7, pc}
 8000c6a:	46c0      	nop			; (mov r8, r8)
 8000c6c:	20000030 	.word	0x20000030

08000c70 <HAL_RCC_GetPCLK1Freq>:
  * @note   Each time PCLK1 changes, this function must be called to update the
  *         right PCLK1 value. Otherwise, any configuration based on this function will be incorrect.
  * @retval PCLK1 frequency
  */
uint32_t HAL_RCC_GetPCLK1Freq(void)
{
 8000c70:	b580      	push	{r7, lr}
 8000c72:	af00      	add	r7, sp, #0
  /* Get HCLK source and Compute PCLK1 frequency ---------------------------*/
  return (HAL_RCC_GetHCLKFreq() >> APBPrescTable[(RCC->CFGR & RCC_CFGR_PPRE) >> RCC_CFGR_PPRE_BITNUMBER]);
 8000c74:	f7ff fff2 	bl	8000c5c <HAL_RCC_GetHCLKFreq>
 8000c78:	0001      	movs	r1, r0
 8000c7a:	4b06      	ldr	r3, [pc, #24]	; (8000c94 <HAL_RCC_GetPCLK1Freq+0x24>)
 8000c7c:	685b      	ldr	r3, [r3, #4]
 8000c7e:	0a1b      	lsrs	r3, r3, #8
 8000c80:	2207      	movs	r2, #7
 8000c82:	4013      	ands	r3, r2
 8000c84:	4a04      	ldr	r2, [pc, #16]	; (8000c98 <HAL_RCC_GetPCLK1Freq+0x28>)
 8000c86:	5cd3      	ldrb	r3, [r2, r3]
 8000c88:	40d9      	lsrs	r1, r3
 8000c8a:	000b      	movs	r3, r1
}    
 8000c8c:	0018      	movs	r0, r3
 8000c8e:	46bd      	mov	sp, r7
 8000c90:	bd80      	pop	{r7, pc}
 8000c92:	46c0      	nop			; (mov r8, r8)
 8000c94:	40021000 	.word	0x40021000
 8000c98:	08007024 	.word	0x08007024

08000c9c <HAL_UART_Init>:
  *        parameters in the UART_InitTypeDef and initialize the associated handle.
  * @param huart UART handle.
  * @retval HAL status
  */
HAL_StatusTypeDef HAL_UART_Init(UART_HandleTypeDef *huart)
{
 8000c9c:	b580      	push	{r7, lr}
 8000c9e:	b082      	sub	sp, #8
 8000ca0:	af00      	add	r7, sp, #0
 8000ca2:	6078      	str	r0, [r7, #4]
  /* Check the UART handle allocation */
  if (huart == NULL)
 8000ca4:	687b      	ldr	r3, [r7, #4]
 8000ca6:	2b00      	cmp	r3, #0
 8000ca8:	d101      	bne.n	8000cae <HAL_UART_Init+0x12>
  {
    return HAL_ERROR;
 8000caa:	2301      	movs	r3, #1
 8000cac:	e044      	b.n	8000d38 <HAL_UART_Init+0x9c>
  {
    /* Check the parameters */
    assert_param(IS_UART_INSTANCE(huart->Instance));
  }

  if (huart->gState == HAL_UART_STATE_RESET)
 8000cae:	687b      	ldr	r3, [r7, #4]
 8000cb0:	6f5b      	ldr	r3, [r3, #116]	; 0x74
 8000cb2:	2b00      	cmp	r3, #0
 8000cb4:	d107      	bne.n	8000cc6 <HAL_UART_Init+0x2a>
  {
    /* Allocate lock resource and initialize it */
    huart->Lock = HAL_UNLOCKED;
 8000cb6:	687b      	ldr	r3, [r7, #4]
 8000cb8:	2270      	movs	r2, #112	; 0x70
 8000cba:	2100      	movs	r1, #0
 8000cbc:	5499      	strb	r1, [r3, r2]

    /* Init the low level hardware */
    huart->MspInitCallback(huart);
#else
    /* Init the low level hardware : GPIO, CLOCK */
    HAL_UART_MspInit(huart);
 8000cbe:	687b      	ldr	r3, [r7, #4]
 8000cc0:	0018      	movs	r0, r3
 8000cc2:	f7ff fbd7 	bl	8000474 <HAL_UART_MspInit>
#endif /* (USE_HAL_UART_REGISTER_CALLBACKS) */
  }

  huart->gState = HAL_UART_STATE_BUSY;
 8000cc6:	687b      	ldr	r3, [r7, #4]
 8000cc8:	2224      	movs	r2, #36	; 0x24
 8000cca:	675a      	str	r2, [r3, #116]	; 0x74

  __HAL_UART_DISABLE(huart);
 8000ccc:	687b      	ldr	r3, [r7, #4]
 8000cce:	681b      	ldr	r3, [r3, #0]
 8000cd0:	681a      	ldr	r2, [r3, #0]
 8000cd2:	687b      	ldr	r3, [r7, #4]
 8000cd4:	681b      	ldr	r3, [r3, #0]
 8000cd6:	2101      	movs	r1, #1
 8000cd8:	438a      	bics	r2, r1
 8000cda:	601a      	str	r2, [r3, #0]

  /* Set the UART Communication parameters */
  if (UART_SetConfig(huart) == HAL_ERROR)
 8000cdc:	687b      	ldr	r3, [r7, #4]
 8000cde:	0018      	movs	r0, r3
 8000ce0:	f000 f830 	bl	8000d44 <UART_SetConfig>
 8000ce4:	0003      	movs	r3, r0
 8000ce6:	2b01      	cmp	r3, #1
 8000ce8:	d101      	bne.n	8000cee <HAL_UART_Init+0x52>
  {
    return HAL_ERROR;
 8000cea:	2301      	movs	r3, #1
 8000cec:	e024      	b.n	8000d38 <HAL_UART_Init+0x9c>
  }

  if (huart->AdvancedInit.AdvFeatureInit != UART_ADVFEATURE_NO_INIT)
 8000cee:	687b      	ldr	r3, [r7, #4]
 8000cf0:	6a5b      	ldr	r3, [r3, #36]	; 0x24
 8000cf2:	2b00      	cmp	r3, #0
 8000cf4:	d003      	beq.n	8000cfe <HAL_UART_Init+0x62>
  {
    UART_AdvFeatureConfig(huart);
 8000cf6:	687b      	ldr	r3, [r7, #4]
 8000cf8:	0018      	movs	r0, r3
 8000cfa:	f000 f9a9 	bl	8001050 <UART_AdvFeatureConfig>

  /* In asynchronous mode, the following bits must be kept cleared:
  - LINEN (if LIN is supported) and CLKEN bits in the USART_CR2 register,
  - SCEN (if Smartcard is supported), HDSEL and IREN (if IrDA is supported)  bits in the USART_CR3 register.*/
#if defined (USART_CR2_LINEN)
  CLEAR_BIT(huart->Instance->CR2, (USART_CR2_LINEN | USART_CR2_CLKEN));
 8000cfe:	687b      	ldr	r3, [r7, #4]
 8000d00:	681b      	ldr	r3, [r3, #0]
 8000d02:	685a      	ldr	r2, [r3, #4]
 8000d04:	687b      	ldr	r3, [r7, #4]
 8000d06:	681b      	ldr	r3, [r3, #0]
 8000d08:	490d      	ldr	r1, [pc, #52]	; (8000d40 <HAL_UART_Init+0xa4>)
 8000d0a:	400a      	ands	r2, r1
 8000d0c:	605a      	str	r2, [r3, #4]
#else
  CLEAR_BIT(huart->Instance->CR2, USART_CR2_CLKEN);
#endif /* USART_CR2_LINEN */
#if defined (USART_CR3_SCEN)
#if defined (USART_CR3_IREN)
  CLEAR_BIT(huart->Instance->CR3, (USART_CR3_SCEN | USART_CR3_HDSEL | USART_CR3_IREN));
 8000d0e:	687b      	ldr	r3, [r7, #4]
 8000d10:	681b      	ldr	r3, [r3, #0]
 8000d12:	689a      	ldr	r2, [r3, #8]
 8000d14:	687b      	ldr	r3, [r7, #4]
 8000d16:	681b      	ldr	r3, [r3, #0]
 8000d18:	212a      	movs	r1, #42	; 0x2a
 8000d1a:	438a      	bics	r2, r1
 8000d1c:	609a      	str	r2, [r3, #8]
#else
  CLEAR_BIT(huart->Instance->CR3, USART_CR3_HDSEL);
#endif /* USART_CR3_IREN*/
#endif /* USART_CR3_SCEN */

  __HAL_UART_ENABLE(huart);
 8000d1e:	687b      	ldr	r3, [r7, #4]
 8000d20:	681b      	ldr	r3, [r3, #0]
 8000d22:	681a      	ldr	r2, [r3, #0]
 8000d24:	687b      	ldr	r3, [r7, #4]
 8000d26:	681b      	ldr	r3, [r3, #0]
 8000d28:	2101      	movs	r1, #1
 8000d2a:	430a      	orrs	r2, r1
 8000d2c:	601a      	str	r2, [r3, #0]

  /* TEACK and/or REACK to check before moving huart->gState and huart->RxState to Ready */
  return (UART_CheckIdleState(huart));
 8000d2e:	687b      	ldr	r3, [r7, #4]
 8000d30:	0018      	movs	r0, r3
 8000d32:	f000 fa41 	bl	80011b8 <UART_CheckIdleState>
 8000d36:	0003      	movs	r3, r0
}
 8000d38:	0018      	movs	r0, r3
 8000d3a:	46bd      	mov	sp, r7
 8000d3c:	b002      	add	sp, #8
 8000d3e:	bd80      	pop	{r7, pc}
 8000d40:	ffffb7ff 	.word	0xffffb7ff

08000d44 <UART_SetConfig>:
  * @brief Configure the UART peripheral.
  * @param huart UART handle.
  * @retval HAL status
  */
HAL_StatusTypeDef UART_SetConfig(UART_HandleTypeDef *huart)
{
 8000d44:	b580      	push	{r7, lr}
 8000d46:	b088      	sub	sp, #32
 8000d48:	af00      	add	r7, sp, #0
 8000d4a:	6078      	str	r0, [r7, #4]
  uint32_t tmpreg;
  uint16_t brrtemp;
  UART_ClockSourceTypeDef clocksource;
  uint32_t usartdiv                   = 0x00000000U;
 8000d4c:	2300      	movs	r3, #0
 8000d4e:	61bb      	str	r3, [r7, #24]
  HAL_StatusTypeDef ret               = HAL_OK;
 8000d50:	2317      	movs	r3, #23
 8000d52:	18fb      	adds	r3, r7, r3
 8000d54:	2200      	movs	r2, #0
 8000d56:	701a      	strb	r2, [r3, #0]
  *  the UART Word Length, Parity, Mode and oversampling:
  *  set the M bits according to huart->Init.WordLength value
  *  set PCE and PS bits according to huart->Init.Parity value
  *  set TE and RE bits according to huart->Init.Mode value
  *  set OVER8 bit according to huart->Init.OverSampling value */
  tmpreg = (uint32_t)huart->Init.WordLength | huart->Init.Parity | huart->Init.Mode | huart->Init.OverSampling ;
 8000d58:	687b      	ldr	r3, [r7, #4]
 8000d5a:	689a      	ldr	r2, [r3, #8]
 8000d5c:	687b      	ldr	r3, [r7, #4]
 8000d5e:	691b      	ldr	r3, [r3, #16]
 8000d60:	431a      	orrs	r2, r3
 8000d62:	687b      	ldr	r3, [r7, #4]
 8000d64:	695b      	ldr	r3, [r3, #20]
 8000d66:	431a      	orrs	r2, r3
 8000d68:	687b      	ldr	r3, [r7, #4]
 8000d6a:	69db      	ldr	r3, [r3, #28]
 8000d6c:	4313      	orrs	r3, r2
 8000d6e:	613b      	str	r3, [r7, #16]
  MODIFY_REG(huart->Instance->CR1, USART_CR1_FIELDS, tmpreg);
 8000d70:	687b      	ldr	r3, [r7, #4]
 8000d72:	681b      	ldr	r3, [r3, #0]
 8000d74:	681b      	ldr	r3, [r3, #0]
 8000d76:	4aad      	ldr	r2, [pc, #692]	; (800102c <UART_SetConfig+0x2e8>)
 8000d78:	4013      	ands	r3, r2
 8000d7a:	0019      	movs	r1, r3
 8000d7c:	687b      	ldr	r3, [r7, #4]
 8000d7e:	681b      	ldr	r3, [r3, #0]
 8000d80:	693a      	ldr	r2, [r7, #16]
 8000d82:	430a      	orrs	r2, r1
 8000d84:	601a      	str	r2, [r3, #0]

  /*-------------------------- USART CR2 Configuration -----------------------*/
  /* Configure the UART Stop Bits: Set STOP[13:12] bits according
  * to huart->Init.StopBits value */
  MODIFY_REG(huart->Instance->CR2, USART_CR2_STOP, huart->Init.StopBits);
 8000d86:	687b      	ldr	r3, [r7, #4]
 8000d88:	681b      	ldr	r3, [r3, #0]
 8000d8a:	685b      	ldr	r3, [r3, #4]
 8000d8c:	4aa8      	ldr	r2, [pc, #672]	; (8001030 <UART_SetConfig+0x2ec>)
 8000d8e:	4013      	ands	r3, r2
 8000d90:	0019      	movs	r1, r3
 8000d92:	687b      	ldr	r3, [r7, #4]
 8000d94:	68da      	ldr	r2, [r3, #12]
 8000d96:	687b      	ldr	r3, [r7, #4]
 8000d98:	681b      	ldr	r3, [r3, #0]
 8000d9a:	430a      	orrs	r2, r1
 8000d9c:	605a      	str	r2, [r3, #4]
  /* Configure
  * - UART HardWare Flow Control: set CTSE and RTSE bits according
  *   to huart->Init.HwFlowCtl value
  * - one-bit sampling method versus three samples' majority rule according
  *   to huart->Init.OneBitSampling (not applicable to LPUART) */
  tmpreg = (uint32_t)huart->Init.HwFlowCtl;
 8000d9e:	687b      	ldr	r3, [r7, #4]
 8000da0:	699b      	ldr	r3, [r3, #24]
 8000da2:	613b      	str	r3, [r7, #16]

  tmpreg |= huart->Init.OneBitSampling;
 8000da4:	687b      	ldr	r3, [r7, #4]
 8000da6:	6a1b      	ldr	r3, [r3, #32]
 8000da8:	693a      	ldr	r2, [r7, #16]
 8000daa:	4313      	orrs	r3, r2
 8000dac:	613b      	str	r3, [r7, #16]
  MODIFY_REG(huart->Instance->CR3, USART_CR3_FIELDS, tmpreg);
 8000dae:	687b      	ldr	r3, [r7, #4]
 8000db0:	681b      	ldr	r3, [r3, #0]
 8000db2:	689b      	ldr	r3, [r3, #8]
 8000db4:	4a9f      	ldr	r2, [pc, #636]	; (8001034 <UART_SetConfig+0x2f0>)
 8000db6:	4013      	ands	r3, r2
 8000db8:	0019      	movs	r1, r3
 8000dba:	687b      	ldr	r3, [r7, #4]
 8000dbc:	681b      	ldr	r3, [r3, #0]
 8000dbe:	693a      	ldr	r2, [r7, #16]
 8000dc0:	430a      	orrs	r2, r1
 8000dc2:	609a      	str	r2, [r3, #8]


  /*-------------------------- USART BRR Configuration -----------------------*/
  UART_GETCLOCKSOURCE(huart, clocksource);
 8000dc4:	687b      	ldr	r3, [r7, #4]
 8000dc6:	681b      	ldr	r3, [r3, #0]
 8000dc8:	4a9b      	ldr	r2, [pc, #620]	; (8001038 <UART_SetConfig+0x2f4>)
 8000dca:	4293      	cmp	r3, r2
 8000dcc:	d125      	bne.n	8000e1a <UART_SetConfig+0xd6>
 8000dce:	4b9b      	ldr	r3, [pc, #620]	; (800103c <UART_SetConfig+0x2f8>)
 8000dd0:	6b1b      	ldr	r3, [r3, #48]	; 0x30
 8000dd2:	2203      	movs	r2, #3
 8000dd4:	4013      	ands	r3, r2
 8000dd6:	2b01      	cmp	r3, #1
 8000dd8:	d00f      	beq.n	8000dfa <UART_SetConfig+0xb6>
 8000dda:	d304      	bcc.n	8000de6 <UART_SetConfig+0xa2>
 8000ddc:	2b02      	cmp	r3, #2
 8000dde:	d011      	beq.n	8000e04 <UART_SetConfig+0xc0>
 8000de0:	2b03      	cmp	r3, #3
 8000de2:	d005      	beq.n	8000df0 <UART_SetConfig+0xac>
 8000de4:	e013      	b.n	8000e0e <UART_SetConfig+0xca>
 8000de6:	231f      	movs	r3, #31
 8000de8:	18fb      	adds	r3, r7, r3
 8000dea:	2200      	movs	r2, #0
 8000dec:	701a      	strb	r2, [r3, #0]
 8000dee:	e022      	b.n	8000e36 <UART_SetConfig+0xf2>
 8000df0:	231f      	movs	r3, #31
 8000df2:	18fb      	adds	r3, r7, r3
 8000df4:	2202      	movs	r2, #2
 8000df6:	701a      	strb	r2, [r3, #0]
 8000df8:	e01d      	b.n	8000e36 <UART_SetConfig+0xf2>
 8000dfa:	231f      	movs	r3, #31
 8000dfc:	18fb      	adds	r3, r7, r3
 8000dfe:	2204      	movs	r2, #4
 8000e00:	701a      	strb	r2, [r3, #0]
 8000e02:	e018      	b.n	8000e36 <UART_SetConfig+0xf2>
 8000e04:	231f      	movs	r3, #31
 8000e06:	18fb      	adds	r3, r7, r3
 8000e08:	2208      	movs	r2, #8
 8000e0a:	701a      	strb	r2, [r3, #0]
 8000e0c:	e013      	b.n	8000e36 <UART_SetConfig+0xf2>
 8000e0e:	231f      	movs	r3, #31
 8000e10:	18fb      	adds	r3, r7, r3
 8000e12:	2210      	movs	r2, #16
 8000e14:	701a      	strb	r2, [r3, #0]
 8000e16:	46c0      	nop			; (mov r8, r8)
 8000e18:	e00d      	b.n	8000e36 <UART_SetConfig+0xf2>
 8000e1a:	687b      	ldr	r3, [r7, #4]
 8000e1c:	681b      	ldr	r3, [r3, #0]
 8000e1e:	4a88      	ldr	r2, [pc, #544]	; (8001040 <UART_SetConfig+0x2fc>)
 8000e20:	4293      	cmp	r3, r2
 8000e22:	d104      	bne.n	8000e2e <UART_SetConfig+0xea>
 8000e24:	231f      	movs	r3, #31
 8000e26:	18fb      	adds	r3, r7, r3
 8000e28:	2200      	movs	r2, #0
 8000e2a:	701a      	strb	r2, [r3, #0]
 8000e2c:	e003      	b.n	8000e36 <UART_SetConfig+0xf2>
 8000e2e:	231f      	movs	r3, #31
 8000e30:	18fb      	adds	r3, r7, r3
 8000e32:	2210      	movs	r2, #16
 8000e34:	701a      	strb	r2, [r3, #0]

  if (huart->Init.OverSampling == UART_OVERSAMPLING_8)
 8000e36:	687b      	ldr	r3, [r7, #4]
 8000e38:	69da      	ldr	r2, [r3, #28]
 8000e3a:	2380      	movs	r3, #128	; 0x80
 8000e3c:	021b      	lsls	r3, r3, #8
 8000e3e:	429a      	cmp	r2, r3
 8000e40:	d000      	beq.n	8000e44 <UART_SetConfig+0x100>
 8000e42:	e07d      	b.n	8000f40 <UART_SetConfig+0x1fc>
  {
    switch (clocksource)
 8000e44:	231f      	movs	r3, #31
 8000e46:	18fb      	adds	r3, r7, r3
 8000e48:	781b      	ldrb	r3, [r3, #0]
 8000e4a:	2b02      	cmp	r3, #2
 8000e4c:	d01c      	beq.n	8000e88 <UART_SetConfig+0x144>
 8000e4e:	dc02      	bgt.n	8000e56 <UART_SetConfig+0x112>
 8000e50:	2b00      	cmp	r3, #0
 8000e52:	d005      	beq.n	8000e60 <UART_SetConfig+0x11c>
 8000e54:	e04b      	b.n	8000eee <UART_SetConfig+0x1aa>
 8000e56:	2b04      	cmp	r3, #4
 8000e58:	d025      	beq.n	8000ea6 <UART_SetConfig+0x162>
 8000e5a:	2b08      	cmp	r3, #8
 8000e5c:	d037      	beq.n	8000ece <UART_SetConfig+0x18a>
 8000e5e:	e046      	b.n	8000eee <UART_SetConfig+0x1aa>
    {
      case UART_CLOCKSOURCE_PCLK1:
        pclk = HAL_RCC_GetPCLK1Freq();
 8000e60:	f7ff ff06 	bl	8000c70 <HAL_RCC_GetPCLK1Freq>
 8000e64:	0003      	movs	r3, r0
 8000e66:	60fb      	str	r3, [r7, #12]
        usartdiv = (uint16_t)(UART_DIV_SAMPLING8(pclk, huart->Init.BaudRate));
 8000e68:	68fb      	ldr	r3, [r7, #12]
 8000e6a:	005a      	lsls	r2, r3, #1
 8000e6c:	687b      	ldr	r3, [r7, #4]
 8000e6e:	685b      	ldr	r3, [r3, #4]
 8000e70:	085b      	lsrs	r3, r3, #1
 8000e72:	18d2      	adds	r2, r2, r3
 8000e74:	687b      	ldr	r3, [r7, #4]
 8000e76:	685b      	ldr	r3, [r3, #4]
 8000e78:	0019      	movs	r1, r3
 8000e7a:	0010      	movs	r0, r2
 8000e7c:	f7ff f944 	bl	8000108 <__udivsi3>
 8000e80:	0003      	movs	r3, r0
 8000e82:	b29b      	uxth	r3, r3
 8000e84:	61bb      	str	r3, [r7, #24]
        break;
 8000e86:	e037      	b.n	8000ef8 <UART_SetConfig+0x1b4>
      case UART_CLOCKSOURCE_HSI:
        usartdiv = (uint16_t)(UART_DIV_SAMPLING8(HSI_VALUE, huart->Init.BaudRate));
 8000e88:	687b      	ldr	r3, [r7, #4]
 8000e8a:	685b      	ldr	r3, [r3, #4]
 8000e8c:	085b      	lsrs	r3, r3, #1
 8000e8e:	4a6d      	ldr	r2, [pc, #436]	; (8001044 <UART_SetConfig+0x300>)
 8000e90:	189a      	adds	r2, r3, r2
 8000e92:	687b      	ldr	r3, [r7, #4]
 8000e94:	685b      	ldr	r3, [r3, #4]
 8000e96:	0019      	movs	r1, r3
 8000e98:	0010      	movs	r0, r2
 8000e9a:	f7ff f935 	bl	8000108 <__udivsi3>
 8000e9e:	0003      	movs	r3, r0
 8000ea0:	b29b      	uxth	r3, r3
 8000ea2:	61bb      	str	r3, [r7, #24]
        break;
 8000ea4:	e028      	b.n	8000ef8 <UART_SetConfig+0x1b4>
      case UART_CLOCKSOURCE_SYSCLK:
        pclk = HAL_RCC_GetSysClockFreq();
 8000ea6:	f7ff fe5b 	bl	8000b60 <HAL_RCC_GetSysClockFreq>
 8000eaa:	0003      	movs	r3, r0
 8000eac:	60fb      	str	r3, [r7, #12]
        usartdiv = (uint16_t)(UART_DIV_SAMPLING8(pclk, huart->Init.BaudRate));
 8000eae:	68fb      	ldr	r3, [r7, #12]
 8000eb0:	005a      	lsls	r2, r3, #1
 8000eb2:	687b      	ldr	r3, [r7, #4]
 8000eb4:	685b      	ldr	r3, [r3, #4]
 8000eb6:	085b      	lsrs	r3, r3, #1
 8000eb8:	18d2      	adds	r2, r2, r3
 8000eba:	687b      	ldr	r3, [r7, #4]
 8000ebc:	685b      	ldr	r3, [r3, #4]
 8000ebe:	0019      	movs	r1, r3
 8000ec0:	0010      	movs	r0, r2
 8000ec2:	f7ff f921 	bl	8000108 <__udivsi3>
 8000ec6:	0003      	movs	r3, r0
 8000ec8:	b29b      	uxth	r3, r3
 8000eca:	61bb      	str	r3, [r7, #24]
        break;
 8000ecc:	e014      	b.n	8000ef8 <UART_SetConfig+0x1b4>
      case UART_CLOCKSOURCE_LSE:
        usartdiv = (uint16_t)(UART_DIV_SAMPLING8(LSE_VALUE, huart->Init.BaudRate));
 8000ece:	687b      	ldr	r3, [r7, #4]
 8000ed0:	685b      	ldr	r3, [r3, #4]
 8000ed2:	085b      	lsrs	r3, r3, #1
 8000ed4:	2280      	movs	r2, #128	; 0x80
 8000ed6:	0252      	lsls	r2, r2, #9
 8000ed8:	189a      	adds	r2, r3, r2
 8000eda:	687b      	ldr	r3, [r7, #4]
 8000edc:	685b      	ldr	r3, [r3, #4]
 8000ede:	0019      	movs	r1, r3
 8000ee0:	0010      	movs	r0, r2
 8000ee2:	f7ff f911 	bl	8000108 <__udivsi3>
 8000ee6:	0003      	movs	r3, r0
 8000ee8:	b29b      	uxth	r3, r3
 8000eea:	61bb      	str	r3, [r7, #24]
        break;
 8000eec:	e004      	b.n	8000ef8 <UART_SetConfig+0x1b4>
      default:
        ret = HAL_ERROR;
 8000eee:	2317      	movs	r3, #23
 8000ef0:	18fb      	adds	r3, r7, r3
 8000ef2:	2201      	movs	r2, #1
 8000ef4:	701a      	strb	r2, [r3, #0]
        break;
 8000ef6:	46c0      	nop			; (mov r8, r8)
    }

    /* USARTDIV must be greater than or equal to 0d16 */
    if ((usartdiv >= UART_BRR_MIN) && (usartdiv <= UART_BRR_MAX))
 8000ef8:	69bb      	ldr	r3, [r7, #24]
 8000efa:	2b0f      	cmp	r3, #15
 8000efc:	d91b      	bls.n	8000f36 <UART_SetConfig+0x1f2>
 8000efe:	69bb      	ldr	r3, [r7, #24]
 8000f00:	4a51      	ldr	r2, [pc, #324]	; (8001048 <UART_SetConfig+0x304>)
 8000f02:	4293      	cmp	r3, r2
 8000f04:	d817      	bhi.n	8000f36 <UART_SetConfig+0x1f2>
    {
      brrtemp = (uint16_t)(usartdiv & 0xFFF0U);
 8000f06:	69bb      	ldr	r3, [r7, #24]
 8000f08:	b29a      	uxth	r2, r3
 8000f0a:	200a      	movs	r0, #10
 8000f0c:	183b      	adds	r3, r7, r0
 8000f0e:	210f      	movs	r1, #15
 8000f10:	438a      	bics	r2, r1
 8000f12:	801a      	strh	r2, [r3, #0]
      brrtemp |= (uint16_t)((usartdiv & (uint16_t)0x000FU) >> 1U);
 8000f14:	69bb      	ldr	r3, [r7, #24]
 8000f16:	085b      	lsrs	r3, r3, #1
 8000f18:	b29b      	uxth	r3, r3
 8000f1a:	2207      	movs	r2, #7
 8000f1c:	4013      	ands	r3, r2
 8000f1e:	b299      	uxth	r1, r3
 8000f20:	183b      	adds	r3, r7, r0
 8000f22:	183a      	adds	r2, r7, r0
 8000f24:	8812      	ldrh	r2, [r2, #0]
 8000f26:	430a      	orrs	r2, r1
 8000f28:	801a      	strh	r2, [r3, #0]
      huart->Instance->BRR = brrtemp;
 8000f2a:	687b      	ldr	r3, [r7, #4]
 8000f2c:	681b      	ldr	r3, [r3, #0]
 8000f2e:	183a      	adds	r2, r7, r0
 8000f30:	8812      	ldrh	r2, [r2, #0]
 8000f32:	60da      	str	r2, [r3, #12]
 8000f34:	e06c      	b.n	8001010 <UART_SetConfig+0x2cc>
    }
    else
    {
      ret = HAL_ERROR;
 8000f36:	2317      	movs	r3, #23
 8000f38:	18fb      	adds	r3, r7, r3
 8000f3a:	2201      	movs	r2, #1
 8000f3c:	701a      	strb	r2, [r3, #0]
 8000f3e:	e067      	b.n	8001010 <UART_SetConfig+0x2cc>
    }
  }
  else
  {
    switch (clocksource)
 8000f40:	231f      	movs	r3, #31
 8000f42:	18fb      	adds	r3, r7, r3
 8000f44:	781b      	ldrb	r3, [r3, #0]
 8000f46:	2b02      	cmp	r3, #2
 8000f48:	d01b      	beq.n	8000f82 <UART_SetConfig+0x23e>
 8000f4a:	dc02      	bgt.n	8000f52 <UART_SetConfig+0x20e>
 8000f4c:	2b00      	cmp	r3, #0
 8000f4e:	d005      	beq.n	8000f5c <UART_SetConfig+0x218>
 8000f50:	e049      	b.n	8000fe6 <UART_SetConfig+0x2a2>
 8000f52:	2b04      	cmp	r3, #4
 8000f54:	d024      	beq.n	8000fa0 <UART_SetConfig+0x25c>
 8000f56:	2b08      	cmp	r3, #8
 8000f58:	d035      	beq.n	8000fc6 <UART_SetConfig+0x282>
 8000f5a:	e044      	b.n	8000fe6 <UART_SetConfig+0x2a2>
    {
      case UART_CLOCKSOURCE_PCLK1:
        pclk = HAL_RCC_GetPCLK1Freq();
 8000f5c:	f7ff fe88 	bl	8000c70 <HAL_RCC_GetPCLK1Freq>
 8000f60:	0003      	movs	r3, r0
 8000f62:	60fb      	str	r3, [r7, #12]
        usartdiv = (uint16_t)(UART_DIV_SAMPLING16(pclk, huart->Init.BaudRate));
 8000f64:	687b      	ldr	r3, [r7, #4]
 8000f66:	685b      	ldr	r3, [r3, #4]
 8000f68:	085a      	lsrs	r2, r3, #1
 8000f6a:	68fb      	ldr	r3, [r7, #12]
 8000f6c:	18d2      	adds	r2, r2, r3
 8000f6e:	687b      	ldr	r3, [r7, #4]
 8000f70:	685b      	ldr	r3, [r3, #4]
 8000f72:	0019      	movs	r1, r3
 8000f74:	0010      	movs	r0, r2
 8000f76:	f7ff f8c7 	bl	8000108 <__udivsi3>
 8000f7a:	0003      	movs	r3, r0
 8000f7c:	b29b      	uxth	r3, r3
 8000f7e:	61bb      	str	r3, [r7, #24]
        break;
 8000f80:	e036      	b.n	8000ff0 <UART_SetConfig+0x2ac>
      case UART_CLOCKSOURCE_HSI:
        usartdiv = (uint16_t)(UART_DIV_SAMPLING16(HSI_VALUE, huart->Init.BaudRate));
 8000f82:	687b      	ldr	r3, [r7, #4]
 8000f84:	685b      	ldr	r3, [r3, #4]
 8000f86:	085b      	lsrs	r3, r3, #1
 8000f88:	4a30      	ldr	r2, [pc, #192]	; (800104c <UART_SetConfig+0x308>)
 8000f8a:	189a      	adds	r2, r3, r2
 8000f8c:	687b      	ldr	r3, [r7, #4]
 8000f8e:	685b      	ldr	r3, [r3, #4]
 8000f90:	0019      	movs	r1, r3
 8000f92:	0010      	movs	r0, r2
 8000f94:	f7ff f8b8 	bl	8000108 <__udivsi3>
 8000f98:	0003      	movs	r3, r0
 8000f9a:	b29b      	uxth	r3, r3
 8000f9c:	61bb      	str	r3, [r7, #24]
        break;
 8000f9e:	e027      	b.n	8000ff0 <UART_SetConfig+0x2ac>
      case UART_CLOCKSOURCE_SYSCLK:
        pclk = HAL_RCC_GetSysClockFreq();
 8000fa0:	f7ff fdde 	bl	8000b60 <HAL_RCC_GetSysClockFreq>
 8000fa4:	0003      	movs	r3, r0
 8000fa6:	60fb      	str	r3, [r7, #12]
        usartdiv = (uint16_t)(UART_DIV_SAMPLING16(pclk, huart->Init.BaudRate));
 8000fa8:	687b      	ldr	r3, [r7, #4]
 8000faa:	685b      	ldr	r3, [r3, #4]
 8000fac:	085a      	lsrs	r2, r3, #1
 8000fae:	68fb      	ldr	r3, [r7, #12]
 8000fb0:	18d2      	adds	r2, r2, r3
 8000fb2:	687b      	ldr	r3, [r7, #4]
 8000fb4:	685b      	ldr	r3, [r3, #4]
 8000fb6:	0019      	movs	r1, r3
 8000fb8:	0010      	movs	r0, r2
 8000fba:	f7ff f8a5 	bl	8000108 <__udivsi3>
 8000fbe:	0003      	movs	r3, r0
 8000fc0:	b29b      	uxth	r3, r3
 8000fc2:	61bb      	str	r3, [r7, #24]
        break;
 8000fc4:	e014      	b.n	8000ff0 <UART_SetConfig+0x2ac>
      case UART_CLOCKSOURCE_LSE:
        usartdiv = (uint16_t)(UART_DIV_SAMPLING16(LSE_VALUE, huart->Init.BaudRate));
 8000fc6:	687b      	ldr	r3, [r7, #4]
 8000fc8:	685b      	ldr	r3, [r3, #4]
 8000fca:	085b      	lsrs	r3, r3, #1
 8000fcc:	2280      	movs	r2, #128	; 0x80
 8000fce:	0212      	lsls	r2, r2, #8
 8000fd0:	189a      	adds	r2, r3, r2
 8000fd2:	687b      	ldr	r3, [r7, #4]
 8000fd4:	685b      	ldr	r3, [r3, #4]
 8000fd6:	0019      	movs	r1, r3
 8000fd8:	0010      	movs	r0, r2
 8000fda:	f7ff f895 	bl	8000108 <__udivsi3>
 8000fde:	0003      	movs	r3, r0
 8000fe0:	b29b      	uxth	r3, r3
 8000fe2:	61bb      	str	r3, [r7, #24]
        break;
 8000fe4:	e004      	b.n	8000ff0 <UART_SetConfig+0x2ac>
      default:
        ret = HAL_ERROR;
 8000fe6:	2317      	movs	r3, #23
 8000fe8:	18fb      	adds	r3, r7, r3
 8000fea:	2201      	movs	r2, #1
 8000fec:	701a      	strb	r2, [r3, #0]
        break;
 8000fee:	46c0      	nop			; (mov r8, r8)
    }

    /* USARTDIV must be greater than or equal to 0d16 */
    if ((usartdiv >= UART_BRR_MIN) && (usartdiv <= UART_BRR_MAX))
 8000ff0:	69bb      	ldr	r3, [r7, #24]
 8000ff2:	2b0f      	cmp	r3, #15
 8000ff4:	d908      	bls.n	8001008 <UART_SetConfig+0x2c4>
 8000ff6:	69bb      	ldr	r3, [r7, #24]
 8000ff8:	4a13      	ldr	r2, [pc, #76]	; (8001048 <UART_SetConfig+0x304>)
 8000ffa:	4293      	cmp	r3, r2
 8000ffc:	d804      	bhi.n	8001008 <UART_SetConfig+0x2c4>
    {
      huart->Instance->BRR = usartdiv;
 8000ffe:	687b      	ldr	r3, [r7, #4]
 8001000:	681b      	ldr	r3, [r3, #0]
 8001002:	69ba      	ldr	r2, [r7, #24]
 8001004:	60da      	str	r2, [r3, #12]
 8001006:	e003      	b.n	8001010 <UART_SetConfig+0x2cc>
    }
    else
    {
      ret = HAL_ERROR;
 8001008:	2317      	movs	r3, #23
 800100a:	18fb      	adds	r3, r7, r3
 800100c:	2201      	movs	r2, #1
 800100e:	701a      	strb	r2, [r3, #0]
    }
  }


  /* Clear ISR function pointers */
  huart->RxISR = NULL;
 8001010:	687b      	ldr	r3, [r7, #4]
 8001012:	2200      	movs	r2, #0
 8001014:	661a      	str	r2, [r3, #96]	; 0x60
  huart->TxISR = NULL;
 8001016:	687b      	ldr	r3, [r7, #4]
 8001018:	2200      	movs	r2, #0
 800101a:	665a      	str	r2, [r3, #100]	; 0x64

  return ret;
 800101c:	2317      	movs	r3, #23
 800101e:	18fb      	adds	r3, r7, r3
 8001020:	781b      	ldrb	r3, [r3, #0]
}
 8001022:	0018      	movs	r0, r3
 8001024:	46bd      	mov	sp, r7
 8001026:	b008      	add	sp, #32
 8001028:	bd80      	pop	{r7, pc}
 800102a:	46c0      	nop			; (mov r8, r8)
 800102c:	efff69f3 	.word	0xefff69f3
 8001030:	ffffcfff 	.word	0xffffcfff
 8001034:	fffff4ff 	.word	0xfffff4ff
 8001038:	40013800 	.word	0x40013800
 800103c:	40021000 	.word	0x40021000
 8001040:	40004400 	.word	0x40004400
 8001044:	00f42400 	.word	0x00f42400
 8001048:	0000ffff 	.word	0x0000ffff
 800104c:	007a1200 	.word	0x007a1200

08001050 <UART_AdvFeatureConfig>:
  * @brief Configure the UART peripheral advanced features.
  * @param huart UART handle.
  * @retval None
  */
void UART_AdvFeatureConfig(UART_HandleTypeDef *huart)
{
 8001050:	b580      	push	{r7, lr}
 8001052:	b082      	sub	sp, #8
 8001054:	af00      	add	r7, sp, #0
 8001056:	6078      	str	r0, [r7, #4]
  /* Check whether the set of advanced features to configure is properly set */
  assert_param(IS_UART_ADVFEATURE_INIT(huart->AdvancedInit.AdvFeatureInit));

  /* if required, configure TX pin active level inversion */
  if (HAL_IS_BIT_SET(huart->AdvancedInit.AdvFeatureInit, UART_ADVFEATURE_TXINVERT_INIT))
 8001058:	687b      	ldr	r3, [r7, #4]
 800105a:	6a5b      	ldr	r3, [r3, #36]	; 0x24
 800105c:	2201      	movs	r2, #1
 800105e:	4013      	ands	r3, r2
 8001060:	d00b      	beq.n	800107a <UART_AdvFeatureConfig+0x2a>
  {
    assert_param(IS_UART_ADVFEATURE_TXINV(huart->AdvancedInit.TxPinLevelInvert));
    MODIFY_REG(huart->Instance->CR2, USART_CR2_TXINV, huart->AdvancedInit.TxPinLevelInvert);
 8001062:	687b      	ldr	r3, [r7, #4]
 8001064:	681b      	ldr	r3, [r3, #0]
 8001066:	685b      	ldr	r3, [r3, #4]
 8001068:	4a4a      	ldr	r2, [pc, #296]	; (8001194 <UART_AdvFeatureConfig+0x144>)
 800106a:	4013      	ands	r3, r2
 800106c:	0019      	movs	r1, r3
 800106e:	687b      	ldr	r3, [r7, #4]
 8001070:	6a9a      	ldr	r2, [r3, #40]	; 0x28
 8001072:	687b      	ldr	r3, [r7, #4]
 8001074:	681b      	ldr	r3, [r3, #0]
 8001076:	430a      	orrs	r2, r1
 8001078:	605a      	str	r2, [r3, #4]
  }

  /* if required, configure RX pin active level inversion */
  if (HAL_IS_BIT_SET(huart->AdvancedInit.AdvFeatureInit, UART_ADVFEATURE_RXINVERT_INIT))
 800107a:	687b      	ldr	r3, [r7, #4]
 800107c:	6a5b      	ldr	r3, [r3, #36]	; 0x24
 800107e:	2202      	movs	r2, #2
 8001080:	4013      	ands	r3, r2
 8001082:	d00b      	beq.n	800109c <UART_AdvFeatureConfig+0x4c>
  {
    assert_param(IS_UART_ADVFEATURE_RXINV(huart->AdvancedInit.RxPinLevelInvert));
    MODIFY_REG(huart->Instance->CR2, USART_CR2_RXINV, huart->AdvancedInit.RxPinLevelInvert);
 8001084:	687b      	ldr	r3, [r7, #4]
 8001086:	681b      	ldr	r3, [r3, #0]
 8001088:	685b      	ldr	r3, [r3, #4]
 800108a:	4a43      	ldr	r2, [pc, #268]	; (8001198 <UART_AdvFeatureConfig+0x148>)
 800108c:	4013      	ands	r3, r2
 800108e:	0019      	movs	r1, r3
 8001090:	687b      	ldr	r3, [r7, #4]
 8001092:	6ada      	ldr	r2, [r3, #44]	; 0x2c
 8001094:	687b      	ldr	r3, [r7, #4]
 8001096:	681b      	ldr	r3, [r3, #0]
 8001098:	430a      	orrs	r2, r1
 800109a:	605a      	str	r2, [r3, #4]
  }

  /* if required, configure data inversion */
  if (HAL_IS_BIT_SET(huart->AdvancedInit.AdvFeatureInit, UART_ADVFEATURE_DATAINVERT_INIT))
 800109c:	687b      	ldr	r3, [r7, #4]
 800109e:	6a5b      	ldr	r3, [r3, #36]	; 0x24
 80010a0:	2204      	movs	r2, #4
 80010a2:	4013      	ands	r3, r2
 80010a4:	d00b      	beq.n	80010be <UART_AdvFeatureConfig+0x6e>
  {
    assert_param(IS_UART_ADVFEATURE_DATAINV(huart->AdvancedInit.DataInvert));
    MODIFY_REG(huart->Instance->CR2, USART_CR2_DATAINV, huart->AdvancedInit.DataInvert);
 80010a6:	687b      	ldr	r3, [r7, #4]
 80010a8:	681b      	ldr	r3, [r3, #0]
 80010aa:	685b      	ldr	r3, [r3, #4]
 80010ac:	4a3b      	ldr	r2, [pc, #236]	; (800119c <UART_AdvFeatureConfig+0x14c>)
 80010ae:	4013      	ands	r3, r2
 80010b0:	0019      	movs	r1, r3
 80010b2:	687b      	ldr	r3, [r7, #4]
 80010b4:	6b1a      	ldr	r2, [r3, #48]	; 0x30
 80010b6:	687b      	ldr	r3, [r7, #4]
 80010b8:	681b      	ldr	r3, [r3, #0]
 80010ba:	430a      	orrs	r2, r1
 80010bc:	605a      	str	r2, [r3, #4]
  }

  /* if required, configure RX/TX pins swap */
  if (HAL_IS_BIT_SET(huart->AdvancedInit.AdvFeatureInit, UART_ADVFEATURE_SWAP_INIT))
 80010be:	687b      	ldr	r3, [r7, #4]
 80010c0:	6a5b      	ldr	r3, [r3, #36]	; 0x24
 80010c2:	2208      	movs	r2, #8
 80010c4:	4013      	ands	r3, r2
 80010c6:	d00b      	beq.n	80010e0 <UART_AdvFeatureConfig+0x90>
  {
    assert_param(IS_UART_ADVFEATURE_SWAP(huart->AdvancedInit.Swap));
    MODIFY_REG(huart->Instance->CR2, USART_CR2_SWAP, huart->AdvancedInit.Swap);
 80010c8:	687b      	ldr	r3, [r7, #4]
 80010ca:	681b      	ldr	r3, [r3, #0]
 80010cc:	685b      	ldr	r3, [r3, #4]
 80010ce:	4a34      	ldr	r2, [pc, #208]	; (80011a0 <UART_AdvFeatureConfig+0x150>)
 80010d0:	4013      	ands	r3, r2
 80010d2:	0019      	movs	r1, r3
 80010d4:	687b      	ldr	r3, [r7, #4]
 80010d6:	6b5a      	ldr	r2, [r3, #52]	; 0x34
 80010d8:	687b      	ldr	r3, [r7, #4]
 80010da:	681b      	ldr	r3, [r3, #0]
 80010dc:	430a      	orrs	r2, r1
 80010de:	605a      	str	r2, [r3, #4]
  }

  /* if required, configure RX overrun detection disabling */
  if (HAL_IS_BIT_SET(huart->AdvancedInit.AdvFeatureInit, UART_ADVFEATURE_RXOVERRUNDISABLE_INIT))
 80010e0:	687b      	ldr	r3, [r7, #4]
 80010e2:	6a5b      	ldr	r3, [r3, #36]	; 0x24
 80010e4:	2210      	movs	r2, #16
 80010e6:	4013      	ands	r3, r2
 80010e8:	d00b      	beq.n	8001102 <UART_AdvFeatureConfig+0xb2>
  {
    assert_param(IS_UART_OVERRUN(huart->AdvancedInit.OverrunDisable));
    MODIFY_REG(huart->Instance->CR3, USART_CR3_OVRDIS, huart->AdvancedInit.OverrunDisable);
 80010ea:	687b      	ldr	r3, [r7, #4]
 80010ec:	681b      	ldr	r3, [r3, #0]
 80010ee:	689b      	ldr	r3, [r3, #8]
 80010f0:	4a2c      	ldr	r2, [pc, #176]	; (80011a4 <UART_AdvFeatureConfig+0x154>)
 80010f2:	4013      	ands	r3, r2
 80010f4:	0019      	movs	r1, r3
 80010f6:	687b      	ldr	r3, [r7, #4]
 80010f8:	6b9a      	ldr	r2, [r3, #56]	; 0x38
 80010fa:	687b      	ldr	r3, [r7, #4]
 80010fc:	681b      	ldr	r3, [r3, #0]
 80010fe:	430a      	orrs	r2, r1
 8001100:	609a      	str	r2, [r3, #8]
  }

  /* if required, configure DMA disabling on reception error */
  if (HAL_IS_BIT_SET(huart->AdvancedInit.AdvFeatureInit, UART_ADVFEATURE_DMADISABLEONERROR_INIT))
 8001102:	687b      	ldr	r3, [r7, #4]
 8001104:	6a5b      	ldr	r3, [r3, #36]	; 0x24
 8001106:	2220      	movs	r2, #32
 8001108:	4013      	ands	r3, r2
 800110a:	d00b      	beq.n	8001124 <UART_AdvFeatureConfig+0xd4>
  {
    assert_param(IS_UART_ADVFEATURE_DMAONRXERROR(huart->AdvancedInit.DMADisableonRxError));
    MODIFY_REG(huart->Instance->CR3, USART_CR3_DDRE, huart->AdvancedInit.DMADisableonRxError);
 800110c:	687b      	ldr	r3, [r7, #4]
 800110e:	681b      	ldr	r3, [r3, #0]
 8001110:	689b      	ldr	r3, [r3, #8]
 8001112:	4a25      	ldr	r2, [pc, #148]	; (80011a8 <UART_AdvFeatureConfig+0x158>)
 8001114:	4013      	ands	r3, r2
 8001116:	0019      	movs	r1, r3
 8001118:	687b      	ldr	r3, [r7, #4]
 800111a:	6bda      	ldr	r2, [r3, #60]	; 0x3c
 800111c:	687b      	ldr	r3, [r7, #4]
 800111e:	681b      	ldr	r3, [r3, #0]
 8001120:	430a      	orrs	r2, r1
 8001122:	609a      	str	r2, [r3, #8]
  }

  /* if required, configure auto Baud rate detection scheme */
  if (HAL_IS_BIT_SET(huart->AdvancedInit.AdvFeatureInit, UART_ADVFEATURE_AUTOBAUDRATE_INIT))
 8001124:	687b      	ldr	r3, [r7, #4]
 8001126:	6a5b      	ldr	r3, [r3, #36]	; 0x24
 8001128:	2240      	movs	r2, #64	; 0x40
 800112a:	4013      	ands	r3, r2
 800112c:	d01d      	beq.n	800116a <UART_AdvFeatureConfig+0x11a>
  {
    assert_param(IS_USART_AUTOBAUDRATE_DETECTION_INSTANCE(huart->Instance));
    assert_param(IS_UART_ADVFEATURE_AUTOBAUDRATE(huart->AdvancedInit.AutoBaudRateEnable));
    MODIFY_REG(huart->Instance->CR2, USART_CR2_ABREN, huart->AdvancedInit.AutoBaudRateEnable);
 800112e:	687b      	ldr	r3, [r7, #4]
 8001130:	681b      	ldr	r3, [r3, #0]
 8001132:	685b      	ldr	r3, [r3, #4]
 8001134:	4a1d      	ldr	r2, [pc, #116]	; (80011ac <UART_AdvFeatureConfig+0x15c>)
 8001136:	4013      	ands	r3, r2
 8001138:	0019      	movs	r1, r3
 800113a:	687b      	ldr	r3, [r7, #4]
 800113c:	6c1a      	ldr	r2, [r3, #64]	; 0x40
 800113e:	687b      	ldr	r3, [r7, #4]
 8001140:	681b      	ldr	r3, [r3, #0]
 8001142:	430a      	orrs	r2, r1
 8001144:	605a      	str	r2, [r3, #4]
    /* set auto Baudrate detection parameters if detection is enabled */
    if (huart->AdvancedInit.AutoBaudRateEnable == UART_ADVFEATURE_AUTOBAUDRATE_ENABLE)
 8001146:	687b      	ldr	r3, [r7, #4]
 8001148:	6c1a      	ldr	r2, [r3, #64]	; 0x40
 800114a:	2380      	movs	r3, #128	; 0x80
 800114c:	035b      	lsls	r3, r3, #13
 800114e:	429a      	cmp	r2, r3
 8001150:	d10b      	bne.n	800116a <UART_AdvFeatureConfig+0x11a>
    {
      assert_param(IS_UART_ADVFEATURE_AUTOBAUDRATEMODE(huart->AdvancedInit.AutoBaudRateMode));
      MODIFY_REG(huart->Instance->CR2, USART_CR2_ABRMODE, huart->AdvancedInit.AutoBaudRateMode);
 8001152:	687b      	ldr	r3, [r7, #4]
 8001154:	681b      	ldr	r3, [r3, #0]
 8001156:	685b      	ldr	r3, [r3, #4]
 8001158:	4a15      	ldr	r2, [pc, #84]	; (80011b0 <UART_AdvFeatureConfig+0x160>)
 800115a:	4013      	ands	r3, r2
 800115c:	0019      	movs	r1, r3
 800115e:	687b      	ldr	r3, [r7, #4]
 8001160:	6c5a      	ldr	r2, [r3, #68]	; 0x44
 8001162:	687b      	ldr	r3, [r7, #4]
 8001164:	681b      	ldr	r3, [r3, #0]
 8001166:	430a      	orrs	r2, r1
 8001168:	605a      	str	r2, [r3, #4]
    }
  }

  /* if required, configure MSB first on communication line */
  if (HAL_IS_BIT_SET(huart->AdvancedInit.AdvFeatureInit, UART_ADVFEATURE_MSBFIRST_INIT))
 800116a:	687b      	ldr	r3, [r7, #4]
 800116c:	6a5b      	ldr	r3, [r3, #36]	; 0x24
 800116e:	2280      	movs	r2, #128	; 0x80
 8001170:	4013      	ands	r3, r2
 8001172:	d00b      	beq.n	800118c <UART_AdvFeatureConfig+0x13c>
  {
    assert_param(IS_UART_ADVFEATURE_MSBFIRST(huart->AdvancedInit.MSBFirst));
    MODIFY_REG(huart->Instance->CR2, USART_CR2_MSBFIRST, huart->AdvancedInit.MSBFirst);
 8001174:	687b      	ldr	r3, [r7, #4]
 8001176:	681b      	ldr	r3, [r3, #0]
 8001178:	685b      	ldr	r3, [r3, #4]
 800117a:	4a0e      	ldr	r2, [pc, #56]	; (80011b4 <UART_AdvFeatureConfig+0x164>)
 800117c:	4013      	ands	r3, r2
 800117e:	0019      	movs	r1, r3
 8001180:	687b      	ldr	r3, [r7, #4]
 8001182:	6c9a      	ldr	r2, [r3, #72]	; 0x48
 8001184:	687b      	ldr	r3, [r7, #4]
 8001186:	681b      	ldr	r3, [r3, #0]
 8001188:	430a      	orrs	r2, r1
 800118a:	605a      	str	r2, [r3, #4]
  }
}
 800118c:	46c0      	nop			; (mov r8, r8)
 800118e:	46bd      	mov	sp, r7
 8001190:	b002      	add	sp, #8
 8001192:	bd80      	pop	{r7, pc}
 8001194:	fffdffff 	.word	0xfffdffff
 8001198:	fffeffff 	.word	0xfffeffff
 800119c:	fffbffff 	.word	0xfffbffff
 80011a0:	ffff7fff 	.word	0xffff7fff
 80011a4:	ffffefff 	.word	0xffffefff
 80011a8:	ffffdfff 	.word	0xffffdfff
 80011ac:	ffefffff 	.word	0xffefffff
 80011b0:	ff9fffff 	.word	0xff9fffff
 80011b4:	fff7ffff 	.word	0xfff7ffff

080011b8 <UART_CheckIdleState>:
  * @brief Check the UART Idle State.
  * @param huart UART handle.
  * @retval HAL status
  */
HAL_StatusTypeDef UART_CheckIdleState(UART_HandleTypeDef *huart)
{
 80011b8:	b580      	push	{r7, lr}
 80011ba:	b086      	sub	sp, #24
 80011bc:	af02      	add	r7, sp, #8
 80011be:	6078      	str	r0, [r7, #4]
  uint32_t tickstart;

  /* Initialize the UART ErrorCode */
  huart->ErrorCode = HAL_UART_ERROR_NONE;
 80011c0:	687b      	ldr	r3, [r7, #4]
 80011c2:	2200      	movs	r2, #0
 80011c4:	67da      	str	r2, [r3, #124]	; 0x7c

  /* Init tickstart for timeout managment*/
  tickstart = HAL_GetTick();
 80011c6:	f7ff fa5d 	bl	8000684 <HAL_GetTick>
 80011ca:	0003      	movs	r3, r0
 80011cc:	60fb      	str	r3, [r7, #12]

  /* Check if the Transmitter is enabled */
  if ((huart->Instance->CR1 & USART_CR1_TE) == USART_CR1_TE)
 80011ce:	687b      	ldr	r3, [r7, #4]
 80011d0:	681b      	ldr	r3, [r3, #0]
 80011d2:	681b      	ldr	r3, [r3, #0]
 80011d4:	2208      	movs	r2, #8
 80011d6:	4013      	ands	r3, r2
 80011d8:	2b08      	cmp	r3, #8
 80011da:	d10d      	bne.n	80011f8 <UART_CheckIdleState+0x40>
  {
    /* Wait until TEACK flag is set */
    if (UART_WaitOnFlagUntilTimeout(huart, USART_ISR_TEACK, RESET, tickstart, HAL_UART_TIMEOUT_VALUE) != HAL_OK)
 80011dc:	68fa      	ldr	r2, [r7, #12]
 80011de:	2380      	movs	r3, #128	; 0x80
 80011e0:	0399      	lsls	r1, r3, #14
 80011e2:	6878      	ldr	r0, [r7, #4]
 80011e4:	4b16      	ldr	r3, [pc, #88]	; (8001240 <UART_CheckIdleState+0x88>)
 80011e6:	9300      	str	r3, [sp, #0]
 80011e8:	0013      	movs	r3, r2
 80011ea:	2200      	movs	r2, #0
 80011ec:	f000 f82a 	bl	8001244 <UART_WaitOnFlagUntilTimeout>
 80011f0:	1e03      	subs	r3, r0, #0
 80011f2:	d001      	beq.n	80011f8 <UART_CheckIdleState+0x40>
    {
      /* Timeout occurred */
      return HAL_TIMEOUT;
 80011f4:	2303      	movs	r3, #3
 80011f6:	e01f      	b.n	8001238 <UART_CheckIdleState+0x80>
    }
  }

  /* Check if the Receiver is enabled */
  if ((huart->Instance->CR1 & USART_CR1_RE) == USART_CR1_RE)
 80011f8:	687b      	ldr	r3, [r7, #4]
 80011fa:	681b      	ldr	r3, [r3, #0]
 80011fc:	681b      	ldr	r3, [r3, #0]
 80011fe:	2204      	movs	r2, #4
 8001200:	4013      	ands	r3, r2
 8001202:	2b04      	cmp	r3, #4
 8001204:	d10d      	bne.n	8001222 <UART_CheckIdleState+0x6a>
  {
    /* Wait until REACK flag is set */
    if (UART_WaitOnFlagUntilTimeout(huart, USART_ISR_REACK, RESET, tickstart, HAL_UART_TIMEOUT_VALUE) != HAL_OK)
 8001206:	68fa      	ldr	r2, [r7, #12]
 8001208:	2380      	movs	r3, #128	; 0x80
 800120a:	03d9      	lsls	r1, r3, #15
 800120c:	6878      	ldr	r0, [r7, #4]
 800120e:	4b0c      	ldr	r3, [pc, #48]	; (8001240 <UART_CheckIdleState+0x88>)
 8001210:	9300      	str	r3, [sp, #0]
 8001212:	0013      	movs	r3, r2
 8001214:	2200      	movs	r2, #0
 8001216:	f000 f815 	bl	8001244 <UART_WaitOnFlagUntilTimeout>
 800121a:	1e03      	subs	r3, r0, #0
 800121c:	d001      	beq.n	8001222 <UART_CheckIdleState+0x6a>
    {
      /* Timeout occurred */
      return HAL_TIMEOUT;
 800121e:	2303      	movs	r3, #3
 8001220:	e00a      	b.n	8001238 <UART_CheckIdleState+0x80>
    }
  }

  /* Initialize the UART State */
  huart->gState = HAL_UART_STATE_READY;
 8001222:	687b      	ldr	r3, [r7, #4]
 8001224:	2220      	movs	r2, #32
 8001226:	675a      	str	r2, [r3, #116]	; 0x74
  huart->RxState = HAL_UART_STATE_READY;
 8001228:	687b      	ldr	r3, [r7, #4]
 800122a:	2220      	movs	r2, #32
 800122c:	679a      	str	r2, [r3, #120]	; 0x78

  __HAL_UNLOCK(huart);
 800122e:	687b      	ldr	r3, [r7, #4]
 8001230:	2270      	movs	r2, #112	; 0x70
 8001232:	2100      	movs	r1, #0
 8001234:	5499      	strb	r1, [r3, r2]

  return HAL_OK;
 8001236:	2300      	movs	r3, #0
}
 8001238:	0018      	movs	r0, r3
 800123a:	46bd      	mov	sp, r7
 800123c:	b004      	add	sp, #16
 800123e:	bd80      	pop	{r7, pc}
 8001240:	01ffffff 	.word	0x01ffffff

08001244 <UART_WaitOnFlagUntilTimeout>:
  * @param Timeout   Timeout duration
  * @retval HAL status
  */
HAL_StatusTypeDef UART_WaitOnFlagUntilTimeout(UART_HandleTypeDef *huart, uint32_t Flag, FlagStatus Status,
                                              uint32_t Tickstart, uint32_t Timeout)
{
 8001244:	b580      	push	{r7, lr}
 8001246:	b084      	sub	sp, #16
 8001248:	af00      	add	r7, sp, #0
 800124a:	60f8      	str	r0, [r7, #12]
 800124c:	60b9      	str	r1, [r7, #8]
 800124e:	603b      	str	r3, [r7, #0]
 8001250:	1dfb      	adds	r3, r7, #7
 8001252:	701a      	strb	r2, [r3, #0]
  /* Wait until flag is set */
  while ((__HAL_UART_GET_FLAG(huart, Flag) ? SET : RESET) == Status)
 8001254:	e05d      	b.n	8001312 <UART_WaitOnFlagUntilTimeout+0xce>
  {
    /* Check for the Timeout */
    if (Timeout != HAL_MAX_DELAY)
 8001256:	69bb      	ldr	r3, [r7, #24]
 8001258:	3301      	adds	r3, #1
 800125a:	d05a      	beq.n	8001312 <UART_WaitOnFlagUntilTimeout+0xce>
    {
      if (((HAL_GetTick() - Tickstart) > Timeout) || (Timeout == 0U))
 800125c:	f7ff fa12 	bl	8000684 <HAL_GetTick>
 8001260:	0002      	movs	r2, r0
 8001262:	683b      	ldr	r3, [r7, #0]
 8001264:	1ad3      	subs	r3, r2, r3
 8001266:	69ba      	ldr	r2, [r7, #24]
 8001268:	429a      	cmp	r2, r3
 800126a:	d302      	bcc.n	8001272 <UART_WaitOnFlagUntilTimeout+0x2e>
 800126c:	69bb      	ldr	r3, [r7, #24]
 800126e:	2b00      	cmp	r3, #0
 8001270:	d11b      	bne.n	80012aa <UART_WaitOnFlagUntilTimeout+0x66>
      {
        /* Disable TXE, RXNE, PE and ERR (Frame error, noise error, overrun error) interrupts for the interrupt process */
        CLEAR_BIT(huart->Instance->CR1, (USART_CR1_RXNEIE | USART_CR1_PEIE | USART_CR1_TXEIE));
 8001272:	68fb      	ldr	r3, [r7, #12]
 8001274:	681b      	ldr	r3, [r3, #0]
 8001276:	681a      	ldr	r2, [r3, #0]
 8001278:	68fb      	ldr	r3, [r7, #12]
 800127a:	681b      	ldr	r3, [r3, #0]
 800127c:	492f      	ldr	r1, [pc, #188]	; (800133c <UART_WaitOnFlagUntilTimeout+0xf8>)
 800127e:	400a      	ands	r2, r1
 8001280:	601a      	str	r2, [r3, #0]
        CLEAR_BIT(huart->Instance->CR3, USART_CR3_EIE);
 8001282:	68fb      	ldr	r3, [r7, #12]
 8001284:	681b      	ldr	r3, [r3, #0]
 8001286:	689a      	ldr	r2, [r3, #8]
 8001288:	68fb      	ldr	r3, [r7, #12]
 800128a:	681b      	ldr	r3, [r3, #0]
 800128c:	2101      	movs	r1, #1
 800128e:	438a      	bics	r2, r1
 8001290:	609a      	str	r2, [r3, #8]

        huart->gState = HAL_UART_STATE_READY;
 8001292:	68fb      	ldr	r3, [r7, #12]
 8001294:	2220      	movs	r2, #32
 8001296:	675a      	str	r2, [r3, #116]	; 0x74
        huart->RxState = HAL_UART_STATE_READY;
 8001298:	68fb      	ldr	r3, [r7, #12]
 800129a:	2220      	movs	r2, #32
 800129c:	679a      	str	r2, [r3, #120]	; 0x78

        __HAL_UNLOCK(huart);
 800129e:	68fb      	ldr	r3, [r7, #12]
 80012a0:	2270      	movs	r2, #112	; 0x70
 80012a2:	2100      	movs	r1, #0
 80012a4:	5499      	strb	r1, [r3, r2]

        return HAL_TIMEOUT;
 80012a6:	2303      	movs	r3, #3
 80012a8:	e043      	b.n	8001332 <UART_WaitOnFlagUntilTimeout+0xee>
      }

      if (READ_BIT(huart->Instance->CR1, USART_CR1_RE) != 0U)
 80012aa:	68fb      	ldr	r3, [r7, #12]
 80012ac:	681b      	ldr	r3, [r3, #0]
 80012ae:	681b      	ldr	r3, [r3, #0]
 80012b0:	2204      	movs	r2, #4
 80012b2:	4013      	ands	r3, r2
 80012b4:	d02d      	beq.n	8001312 <UART_WaitOnFlagUntilTimeout+0xce>
      {
        if (__HAL_UART_GET_FLAG(huart, UART_FLAG_RTOF) == SET)
 80012b6:	68fb      	ldr	r3, [r7, #12]
 80012b8:	681b      	ldr	r3, [r3, #0]
 80012ba:	69da      	ldr	r2, [r3, #28]
 80012bc:	2380      	movs	r3, #128	; 0x80
 80012be:	011b      	lsls	r3, r3, #4
 80012c0:	401a      	ands	r2, r3
 80012c2:	2380      	movs	r3, #128	; 0x80
 80012c4:	011b      	lsls	r3, r3, #4
 80012c6:	429a      	cmp	r2, r3
 80012c8:	d123      	bne.n	8001312 <UART_WaitOnFlagUntilTimeout+0xce>
        {
          /* Clear Receiver Timeout flag*/
          __HAL_UART_CLEAR_FLAG(huart, UART_CLEAR_RTOF);
 80012ca:	68fb      	ldr	r3, [r7, #12]
 80012cc:	681b      	ldr	r3, [r3, #0]
 80012ce:	2280      	movs	r2, #128	; 0x80
 80012d0:	0112      	lsls	r2, r2, #4
 80012d2:	621a      	str	r2, [r3, #32]
          
          /* Disable TXE, RXNE, PE and ERR (Frame error, noise error, overrun error) interrupts for the interrupt process */
          CLEAR_BIT(huart->Instance->CR1, (USART_CR1_RXNEIE | USART_CR1_PEIE | USART_CR1_TXEIE));
 80012d4:	68fb      	ldr	r3, [r7, #12]
 80012d6:	681b      	ldr	r3, [r3, #0]
 80012d8:	681a      	ldr	r2, [r3, #0]
 80012da:	68fb      	ldr	r3, [r7, #12]
 80012dc:	681b      	ldr	r3, [r3, #0]
 80012de:	4917      	ldr	r1, [pc, #92]	; (800133c <UART_WaitOnFlagUntilTimeout+0xf8>)
 80012e0:	400a      	ands	r2, r1
 80012e2:	601a      	str	r2, [r3, #0]
          CLEAR_BIT(huart->Instance->CR3, USART_CR3_EIE);
 80012e4:	68fb      	ldr	r3, [r7, #12]
 80012e6:	681b      	ldr	r3, [r3, #0]
 80012e8:	689a      	ldr	r2, [r3, #8]
 80012ea:	68fb      	ldr	r3, [r7, #12]
 80012ec:	681b      	ldr	r3, [r3, #0]
 80012ee:	2101      	movs	r1, #1
 80012f0:	438a      	bics	r2, r1
 80012f2:	609a      	str	r2, [r3, #8]

          huart->gState = HAL_UART_STATE_READY;
 80012f4:	68fb      	ldr	r3, [r7, #12]
 80012f6:	2220      	movs	r2, #32
 80012f8:	675a      	str	r2, [r3, #116]	; 0x74
          huart->RxState = HAL_UART_STATE_READY;
 80012fa:	68fb      	ldr	r3, [r7, #12]
 80012fc:	2220      	movs	r2, #32
 80012fe:	679a      	str	r2, [r3, #120]	; 0x78
          huart->ErrorCode = HAL_UART_ERROR_RTO;
 8001300:	68fb      	ldr	r3, [r7, #12]
 8001302:	2220      	movs	r2, #32
 8001304:	67da      	str	r2, [r3, #124]	; 0x7c
          
          /* Process Unlocked */
          __HAL_UNLOCK(huart);
 8001306:	68fb      	ldr	r3, [r7, #12]
 8001308:	2270      	movs	r2, #112	; 0x70
 800130a:	2100      	movs	r1, #0
 800130c:	5499      	strb	r1, [r3, r2]
          
          return HAL_TIMEOUT;
 800130e:	2303      	movs	r3, #3
 8001310:	e00f      	b.n	8001332 <UART_WaitOnFlagUntilTimeout+0xee>
  while ((__HAL_UART_GET_FLAG(huart, Flag) ? SET : RESET) == Status)
 8001312:	68fb      	ldr	r3, [r7, #12]
 8001314:	681b      	ldr	r3, [r3, #0]
 8001316:	69db      	ldr	r3, [r3, #28]
 8001318:	68ba      	ldr	r2, [r7, #8]
 800131a:	4013      	ands	r3, r2
 800131c:	68ba      	ldr	r2, [r7, #8]
 800131e:	1ad3      	subs	r3, r2, r3
 8001320:	425a      	negs	r2, r3
 8001322:	4153      	adcs	r3, r2
 8001324:	b2db      	uxtb	r3, r3
 8001326:	001a      	movs	r2, r3
 8001328:	1dfb      	adds	r3, r7, #7
 800132a:	781b      	ldrb	r3, [r3, #0]
 800132c:	429a      	cmp	r2, r3
 800132e:	d092      	beq.n	8001256 <UART_WaitOnFlagUntilTimeout+0x12>
        }
      }
    }
  }
  return HAL_OK;
 8001330:	2300      	movs	r3, #0
}
 8001332:	0018      	movs	r0, r3
 8001334:	46bd      	mov	sp, r7
 8001336:	b004      	add	sp, #16
 8001338:	bd80      	pop	{r7, pc}
 800133a:	46c0      	nop			; (mov r8, r8)
 800133c:	fffffe5f 	.word	0xfffffe5f

08001340 <AES_keyschedule_enc_LL>:
 8001340:	b5f0      	push	{r4, r5, r6, r7, lr}
 8001342:	4644      	mov	r4, r8
 8001344:	465f      	mov	r7, fp
 8001346:	4656      	mov	r6, sl
 8001348:	464d      	mov	r5, r9
 800134a:	b4f0      	push	{r4, r5, r6, r7}
 800134c:	1092      	asrs	r2, r2, #2
 800134e:	b085      	sub	sp, #20
 8001350:	0094      	lsls	r4, r2, #2
 8001352:	2300      	movs	r3, #0
 8001354:	2a00      	cmp	r2, #0
 8001356:	dd04      	ble.n	8001362 <AES_keyschedule_enc_LL+0x22>
 8001358:	58c5      	ldr	r5, [r0, r3]
 800135a:	50cd      	str	r5, [r1, r3]
 800135c:	3304      	adds	r3, #4
 800135e:	42a3      	cmp	r3, r4
 8001360:	d1fa      	bne.n	8001358 <AES_keyschedule_enc_LL+0x18>
 8001362:	2a06      	cmp	r2, #6
 8001364:	d00b      	beq.n	800137e <AES_keyschedule_enc_LL+0x3e>
 8001366:	2a08      	cmp	r2, #8
 8001368:	d100      	bne.n	800136c <AES_keyschedule_enc_LL+0x2c>
 800136a:	e07f      	b.n	800146c <AES_keyschedule_enc_LL+0x12c>
 800136c:	2a04      	cmp	r2, #4
 800136e:	d044      	beq.n	80013fa <AES_keyschedule_enc_LL+0xba>
 8001370:	b005      	add	sp, #20
 8001372:	bc3c      	pop	{r2, r3, r4, r5}
 8001374:	4690      	mov	r8, r2
 8001376:	4699      	mov	r9, r3
 8001378:	46a2      	mov	sl, r4
 800137a:	46ab      	mov	fp, r5
 800137c:	bdf0      	pop	{r4, r5, r6, r7, pc}
 800137e:	68ca      	ldr	r2, [r1, #12]
 8001380:	4f68      	ldr	r7, [pc, #416]	; (8001524 <AES_keyschedule_enc_LL+0x1e4>)
 8001382:	20a8      	movs	r0, #168	; 0xa8
 8001384:	1840      	adds	r0, r0, r1
 8001386:	23ff      	movs	r3, #255	; 0xff
 8001388:	9202      	str	r2, [sp, #8]
 800138a:	46b8      	mov	r8, r7
 800138c:	4681      	mov	r9, r0
 800138e:	684c      	ldr	r4, [r1, #4]
 8001390:	688d      	ldr	r5, [r1, #8]
 8001392:	680e      	ldr	r6, [r1, #0]
 8001394:	4a64      	ldr	r2, [pc, #400]	; (8001528 <AES_keyschedule_enc_LL+0x1e8>)
 8001396:	469c      	mov	ip, r3
 8001398:	e006      	b.n	80013a8 <AES_keyschedule_enc_LL+0x68>
 800139a:	690f      	ldr	r7, [r1, #16]
 800139c:	9002      	str	r0, [sp, #8]
 800139e:	4047      	eors	r7, r0
 80013a0:	407b      	eors	r3, r7
 80013a2:	628f      	str	r7, [r1, #40]	; 0x28
 80013a4:	62cb      	str	r3, [r1, #44]	; 0x2c
 80013a6:	3118      	adds	r1, #24
 80013a8:	4640      	mov	r0, r8
 80013aa:	3004      	adds	r0, #4
 80013ac:	4680      	mov	r8, r0
 80013ae:	3804      	subs	r0, #4
 80013b0:	c880      	ldmia	r0!, {r7}
 80013b2:	694b      	ldr	r3, [r1, #20]
 80013b4:	4077      	eors	r7, r6
 80013b6:	46bb      	mov	fp, r7
 80013b8:	4667      	mov	r7, ip
 80013ba:	401f      	ands	r7, r3
 80013bc:	5dd7      	ldrb	r7, [r2, r7]
 80013be:	4666      	mov	r6, ip
 80013c0:	023f      	lsls	r7, r7, #8
 80013c2:	46ba      	mov	sl, r7
 80013c4:	0e1f      	lsrs	r7, r3, #24
 80013c6:	5dd7      	ldrb	r7, [r2, r7]
 80013c8:	4650      	mov	r0, sl
 80013ca:	4338      	orrs	r0, r7
 80013cc:	0c1f      	lsrs	r7, r3, #16
 80013ce:	4037      	ands	r7, r6
 80013d0:	5dd7      	ldrb	r7, [r2, r7]
 80013d2:	063f      	lsls	r7, r7, #24
 80013d4:	4338      	orrs	r0, r7
 80013d6:	0a1f      	lsrs	r7, r3, #8
 80013d8:	4037      	ands	r7, r6
 80013da:	5dd7      	ldrb	r7, [r2, r7]
 80013dc:	465e      	mov	r6, fp
 80013de:	043f      	lsls	r7, r7, #16
 80013e0:	4307      	orrs	r7, r0
 80013e2:	407e      	eors	r6, r7
 80013e4:	4074      	eors	r4, r6
 80013e6:	9802      	ldr	r0, [sp, #8]
 80013e8:	4065      	eors	r5, r4
 80013ea:	4068      	eors	r0, r5
 80013ec:	618e      	str	r6, [r1, #24]
 80013ee:	61cc      	str	r4, [r1, #28]
 80013f0:	620d      	str	r5, [r1, #32]
 80013f2:	6248      	str	r0, [r1, #36]	; 0x24
 80013f4:	4549      	cmp	r1, r9
 80013f6:	d1d0      	bne.n	800139a <AES_keyschedule_enc_LL+0x5a>
 80013f8:	e7ba      	b.n	8001370 <AES_keyschedule_enc_LL+0x30>
 80013fa:	684f      	ldr	r7, [r1, #4]
 80013fc:	4c49      	ldr	r4, [pc, #292]	; (8001524 <AES_keyschedule_enc_LL+0x1e4>)
 80013fe:	680e      	ldr	r6, [r1, #0]
 8001400:	46bb      	mov	fp, r7
 8001402:	46a4      	mov	ip, r4
 8001404:	46b2      	mov	sl, r6
 8001406:	68cb      	ldr	r3, [r1, #12]
 8001408:	688f      	ldr	r7, [r1, #8]
 800140a:	2000      	movs	r0, #0
 800140c:	4a46      	ldr	r2, [pc, #280]	; (8001528 <AES_keyschedule_enc_LL+0x1e8>)
 800140e:	24ff      	movs	r4, #255	; 0xff
 8001410:	e003      	b.n	800141a <AES_keyschedule_enc_LL+0xda>
 8001412:	3110      	adds	r1, #16
 8001414:	3004      	adds	r0, #4
 8001416:	46b3      	mov	fp, r6
 8001418:	46aa      	mov	sl, r5
 800141a:	1c25      	adds	r5, r4, #0
 800141c:	401d      	ands	r5, r3
 800141e:	5d56      	ldrb	r6, [r2, r5]
 8001420:	0e1d      	lsrs	r5, r3, #24
 8001422:	0236      	lsls	r6, r6, #8
 8001424:	46b1      	mov	r9, r6
 8001426:	5d56      	ldrb	r6, [r2, r5]
 8001428:	464d      	mov	r5, r9
 800142a:	4335      	orrs	r5, r6
 800142c:	0c1e      	lsrs	r6, r3, #16
 800142e:	4026      	ands	r6, r4
 8001430:	46a9      	mov	r9, r5
 8001432:	5d95      	ldrb	r5, [r2, r6]
 8001434:	464e      	mov	r6, r9
 8001436:	062d      	lsls	r5, r5, #24
 8001438:	432e      	orrs	r6, r5
 800143a:	0a1d      	lsrs	r5, r3, #8
 800143c:	4025      	ands	r5, r4
 800143e:	46b1      	mov	r9, r6
 8001440:	5d56      	ldrb	r6, [r2, r5]
 8001442:	464d      	mov	r5, r9
 8001444:	0436      	lsls	r6, r6, #16
 8001446:	4335      	orrs	r5, r6
 8001448:	46a8      	mov	r8, r5
 800144a:	4646      	mov	r6, r8
 800144c:	4655      	mov	r5, sl
 800144e:	4075      	eors	r5, r6
 8001450:	4666      	mov	r6, ip
 8001452:	5836      	ldr	r6, [r6, r0]
 8001454:	4075      	eors	r5, r6
 8001456:	465e      	mov	r6, fp
 8001458:	406e      	eors	r6, r5
 800145a:	4077      	eors	r7, r6
 800145c:	407b      	eors	r3, r7
 800145e:	610d      	str	r5, [r1, #16]
 8001460:	614e      	str	r6, [r1, #20]
 8001462:	618f      	str	r7, [r1, #24]
 8001464:	61cb      	str	r3, [r1, #28]
 8001466:	2824      	cmp	r0, #36	; 0x24
 8001468:	d1d3      	bne.n	8001412 <AES_keyschedule_enc_LL+0xd2>
 800146a:	e781      	b.n	8001370 <AES_keyschedule_enc_LL+0x30>
 800146c:	4f2d      	ldr	r7, [pc, #180]	; (8001524 <AES_keyschedule_enc_LL+0x1e4>)
 800146e:	68ca      	ldr	r2, [r1, #12]
 8001470:	688b      	ldr	r3, [r1, #8]
 8001472:	20c0      	movs	r0, #192	; 0xc0
 8001474:	1840      	adds	r0, r0, r1
 8001476:	46bc      	mov	ip, r7
 8001478:	9201      	str	r2, [sp, #4]
 800147a:	9302      	str	r3, [sp, #8]
 800147c:	4680      	mov	r8, r0
 800147e:	684e      	ldr	r6, [r1, #4]
 8001480:	680f      	ldr	r7, [r1, #0]
 8001482:	4a29      	ldr	r2, [pc, #164]	; (8001528 <AES_keyschedule_enc_LL+0x1e8>)
 8001484:	23ff      	movs	r3, #255	; 0xff
 8001486:	e024      	b.n	80014d2 <AES_keyschedule_enc_LL+0x192>
 8001488:	0e06      	lsrs	r6, r0, #24
 800148a:	5d95      	ldrb	r5, [r2, r6]
 800148c:	1c1e      	adds	r6, r3, #0
 800148e:	062d      	lsls	r5, r5, #24
 8001490:	4006      	ands	r6, r0
 8001492:	46aa      	mov	sl, r5
 8001494:	5d95      	ldrb	r5, [r2, r6]
 8001496:	4656      	mov	r6, sl
 8001498:	432e      	orrs	r6, r5
 800149a:	0c05      	lsrs	r5, r0, #16
 800149c:	401d      	ands	r5, r3
 800149e:	46b2      	mov	sl, r6
 80014a0:	5d56      	ldrb	r6, [r2, r5]
 80014a2:	4655      	mov	r5, sl
 80014a4:	0436      	lsls	r6, r6, #16
 80014a6:	4335      	orrs	r5, r6
 80014a8:	0a06      	lsrs	r6, r0, #8
 80014aa:	401e      	ands	r6, r3
 80014ac:	46aa      	mov	sl, r5
 80014ae:	5d95      	ldrb	r5, [r2, r6]
 80014b0:	4656      	mov	r6, sl
 80014b2:	022d      	lsls	r5, r5, #8
 80014b4:	432e      	orrs	r6, r5
 80014b6:	690d      	ldr	r5, [r1, #16]
 80014b8:	9001      	str	r0, [sp, #4]
 80014ba:	406e      	eors	r6, r5
 80014bc:	694d      	ldr	r5, [r1, #20]
 80014be:	630e      	str	r6, [r1, #48]	; 0x30
 80014c0:	406e      	eors	r6, r5
 80014c2:	698d      	ldr	r5, [r1, #24]
 80014c4:	634e      	str	r6, [r1, #52]	; 0x34
 80014c6:	406e      	eors	r6, r5
 80014c8:	4074      	eors	r4, r6
 80014ca:	638e      	str	r6, [r1, #56]	; 0x38
 80014cc:	63cc      	str	r4, [r1, #60]	; 0x3c
 80014ce:	465e      	mov	r6, fp
 80014d0:	3120      	adds	r1, #32
 80014d2:	4660      	mov	r0, ip
 80014d4:	3004      	adds	r0, #4
 80014d6:	4684      	mov	ip, r0
 80014d8:	3804      	subs	r0, #4
 80014da:	c820      	ldmia	r0!, {r5}
 80014dc:	69cc      	ldr	r4, [r1, #28]
 80014de:	407d      	eors	r5, r7
 80014e0:	1c1f      	adds	r7, r3, #0
 80014e2:	4027      	ands	r7, r4
 80014e4:	5dd7      	ldrb	r7, [r2, r7]
 80014e6:	023f      	lsls	r7, r7, #8
 80014e8:	46ba      	mov	sl, r7
 80014ea:	0e27      	lsrs	r7, r4, #24
 80014ec:	5dd7      	ldrb	r7, [r2, r7]
 80014ee:	4650      	mov	r0, sl
 80014f0:	4338      	orrs	r0, r7
 80014f2:	0c27      	lsrs	r7, r4, #16
 80014f4:	401f      	ands	r7, r3
 80014f6:	5dd7      	ldrb	r7, [r2, r7]
 80014f8:	063f      	lsls	r7, r7, #24
 80014fa:	4338      	orrs	r0, r7
 80014fc:	0a27      	lsrs	r7, r4, #8
 80014fe:	401f      	ands	r7, r3
 8001500:	5dd7      	ldrb	r7, [r2, r7]
 8001502:	043f      	lsls	r7, r7, #16
 8001504:	4307      	orrs	r7, r0
 8001506:	406f      	eors	r7, r5
 8001508:	9d02      	ldr	r5, [sp, #8]
 800150a:	407e      	eors	r6, r7
 800150c:	9801      	ldr	r0, [sp, #4]
 800150e:	4075      	eors	r5, r6
 8001510:	4068      	eors	r0, r5
 8001512:	620f      	str	r7, [r1, #32]
 8001514:	46b3      	mov	fp, r6
 8001516:	624e      	str	r6, [r1, #36]	; 0x24
 8001518:	9502      	str	r5, [sp, #8]
 800151a:	628d      	str	r5, [r1, #40]	; 0x28
 800151c:	62c8      	str	r0, [r1, #44]	; 0x2c
 800151e:	4541      	cmp	r1, r8
 8001520:	d1b2      	bne.n	8001488 <AES_keyschedule_enc_LL+0x148>
 8001522:	e725      	b.n	8001370 <AES_keyschedule_enc_LL+0x30>
 8001524:	0800702c 	.word	0x0800702c
 8001528:	0800773c 	.word	0x0800773c

0800152c <SHA512Transform>:
 800152c:	b5f0      	push	{r4, r5, r6, r7, lr}
 800152e:	4644      	mov	r4, r8
 8001530:	465f      	mov	r7, fp
 8001532:	4656      	mov	r6, sl
 8001534:	464d      	mov	r5, r9
 8001536:	b4f0      	push	{r4, r5, r6, r7}
 8001538:	4ce5      	ldr	r4, [pc, #916]	; (80018d0 <SHA512Transform+0x3a4>)
 800153a:	2300      	movs	r3, #0
 800153c:	44a5      	add	sp, r4
 800153e:	1c0c      	adds	r4, r1, #0
 8001540:	9329      	str	r3, [sp, #164]	; 0xa4
 8001542:	9017      	str	r0, [sp, #92]	; 0x5c
 8001544:	1d0b      	adds	r3, r1, #4
 8001546:	aa2a      	add	r2, sp, #168	; 0xa8
 8001548:	3484      	adds	r4, #132	; 0x84
 800154a:	1f19      	subs	r1, r3, #4
 800154c:	681d      	ldr	r5, [r3, #0]
 800154e:	6809      	ldr	r1, [r1, #0]
 8001550:	ba28      	rev	r0, r5
 8001552:	ba09      	rev	r1, r1
 8001554:	3308      	adds	r3, #8
 8001556:	6010      	str	r0, [r2, #0]
 8001558:	6051      	str	r1, [r2, #4]
 800155a:	3208      	adds	r2, #8
 800155c:	42a3      	cmp	r3, r4
 800155e:	d1f4      	bne.n	800154a <SHA512Transform+0x1e>
 8001560:	9d48      	ldr	r5, [sp, #288]	; 0x120
 8001562:	9c49      	ldr	r4, [sp, #292]	; 0x124
 8001564:	2310      	movs	r3, #16
 8001566:	982a      	ldr	r0, [sp, #168]	; 0xa8
 8001568:	992b      	ldr	r1, [sp, #172]	; 0xac
 800156a:	ae3c      	add	r6, sp, #240	; 0xf0
 800156c:	9000      	str	r0, [sp, #0]
 800156e:	9101      	str	r1, [sp, #4]
 8001570:	469c      	mov	ip, r3
 8001572:	9846      	ldr	r0, [sp, #280]	; 0x118
 8001574:	9947      	ldr	r1, [sp, #284]	; 0x11c
 8001576:	46a8      	mov	r8, r5
 8001578:	9418      	str	r4, [sp, #96]	; 0x60
 800157a:	e006      	b.n	800158a <SHA512Transform+0x5e>
 800157c:	465d      	mov	r5, fp
 800157e:	9800      	ldr	r0, [sp, #0]
 8001580:	9901      	ldr	r1, [sp, #4]
 8001582:	4690      	mov	r8, r2
 8001584:	9318      	str	r3, [sp, #96]	; 0x60
 8001586:	9500      	str	r5, [sp, #0]
 8001588:	9701      	str	r7, [sp, #4]
 800158a:	00c5      	lsls	r5, r0, #3
 800158c:	0f4f      	lsrs	r7, r1, #29
 800158e:	432f      	orrs	r7, r5
 8001590:	46ba      	mov	sl, r7
 8001592:	0f47      	lsrs	r7, r0, #29
 8001594:	00cd      	lsls	r5, r1, #3
 8001596:	1c3c      	adds	r4, r7, #0
 8001598:	432c      	orrs	r4, r5
 800159a:	034d      	lsls	r5, r1, #13
 800159c:	46a9      	mov	r9, r5
 800159e:	464f      	mov	r7, r9
 80015a0:	0cc5      	lsrs	r5, r0, #19
 80015a2:	432f      	orrs	r7, r5
 80015a4:	0345      	lsls	r5, r0, #13
 80015a6:	46ab      	mov	fp, r5
 80015a8:	46b9      	mov	r9, r7
 80015aa:	0ccd      	lsrs	r5, r1, #19
 80015ac:	465f      	mov	r7, fp
 80015ae:	432f      	orrs	r7, r5
 80015b0:	46bb      	mov	fp, r7
 80015b2:	4655      	mov	r5, sl
 80015b4:	464f      	mov	r7, r9
 80015b6:	407d      	eors	r5, r7
 80015b8:	46a9      	mov	r9, r5
 80015ba:	068f      	lsls	r7, r1, #26
 80015bc:	465d      	mov	r5, fp
 80015be:	0980      	lsrs	r0, r0, #6
 80015c0:	4338      	orrs	r0, r7
 80015c2:	4065      	eors	r5, r4
 80015c4:	0989      	lsrs	r1, r1, #6
 80015c6:	464c      	mov	r4, r9
 80015c8:	4044      	eors	r4, r0
 80015ca:	404d      	eors	r5, r1
 80015cc:	1c33      	adds	r3, r6, #0
 80015ce:	9408      	str	r4, [sp, #32]
 80015d0:	9509      	str	r5, [sp, #36]	; 0x24
 80015d2:	3b40      	subs	r3, #64	; 0x40
 80015d4:	9c00      	ldr	r4, [sp, #0]
 80015d6:	9d01      	ldr	r5, [sp, #4]
 80015d8:	9808      	ldr	r0, [sp, #32]
 80015da:	9909      	ldr	r1, [sp, #36]	; 0x24
 80015dc:	1900      	adds	r0, r0, r4
 80015de:	4169      	adcs	r1, r5
 80015e0:	681a      	ldr	r2, [r3, #0]
 80015e2:	685b      	ldr	r3, [r3, #4]
 80015e4:	6834      	ldr	r4, [r6, #0]
 80015e6:	6875      	ldr	r5, [r6, #4]
 80015e8:	061f      	lsls	r7, r3, #24
 80015ea:	1900      	adds	r0, r0, r4
 80015ec:	4169      	adcs	r1, r5
 80015ee:	0a15      	lsrs	r5, r2, #8
 80015f0:	432f      	orrs	r7, r5
 80015f2:	46bb      	mov	fp, r7
 80015f4:	0a1d      	lsrs	r5, r3, #8
 80015f6:	0617      	lsls	r7, r2, #24
 80015f8:	432f      	orrs	r7, r5
 80015fa:	07dd      	lsls	r5, r3, #31
 80015fc:	46aa      	mov	sl, r5
 80015fe:	9700      	str	r7, [sp, #0]
 8001600:	0855      	lsrs	r5, r2, #1
 8001602:	4657      	mov	r7, sl
 8001604:	432f      	orrs	r7, r5
 8001606:	07d4      	lsls	r4, r2, #31
 8001608:	085d      	lsrs	r5, r3, #1
 800160a:	4325      	orrs	r5, r4
 800160c:	465c      	mov	r4, fp
 800160e:	407c      	eors	r4, r7
 8001610:	9f00      	ldr	r7, [sp, #0]
 8001612:	406f      	eors	r7, r5
 8001614:	46b9      	mov	r9, r7
 8001616:	09d5      	lsrs	r5, r2, #7
 8001618:	065f      	lsls	r7, r3, #25
 800161a:	433d      	orrs	r5, r7
 800161c:	406c      	eors	r4, r5
 800161e:	09df      	lsrs	r7, r3, #7
 8001620:	940a      	str	r4, [sp, #40]	; 0x28
 8001622:	464c      	mov	r4, r9
 8001624:	407c      	eors	r4, r7
 8001626:	940b      	str	r4, [sp, #44]	; 0x2c
 8001628:	9c0a      	ldr	r4, [sp, #40]	; 0x28
 800162a:	9d0b      	ldr	r5, [sp, #44]	; 0x2c
 800162c:	1824      	adds	r4, r4, r0
 800162e:	414d      	adcs	r5, r1
 8001630:	63b4      	str	r4, [r6, #56]	; 0x38
 8001632:	63f5      	str	r5, [r6, #60]	; 0x3c
 8001634:	1c31      	adds	r1, r6, #0
 8001636:	3938      	subs	r1, #56	; 0x38
 8001638:	684f      	ldr	r7, [r1, #4]
 800163a:	9400      	str	r4, [sp, #0]
 800163c:	9501      	str	r5, [sp, #4]
 800163e:	680d      	ldr	r5, [r1, #0]
 8001640:	9918      	ldr	r1, [sp, #96]	; 0x60
 8001642:	4644      	mov	r4, r8
 8001644:	46ab      	mov	fp, r5
 8001646:	0f48      	lsrs	r0, r1, #29
 8001648:	9d18      	ldr	r5, [sp, #96]	; 0x60
 800164a:	00e1      	lsls	r1, r4, #3
 800164c:	4308      	orrs	r0, r1
 800164e:	4682      	mov	sl, r0
 8001650:	00e9      	lsls	r1, r5, #3
 8001652:	0f60      	lsrs	r0, r4, #29
 8001654:	4308      	orrs	r0, r1
 8001656:	4681      	mov	r9, r0
 8001658:	09a1      	lsrs	r1, r4, #6
 800165a:	06a8      	lsls	r0, r5, #26
 800165c:	4301      	orrs	r1, r0
 800165e:	09a8      	lsrs	r0, r5, #6
 8001660:	4655      	mov	r5, sl
 8001662:	404d      	eors	r5, r1
 8001664:	9c18      	ldr	r4, [sp, #96]	; 0x60
 8001666:	4649      	mov	r1, r9
 8001668:	4048      	eors	r0, r1
 800166a:	4641      	mov	r1, r8
 800166c:	0cc9      	lsrs	r1, r1, #19
 800166e:	0364      	lsls	r4, r4, #13
 8001670:	430c      	orrs	r4, r1
 8001672:	46a1      	mov	r9, r4
 8001674:	4644      	mov	r4, r8
 8001676:	0364      	lsls	r4, r4, #13
 8001678:	9918      	ldr	r1, [sp, #96]	; 0x60
 800167a:	46a0      	mov	r8, r4
 800167c:	0ccc      	lsrs	r4, r1, #19
 800167e:	4641      	mov	r1, r8
 8001680:	430c      	orrs	r4, r1
 8001682:	4649      	mov	r1, r9
 8001684:	4069      	eors	r1, r5
 8001686:	4060      	eors	r0, r4
 8001688:	910c      	str	r1, [sp, #48]	; 0x30
 800168a:	900d      	str	r0, [sp, #52]	; 0x34
 800168c:	68b4      	ldr	r4, [r6, #8]
 800168e:	68f5      	ldr	r5, [r6, #12]
 8001690:	980c      	ldr	r0, [sp, #48]	; 0x30
 8001692:	990d      	ldr	r1, [sp, #52]	; 0x34
 8001694:	1900      	adds	r0, r0, r4
 8001696:	4169      	adcs	r1, r5
 8001698:	465d      	mov	r5, fp
 800169a:	1812      	adds	r2, r2, r0
 800169c:	414b      	adcs	r3, r1
 800169e:	0a29      	lsrs	r1, r5, #8
 80016a0:	0638      	lsls	r0, r7, #24
 80016a2:	4308      	orrs	r0, r1
 80016a4:	062c      	lsls	r4, r5, #24
 80016a6:	0a39      	lsrs	r1, r7, #8
 80016a8:	4680      	mov	r8, r0
 80016aa:	430c      	orrs	r4, r1
 80016ac:	0678      	lsls	r0, r7, #25
 80016ae:	09e9      	lsrs	r1, r5, #7
 80016b0:	4301      	orrs	r1, r0
 80016b2:	4645      	mov	r5, r8
 80016b4:	404d      	eors	r5, r1
 80016b6:	09f8      	lsrs	r0, r7, #7
 80016b8:	46a8      	mov	r8, r5
 80016ba:	465d      	mov	r5, fp
 80016bc:	4044      	eors	r4, r0
 80016be:	0869      	lsrs	r1, r5, #1
 80016c0:	07f8      	lsls	r0, r7, #31
 80016c2:	4301      	orrs	r1, r0
 80016c4:	07ed      	lsls	r5, r5, #31
 80016c6:	0878      	lsrs	r0, r7, #1
 80016c8:	4328      	orrs	r0, r5
 80016ca:	4645      	mov	r5, r8
 80016cc:	404d      	eors	r5, r1
 80016ce:	4044      	eors	r4, r0
 80016d0:	9502      	str	r5, [sp, #8]
 80016d2:	9403      	str	r4, [sp, #12]
 80016d4:	9c02      	ldr	r4, [sp, #8]
 80016d6:	9d03      	ldr	r5, [sp, #12]
 80016d8:	1912      	adds	r2, r2, r4
 80016da:	416b      	adcs	r3, r5
 80016dc:	2502      	movs	r5, #2
 80016de:	44ac      	add	ip, r5
 80016e0:	2050      	movs	r0, #80	; 0x50
 80016e2:	4664      	mov	r4, ip
 80016e4:	6432      	str	r2, [r6, #64]	; 0x40
 80016e6:	6473      	str	r3, [r6, #68]	; 0x44
 80016e8:	1b01      	subs	r1, r0, r4
 80016ea:	3610      	adds	r6, #16
 80016ec:	2c4e      	cmp	r4, #78	; 0x4e
 80016ee:	d000      	beq.n	80016f2 <SHA512Transform+0x1c6>
 80016f0:	e744      	b.n	800157c <SHA512Transform+0x50>
 80016f2:	1c0d      	adds	r5, r1, #0
 80016f4:	354e      	adds	r5, #78	; 0x4e
 80016f6:	00ed      	lsls	r5, r5, #3
 80016f8:	af26      	add	r7, sp, #152	; 0x98
 80016fa:	197f      	adds	r7, r7, r5
 80016fc:	acc2      	add	r4, sp, #776	; 0x308
 80016fe:	46bc      	mov	ip, r7
 8001700:	1c23      	adds	r3, r4, #0
 8001702:	6866      	ldr	r6, [r4, #4]
 8001704:	6820      	ldr	r0, [r4, #0]
 8001706:	3b68      	subs	r3, #104	; 0x68
 8001708:	1c22      	adds	r2, r4, #0
 800170a:	685d      	ldr	r5, [r3, #4]
 800170c:	681f      	ldr	r7, [r3, #0]
 800170e:	3a28      	subs	r2, #40	; 0x28
 8001710:	3b08      	subs	r3, #8
 8001712:	4680      	mov	r8, r0
 8001714:	6810      	ldr	r0, [r2, #0]
 8001716:	6851      	ldr	r1, [r2, #4]
 8001718:	681a      	ldr	r2, [r3, #0]
 800171a:	685b      	ldr	r3, [r3, #4]
 800171c:	1812      	adds	r2, r2, r0
 800171e:	414b      	adcs	r3, r1
 8001720:	0f71      	lsrs	r1, r6, #29
 8001722:	468a      	mov	sl, r1
 8001724:	4640      	mov	r0, r8
 8001726:	00c1      	lsls	r1, r0, #3
 8001728:	4650      	mov	r0, sl
 800172a:	4308      	orrs	r0, r1
 800172c:	4641      	mov	r1, r8
 800172e:	4682      	mov	sl, r0
 8001730:	0f48      	lsrs	r0, r1, #29
 8001732:	00f1      	lsls	r1, r6, #3
 8001734:	4308      	orrs	r0, r1
 8001736:	9000      	str	r0, [sp, #0]
 8001738:	0370      	lsls	r0, r6, #13
 800173a:	4681      	mov	r9, r0
 800173c:	4640      	mov	r0, r8
 800173e:	0cc1      	lsrs	r1, r0, #19
 8001740:	4648      	mov	r0, r9
 8001742:	4308      	orrs	r0, r1
 8001744:	4641      	mov	r1, r8
 8001746:	0349      	lsls	r1, r1, #13
 8001748:	468b      	mov	fp, r1
 800174a:	4681      	mov	r9, r0
 800174c:	0cf1      	lsrs	r1, r6, #19
 800174e:	4658      	mov	r0, fp
 8001750:	4308      	orrs	r0, r1
 8001752:	4683      	mov	fp, r0
 8001754:	4651      	mov	r1, sl
 8001756:	4648      	mov	r0, r9
 8001758:	4041      	eors	r1, r0
 800175a:	9800      	ldr	r0, [sp, #0]
 800175c:	4689      	mov	r9, r1
 800175e:	4659      	mov	r1, fp
 8001760:	4041      	eors	r1, r0
 8001762:	468b      	mov	fp, r1
 8001764:	4641      	mov	r1, r8
 8001766:	06b0      	lsls	r0, r6, #26
 8001768:	0989      	lsrs	r1, r1, #6
 800176a:	4301      	orrs	r1, r0
 800176c:	4648      	mov	r0, r9
 800176e:	4048      	eors	r0, r1
 8001770:	09b6      	lsrs	r6, r6, #6
 8001772:	4659      	mov	r1, fp
 8001774:	4071      	eors	r1, r6
 8001776:	9004      	str	r0, [sp, #16]
 8001778:	9105      	str	r1, [sp, #20]
 800177a:	9804      	ldr	r0, [sp, #16]
 800177c:	9905      	ldr	r1, [sp, #20]
 800177e:	1812      	adds	r2, r2, r0
 8001780:	414b      	adcs	r3, r1
 8001782:	0a39      	lsrs	r1, r7, #8
 8001784:	0628      	lsls	r0, r5, #24
 8001786:	4308      	orrs	r0, r1
 8001788:	4680      	mov	r8, r0
 800178a:	0a29      	lsrs	r1, r5, #8
 800178c:	0638      	lsls	r0, r7, #24
 800178e:	4308      	orrs	r0, r1
 8001790:	066e      	lsls	r6, r5, #25
 8001792:	09f9      	lsrs	r1, r7, #7
 8001794:	4682      	mov	sl, r0
 8001796:	4331      	orrs	r1, r6
 8001798:	4640      	mov	r0, r8
 800179a:	09ee      	lsrs	r6, r5, #7
 800179c:	4041      	eors	r1, r0
 800179e:	4650      	mov	r0, sl
 80017a0:	4689      	mov	r9, r1
 80017a2:	4070      	eors	r0, r6
 80017a4:	07e9      	lsls	r1, r5, #31
 80017a6:	087e      	lsrs	r6, r7, #1
 80017a8:	086d      	lsrs	r5, r5, #1
 80017aa:	07ff      	lsls	r7, r7, #31
 80017ac:	430e      	orrs	r6, r1
 80017ae:	433d      	orrs	r5, r7
 80017b0:	464f      	mov	r7, r9
 80017b2:	4068      	eors	r0, r5
 80017b4:	4077      	eors	r7, r6
 80017b6:	9706      	str	r7, [sp, #24]
 80017b8:	9007      	str	r0, [sp, #28]
 80017ba:	9806      	ldr	r0, [sp, #24]
 80017bc:	9907      	ldr	r1, [sp, #28]
 80017be:	1812      	adds	r2, r2, r0
 80017c0:	414b      	adcs	r3, r1
 80017c2:	6122      	str	r2, [r4, #16]
 80017c4:	6163      	str	r3, [r4, #20]
 80017c6:	3408      	adds	r4, #8
 80017c8:	4564      	cmp	r4, ip
 80017ca:	d199      	bne.n	8001700 <SHA512Transform+0x1d4>
 80017cc:	9a17      	ldr	r2, [sp, #92]	; 0x5c
 80017ce:	6890      	ldr	r0, [r2, #8]
 80017d0:	68d1      	ldr	r1, [r2, #12]
 80017d2:	6814      	ldr	r4, [r2, #0]
 80017d4:	6855      	ldr	r5, [r2, #4]
 80017d6:	901c      	str	r0, [sp, #112]	; 0x70
 80017d8:	911d      	str	r1, [sp, #116]	; 0x74
 80017da:	6953      	ldr	r3, [r2, #20]
 80017dc:	6912      	ldr	r2, [r2, #16]
 80017de:	9917      	ldr	r1, [sp, #92]	; 0x5c
 80017e0:	921e      	str	r2, [sp, #120]	; 0x78
 80017e2:	931f      	str	r3, [sp, #124]	; 0x7c
 80017e4:	6988      	ldr	r0, [r1, #24]
 80017e6:	69c9      	ldr	r1, [r1, #28]
 80017e8:	9a17      	ldr	r2, [sp, #92]	; 0x5c
 80017ea:	9020      	str	r0, [sp, #128]	; 0x80
 80017ec:	9121      	str	r1, [sp, #132]	; 0x84
 80017ee:	6a16      	ldr	r6, [r2, #32]
 80017f0:	6a57      	ldr	r7, [r2, #36]	; 0x24
 80017f2:	6a90      	ldr	r0, [r2, #40]	; 0x28
 80017f4:	6ad1      	ldr	r1, [r2, #44]	; 0x2c
 80017f6:	6b53      	ldr	r3, [r2, #52]	; 0x34
 80017f8:	6b12      	ldr	r2, [r2, #48]	; 0x30
 80017fa:	9022      	str	r0, [sp, #136]	; 0x88
 80017fc:	9123      	str	r1, [sp, #140]	; 0x8c
 80017fe:	9224      	str	r2, [sp, #144]	; 0x90
 8001800:	9325      	str	r3, [sp, #148]	; 0x94
 8001802:	9917      	ldr	r1, [sp, #92]	; 0x5c
 8001804:	4b33      	ldr	r3, [pc, #204]	; (80018d4 <SHA512Transform+0x3a8>)
 8001806:	2201      	movs	r2, #1
 8001808:	6b88      	ldr	r0, [r1, #56]	; 0x38
 800180a:	6bc9      	ldr	r1, [r1, #60]	; 0x3c
 800180c:	9026      	str	r0, [sp, #152]	; 0x98
 800180e:	9127      	str	r1, [sp, #156]	; 0x9c
 8001810:	601a      	str	r2, [r3, #0]
 8001812:	681b      	ldr	r3, [r3, #0]
 8001814:	9329      	str	r3, [sp, #164]	; 0xa4
 8001816:	4b30      	ldr	r3, [pc, #192]	; (80018d8 <SHA512Transform+0x3ac>)
 8001818:	681a      	ldr	r2, [r3, #0]
 800181a:	9229      	str	r2, [sp, #164]	; 0xa4
 800181c:	9a29      	ldr	r2, [sp, #164]	; 0xa4
 800181e:	3201      	adds	r2, #1
 8001820:	d100      	bne.n	8001824 <SHA512Transform+0x2f8>
 8001822:	e155      	b.n	8001ad0 <SHA512Transform+0x5a4>
 8001824:	4b2d      	ldr	r3, [pc, #180]	; (80018dc <SHA512Transform+0x3b0>)
 8001826:	9519      	str	r5, [sp, #100]	; 0x64
 8001828:	4063      	eors	r3, r4
 800182a:	9318      	str	r3, [sp, #96]	; 0x60
 800182c:	9b17      	ldr	r3, [sp, #92]	; 0x5c
 800182e:	9918      	ldr	r1, [sp, #96]	; 0x60
 8001830:	9a19      	ldr	r2, [sp, #100]	; 0x64
 8001832:	6019      	str	r1, [r3, #0]
 8001834:	605a      	str	r2, [r3, #4]
 8001836:	4b2a      	ldr	r3, [pc, #168]	; (80018e0 <SHA512Transform+0x3b4>)
 8001838:	971b      	str	r7, [sp, #108]	; 0x6c
 800183a:	4073      	eors	r3, r6
 800183c:	931a      	str	r3, [sp, #104]	; 0x68
 800183e:	9f27      	ldr	r7, [sp, #156]	; 0x9c
 8001840:	9b26      	ldr	r3, [sp, #152]	; 0x98
 8001842:	981a      	ldr	r0, [sp, #104]	; 0x68
 8001844:	991b      	ldr	r1, [sp, #108]	; 0x6c
 8001846:	9a17      	ldr	r2, [sp, #92]	; 0x5c
 8001848:	1c04      	adds	r4, r0, #0
 800184a:	1c0d      	adds	r5, r1, #0
 800184c:	405c      	eors	r4, r3
 800184e:	407d      	eors	r5, r7
 8001850:	9b25      	ldr	r3, [sp, #148]	; 0x94
 8001852:	9f21      	ldr	r7, [sp, #132]	; 0x84
 8001854:	6210      	str	r0, [r2, #32]
 8001856:	6251      	str	r1, [r2, #36]	; 0x24
 8001858:	9a20      	ldr	r2, [sp, #128]	; 0x80
 800185a:	9924      	ldr	r1, [sp, #144]	; 0x90
 800185c:	407b      	eors	r3, r7
 800185e:	4051      	eors	r1, r2
 8001860:	9f1f      	ldr	r7, [sp, #124]	; 0x7c
 8001862:	9305      	str	r3, [sp, #20]
 8001864:	9b23      	ldr	r3, [sp, #140]	; 0x8c
 8001866:	9a1e      	ldr	r2, [sp, #120]	; 0x78
 8001868:	9104      	str	r1, [sp, #16]
 800186a:	9922      	ldr	r1, [sp, #136]	; 0x88
 800186c:	407b      	eors	r3, r7
 800186e:	4051      	eors	r1, r2
 8001870:	9f1d      	ldr	r7, [sp, #116]	; 0x74
 8001872:	9307      	str	r3, [sp, #28]
 8001874:	9b1b      	ldr	r3, [sp, #108]	; 0x6c
 8001876:	9a1c      	ldr	r2, [sp, #112]	; 0x70
 8001878:	9820      	ldr	r0, [sp, #128]	; 0x80
 800187a:	9106      	str	r1, [sp, #24]
 800187c:	9e18      	ldr	r6, [sp, #96]	; 0x60
 800187e:	991a      	ldr	r1, [sp, #104]	; 0x68
 8001880:	407b      	eors	r3, r7
 8001882:	4051      	eors	r1, r2
 8001884:	930d      	str	r3, [sp, #52]	; 0x34
 8001886:	4046      	eors	r6, r0
 8001888:	9b26      	ldr	r3, [sp, #152]	; 0x98
 800188a:	981e      	ldr	r0, [sp, #120]	; 0x78
 800188c:	910c      	str	r1, [sp, #48]	; 0x30
 800188e:	9f19      	ldr	r7, [sp, #100]	; 0x64
 8001890:	9921      	ldr	r1, [sp, #132]	; 0x84
 8001892:	4043      	eors	r3, r0
 8001894:	9308      	str	r3, [sp, #32]
 8001896:	404f      	eors	r7, r1
 8001898:	9a1f      	ldr	r2, [sp, #124]	; 0x7c
 800189a:	9927      	ldr	r1, [sp, #156]	; 0x9c
 800189c:	981d      	ldr	r0, [sp, #116]	; 0x74
 800189e:	4051      	eors	r1, r2
 80018a0:	9109      	str	r1, [sp, #36]	; 0x24
 80018a2:	9a1c      	ldr	r2, [sp, #112]	; 0x70
 80018a4:	9924      	ldr	r1, [sp, #144]	; 0x90
 80018a6:	9b25      	ldr	r3, [sp, #148]	; 0x94
 80018a8:	4051      	eors	r1, r2
 80018aa:	4043      	eors	r3, r0
 80018ac:	910a      	str	r1, [sp, #40]	; 0x28
 80018ae:	930b      	str	r3, [sp, #44]	; 0x2c
 80018b0:	9a18      	ldr	r2, [sp, #96]	; 0x60
 80018b2:	9b22      	ldr	r3, [sp, #136]	; 0x88
 80018b4:	9819      	ldr	r0, [sp, #100]	; 0x64
 80018b6:	9923      	ldr	r1, [sp, #140]	; 0x8c
 80018b8:	405a      	eors	r2, r3
 80018ba:	4048      	eors	r0, r1
 80018bc:	9200      	str	r2, [sp, #0]
 80018be:	9001      	str	r0, [sp, #4]
 80018c0:	4b08      	ldr	r3, [pc, #32]	; (80018e4 <SHA512Transform+0x3b8>)
 80018c2:	2200      	movs	r2, #0
 80018c4:	469a      	mov	sl, r3
 80018c6:	23a0      	movs	r3, #160	; 0xa0
 80018c8:	009b      	lsls	r3, r3, #2
 80018ca:	4694      	mov	ip, r2
 80018cc:	4699      	mov	r9, r3
 80018ce:	e023      	b.n	8001918 <SHA512Transform+0x3ec>
 80018d0:	fffffcd4 	.word	0xfffffcd4
 80018d4:	40023008 	.word	0x40023008
 80018d8:	40023000 	.word	0x40023000
 80018dc:	34705604 	.word	0x34705604
 80018e0:	89563478 	.word	0x89563478
 80018e4:	08007078 	.word	0x08007078
 80018e8:	980a      	ldr	r0, [sp, #40]	; 0x28
 80018ea:	990b      	ldr	r1, [sp, #44]	; 0x2c
 80018ec:	9000      	str	r0, [sp, #0]
 80018ee:	9101      	str	r1, [sp, #4]
 80018f0:	9908      	ldr	r1, [sp, #32]
 80018f2:	9a09      	ldr	r2, [sp, #36]	; 0x24
 80018f4:	9608      	str	r6, [sp, #32]
 80018f6:	9709      	str	r7, [sp, #36]	; 0x24
 80018f8:	9e0c      	ldr	r6, [sp, #48]	; 0x30
 80018fa:	9f0d      	ldr	r7, [sp, #52]	; 0x34
 80018fc:	910a      	str	r1, [sp, #40]	; 0x28
 80018fe:	920b      	str	r2, [sp, #44]	; 0x2c
 8001900:	9a06      	ldr	r2, [sp, #24]
 8001902:	9b07      	ldr	r3, [sp, #28]
 8001904:	9804      	ldr	r0, [sp, #16]
 8001906:	9905      	ldr	r1, [sp, #20]
 8001908:	920c      	str	r2, [sp, #48]	; 0x30
 800190a:	930d      	str	r3, [sp, #52]	; 0x34
 800190c:	9006      	str	r0, [sp, #24]
 800190e:	9107      	str	r1, [sp, #28]
 8001910:	9404      	str	r4, [sp, #16]
 8001912:	9505      	str	r5, [sp, #20]
 8001914:	9c02      	ldr	r4, [sp, #8]
 8001916:	9d03      	ldr	r5, [sp, #12]
 8001918:	a82a      	add	r0, sp, #168	; 0xa8
 800191a:	1c02      	adds	r2, r0, #0
 800191c:	4653      	mov	r3, sl
 800191e:	4462      	add	r2, ip
 8001920:	4463      	add	r3, ip
 8001922:	6810      	ldr	r0, [r2, #0]
 8001924:	6851      	ldr	r1, [r2, #4]
 8001926:	681a      	ldr	r2, [r3, #0]
 8001928:	685b      	ldr	r3, [r3, #4]
 800192a:	1880      	adds	r0, r0, r2
 800192c:	4159      	adcs	r1, r3
 800192e:	03bb      	lsls	r3, r7, #14
 8001930:	9002      	str	r0, [sp, #8]
 8001932:	9103      	str	r1, [sp, #12]
 8001934:	0cb1      	lsrs	r1, r6, #18
 8001936:	1c18      	adds	r0, r3, #0
 8001938:	4308      	orrs	r0, r1
 800193a:	0cbb      	lsrs	r3, r7, #18
 800193c:	03b1      	lsls	r1, r6, #14
 800193e:	4319      	orrs	r1, r3
 8001940:	04ba      	lsls	r2, r7, #18
 8001942:	0bb3      	lsrs	r3, r6, #14
 8001944:	4683      	mov	fp, r0
 8001946:	431a      	orrs	r2, r3
 8001948:	0bb8      	lsrs	r0, r7, #14
 800194a:	04b3      	lsls	r3, r6, #18
 800194c:	4303      	orrs	r3, r0
 800194e:	4658      	mov	r0, fp
 8001950:	4050      	eors	r0, r2
 8001952:	4683      	mov	fp, r0
 8001954:	4059      	eors	r1, r3
 8001956:	05f0      	lsls	r0, r6, #23
 8001958:	0a7b      	lsrs	r3, r7, #9
 800195a:	4318      	orrs	r0, r3
 800195c:	05fa      	lsls	r2, r7, #23
 800195e:	0a73      	lsrs	r3, r6, #9
 8001960:	4313      	orrs	r3, r2
 8001962:	465a      	mov	r2, fp
 8001964:	4042      	eors	r2, r0
 8001966:	4059      	eors	r1, r3
 8001968:	920e      	str	r2, [sp, #56]	; 0x38
 800196a:	910f      	str	r1, [sp, #60]	; 0x3c
 800196c:	980e      	ldr	r0, [sp, #56]	; 0x38
 800196e:	990f      	ldr	r1, [sp, #60]	; 0x3c
 8001970:	9a02      	ldr	r2, [sp, #8]
 8001972:	9b03      	ldr	r3, [sp, #12]
 8001974:	1812      	adds	r2, r2, r0
 8001976:	414b      	adcs	r3, r1
 8001978:	980a      	ldr	r0, [sp, #40]	; 0x28
 800197a:	9908      	ldr	r1, [sp, #32]
 800197c:	43b0      	bics	r0, r6
 800197e:	4031      	ands	r1, r6
 8001980:	4048      	eors	r0, r1
 8001982:	9010      	str	r0, [sp, #64]	; 0x40
 8001984:	9909      	ldr	r1, [sp, #36]	; 0x24
 8001986:	980b      	ldr	r0, [sp, #44]	; 0x2c
 8001988:	4039      	ands	r1, r7
 800198a:	43b8      	bics	r0, r7
 800198c:	4048      	eors	r0, r1
 800198e:	9011      	str	r0, [sp, #68]	; 0x44
 8001990:	9810      	ldr	r0, [sp, #64]	; 0x40
 8001992:	9911      	ldr	r1, [sp, #68]	; 0x44
 8001994:	1812      	adds	r2, r2, r0
 8001996:	414b      	adcs	r3, r1
 8001998:	9800      	ldr	r0, [sp, #0]
 800199a:	9901      	ldr	r1, [sp, #4]
 800199c:	1880      	adds	r0, r0, r2
 800199e:	4159      	adcs	r1, r3
 80019a0:	9000      	str	r0, [sp, #0]
 80019a2:	9101      	str	r1, [sp, #4]
 80019a4:	9b07      	ldr	r3, [sp, #28]
 80019a6:	9805      	ldr	r0, [sp, #20]
 80019a8:	9a04      	ldr	r2, [sp, #16]
 80019aa:	9906      	ldr	r1, [sp, #24]
 80019ac:	4043      	eors	r3, r0
 80019ae:	9806      	ldr	r0, [sp, #24]
 80019b0:	4051      	eors	r1, r2
 80019b2:	4021      	ands	r1, r4
 80019b4:	4002      	ands	r2, r0
 80019b6:	4051      	eors	r1, r2
 80019b8:	9112      	str	r1, [sp, #72]	; 0x48
 80019ba:	9a05      	ldr	r2, [sp, #20]
 80019bc:	9907      	ldr	r1, [sp, #28]
 80019be:	402b      	ands	r3, r5
 80019c0:	400a      	ands	r2, r1
 80019c2:	4053      	eors	r3, r2
 80019c4:	9313      	str	r3, [sp, #76]	; 0x4c
 80019c6:	08ab      	lsrs	r3, r5, #2
 80019c8:	07a1      	lsls	r1, r4, #30
 80019ca:	1c18      	adds	r0, r3, #0
 80019cc:	4308      	orrs	r0, r1
 80019ce:	07ab      	lsls	r3, r5, #30
 80019d0:	08a1      	lsrs	r1, r4, #2
 80019d2:	4319      	orrs	r1, r3
 80019d4:	012a      	lsls	r2, r5, #4
 80019d6:	0f23      	lsrs	r3, r4, #28
 80019d8:	4683      	mov	fp, r0
 80019da:	431a      	orrs	r2, r3
 80019dc:	0f28      	lsrs	r0, r5, #28
 80019de:	0123      	lsls	r3, r4, #4
 80019e0:	4303      	orrs	r3, r0
 80019e2:	4658      	mov	r0, fp
 80019e4:	4050      	eors	r0, r2
 80019e6:	4683      	mov	fp, r0
 80019e8:	4059      	eors	r1, r3
 80019ea:	0660      	lsls	r0, r4, #25
 80019ec:	09eb      	lsrs	r3, r5, #7
 80019ee:	4318      	orrs	r0, r3
 80019f0:	066a      	lsls	r2, r5, #25
 80019f2:	09e3      	lsrs	r3, r4, #7
 80019f4:	4313      	orrs	r3, r2
 80019f6:	465a      	mov	r2, fp
 80019f8:	4042      	eors	r2, r0
 80019fa:	4059      	eors	r1, r3
 80019fc:	9214      	str	r2, [sp, #80]	; 0x50
 80019fe:	9115      	str	r1, [sp, #84]	; 0x54
 8001a00:	9814      	ldr	r0, [sp, #80]	; 0x50
 8001a02:	9915      	ldr	r1, [sp, #84]	; 0x54
 8001a04:	9a12      	ldr	r2, [sp, #72]	; 0x48
 8001a06:	9b13      	ldr	r3, [sp, #76]	; 0x4c
 8001a08:	1812      	adds	r2, r2, r0
 8001a0a:	414b      	adcs	r3, r1
 8001a0c:	9202      	str	r2, [sp, #8]
 8001a0e:	9303      	str	r3, [sp, #12]
 8001a10:	9800      	ldr	r0, [sp, #0]
 8001a12:	9901      	ldr	r1, [sp, #4]
 8001a14:	9a0c      	ldr	r2, [sp, #48]	; 0x30
 8001a16:	9b0d      	ldr	r3, [sp, #52]	; 0x34
 8001a18:	1812      	adds	r2, r2, r0
 8001a1a:	414b      	adcs	r3, r1
 8001a1c:	920c      	str	r2, [sp, #48]	; 0x30
 8001a1e:	930d      	str	r3, [sp, #52]	; 0x34
 8001a20:	9a02      	ldr	r2, [sp, #8]
 8001a22:	9b03      	ldr	r3, [sp, #12]
 8001a24:	1812      	adds	r2, r2, r0
 8001a26:	414b      	adcs	r3, r1
 8001a28:	9202      	str	r2, [sp, #8]
 8001a2a:	9303      	str	r3, [sp, #12]
 8001a2c:	2308      	movs	r3, #8
 8001a2e:	449c      	add	ip, r3
 8001a30:	45cc      	cmp	ip, r9
 8001a32:	d000      	beq.n	8001a36 <SHA512Transform+0x50a>
 8001a34:	e758      	b.n	80018e8 <SHA512Transform+0x3bc>
 8001a36:	990c      	ldr	r1, [sp, #48]	; 0x30
 8001a38:	9a0d      	ldr	r2, [sp, #52]	; 0x34
 8001a3a:	9100      	str	r1, [sp, #0]
 8001a3c:	9201      	str	r2, [sp, #4]
 8001a3e:	9818      	ldr	r0, [sp, #96]	; 0x60
 8001a40:	9919      	ldr	r1, [sp, #100]	; 0x64
 8001a42:	9a02      	ldr	r2, [sp, #8]
 8001a44:	9b03      	ldr	r3, [sp, #12]
 8001a46:	1812      	adds	r2, r2, r0
 8001a48:	414b      	adcs	r3, r1
 8001a4a:	9817      	ldr	r0, [sp, #92]	; 0x5c
 8001a4c:	6002      	str	r2, [r0, #0]
 8001a4e:	6043      	str	r3, [r0, #4]
 8001a50:	9a1c      	ldr	r2, [sp, #112]	; 0x70
 8001a52:	9b1d      	ldr	r3, [sp, #116]	; 0x74
 8001a54:	1912      	adds	r2, r2, r4
 8001a56:	416b      	adcs	r3, r5
 8001a58:	6082      	str	r2, [r0, #8]
 8001a5a:	60c3      	str	r3, [r0, #12]
 8001a5c:	9a04      	ldr	r2, [sp, #16]
 8001a5e:	9b05      	ldr	r3, [sp, #20]
 8001a60:	1c04      	adds	r4, r0, #0
 8001a62:	981e      	ldr	r0, [sp, #120]	; 0x78
 8001a64:	991f      	ldr	r1, [sp, #124]	; 0x7c
 8001a66:	1812      	adds	r2, r2, r0
 8001a68:	414b      	adcs	r3, r1
 8001a6a:	6122      	str	r2, [r4, #16]
 8001a6c:	6163      	str	r3, [r4, #20]
 8001a6e:	9820      	ldr	r0, [sp, #128]	; 0x80
 8001a70:	9921      	ldr	r1, [sp, #132]	; 0x84
 8001a72:	9a06      	ldr	r2, [sp, #24]
 8001a74:	9b07      	ldr	r3, [sp, #28]
 8001a76:	1812      	adds	r2, r2, r0
 8001a78:	414b      	adcs	r3, r1
 8001a7a:	61a2      	str	r2, [r4, #24]
 8001a7c:	61e3      	str	r3, [r4, #28]
 8001a7e:	9800      	ldr	r0, [sp, #0]
 8001a80:	9901      	ldr	r1, [sp, #4]
 8001a82:	9a1a      	ldr	r2, [sp, #104]	; 0x68
 8001a84:	9b1b      	ldr	r3, [sp, #108]	; 0x6c
 8001a86:	1880      	adds	r0, r0, r2
 8001a88:	4159      	adcs	r1, r3
 8001a8a:	6220      	str	r0, [r4, #32]
 8001a8c:	6261      	str	r1, [r4, #36]	; 0x24
 8001a8e:	9824      	ldr	r0, [sp, #144]	; 0x90
 8001a90:	9925      	ldr	r1, [sp, #148]	; 0x94
 8001a92:	1c23      	adds	r3, r4, #0
 8001a94:	9c22      	ldr	r4, [sp, #136]	; 0x88
 8001a96:	9d23      	ldr	r5, [sp, #140]	; 0x8c
 8001a98:	1936      	adds	r6, r6, r4
 8001a9a:	416f      	adcs	r7, r5
 8001a9c:	629e      	str	r6, [r3, #40]	; 0x28
 8001a9e:	62df      	str	r7, [r3, #44]	; 0x2c
 8001aa0:	1c1d      	adds	r5, r3, #0
 8001aa2:	9a08      	ldr	r2, [sp, #32]
 8001aa4:	9b09      	ldr	r3, [sp, #36]	; 0x24
 8001aa6:	1812      	adds	r2, r2, r0
 8001aa8:	414b      	adcs	r3, r1
 8001aaa:	632a      	str	r2, [r5, #48]	; 0x30
 8001aac:	636b      	str	r3, [r5, #52]	; 0x34
 8001aae:	9826      	ldr	r0, [sp, #152]	; 0x98
 8001ab0:	9927      	ldr	r1, [sp, #156]	; 0x9c
 8001ab2:	9a0a      	ldr	r2, [sp, #40]	; 0x28
 8001ab4:	9b0b      	ldr	r3, [sp, #44]	; 0x2c
 8001ab6:	1812      	adds	r2, r2, r0
 8001ab8:	414b      	adcs	r3, r1
 8001aba:	63aa      	str	r2, [r5, #56]	; 0x38
 8001abc:	63eb      	str	r3, [r5, #60]	; 0x3c
 8001abe:	23cb      	movs	r3, #203	; 0xcb
 8001ac0:	009b      	lsls	r3, r3, #2
 8001ac2:	449d      	add	sp, r3
 8001ac4:	bc3c      	pop	{r2, r3, r4, r5}
 8001ac6:	4690      	mov	r8, r2
 8001ac8:	4699      	mov	r9, r3
 8001aca:	46a2      	mov	sl, r4
 8001acc:	46ab      	mov	fp, r5
 8001ace:	bdf0      	pop	{r4, r5, r6, r7, pc}
 8001ad0:	9a29      	ldr	r2, [sp, #164]	; 0xa4
 8001ad2:	601a      	str	r2, [r3, #0]
 8001ad4:	681b      	ldr	r3, [r3, #0]
 8001ad6:	9329      	str	r3, [sp, #164]	; 0xa4
 8001ad8:	9b29      	ldr	r3, [sp, #164]	; 0xa4
 8001ada:	2b00      	cmp	r3, #0
 8001adc:	d11c      	bne.n	8001b18 <SHA512Transform+0x5ec>
 8001ade:	9a26      	ldr	r2, [sp, #152]	; 0x98
 8001ae0:	9b27      	ldr	r3, [sp, #156]	; 0x9c
 8001ae2:	9824      	ldr	r0, [sp, #144]	; 0x90
 8001ae4:	9925      	ldr	r1, [sp, #148]	; 0x94
 8001ae6:	9200      	str	r2, [sp, #0]
 8001ae8:	9301      	str	r3, [sp, #4]
 8001aea:	900a      	str	r0, [sp, #40]	; 0x28
 8001aec:	910b      	str	r1, [sp, #44]	; 0x2c
 8001aee:	9922      	ldr	r1, [sp, #136]	; 0x88
 8001af0:	9a23      	ldr	r2, [sp, #140]	; 0x8c
 8001af2:	961a      	str	r6, [sp, #104]	; 0x68
 8001af4:	971b      	str	r7, [sp, #108]	; 0x6c
 8001af6:	9108      	str	r1, [sp, #32]
 8001af8:	9209      	str	r2, [sp, #36]	; 0x24
 8001afa:	9a20      	ldr	r2, [sp, #128]	; 0x80
 8001afc:	9b21      	ldr	r3, [sp, #132]	; 0x84
 8001afe:	981e      	ldr	r0, [sp, #120]	; 0x78
 8001b00:	991f      	ldr	r1, [sp, #124]	; 0x7c
 8001b02:	920c      	str	r2, [sp, #48]	; 0x30
 8001b04:	930d      	str	r3, [sp, #52]	; 0x34
 8001b06:	9006      	str	r0, [sp, #24]
 8001b08:	9107      	str	r1, [sp, #28]
 8001b0a:	991c      	ldr	r1, [sp, #112]	; 0x70
 8001b0c:	9a1d      	ldr	r2, [sp, #116]	; 0x74
 8001b0e:	9418      	str	r4, [sp, #96]	; 0x60
 8001b10:	9519      	str	r5, [sp, #100]	; 0x64
 8001b12:	9104      	str	r1, [sp, #16]
 8001b14:	9205      	str	r2, [sp, #20]
 8001b16:	e6d3      	b.n	80018c0 <SHA512Transform+0x394>
 8001b18:	4b26      	ldr	r3, [pc, #152]	; (8001bb4 <SHA512Transform+0x688>)
 8001b1a:	9519      	str	r5, [sp, #100]	; 0x64
 8001b1c:	4063      	eors	r3, r4
 8001b1e:	9d17      	ldr	r5, [sp, #92]	; 0x5c
 8001b20:	9318      	str	r3, [sp, #96]	; 0x60
 8001b22:	9b18      	ldr	r3, [sp, #96]	; 0x60
 8001b24:	9c19      	ldr	r4, [sp, #100]	; 0x64
 8001b26:	602b      	str	r3, [r5, #0]
 8001b28:	606c      	str	r4, [r5, #4]
 8001b2a:	4b23      	ldr	r3, [pc, #140]	; (8001bb8 <SHA512Transform+0x68c>)
 8001b2c:	971b      	str	r7, [sp, #108]	; 0x6c
 8001b2e:	4073      	eors	r3, r6
 8001b30:	931a      	str	r3, [sp, #104]	; 0x68
 8001b32:	9f26      	ldr	r7, [sp, #152]	; 0x98
 8001b34:	9827      	ldr	r0, [sp, #156]	; 0x9c
 8001b36:	991a      	ldr	r1, [sp, #104]	; 0x68
 8001b38:	9a1b      	ldr	r2, [sp, #108]	; 0x6c
 8001b3a:	6229      	str	r1, [r5, #32]
 8001b3c:	626a      	str	r2, [r5, #36]	; 0x24
 8001b3e:	1c0c      	adds	r4, r1, #0
 8001b40:	1c15      	adds	r5, r2, #0
 8001b42:	9b20      	ldr	r3, [sp, #128]	; 0x80
 8001b44:	9a24      	ldr	r2, [sp, #144]	; 0x90
 8001b46:	407c      	eors	r4, r7
 8001b48:	4045      	eors	r5, r0
 8001b4a:	9f25      	ldr	r7, [sp, #148]	; 0x94
 8001b4c:	9821      	ldr	r0, [sp, #132]	; 0x84
 8001b4e:	405a      	eors	r2, r3
 8001b50:	4047      	eors	r7, r0
 8001b52:	9b1e      	ldr	r3, [sp, #120]	; 0x78
 8001b54:	981f      	ldr	r0, [sp, #124]	; 0x7c
 8001b56:	9204      	str	r2, [sp, #16]
 8001b58:	9705      	str	r7, [sp, #20]
 8001b5a:	9a22      	ldr	r2, [sp, #136]	; 0x88
 8001b5c:	9f23      	ldr	r7, [sp, #140]	; 0x8c
 8001b5e:	405a      	eors	r2, r3
 8001b60:	4047      	eors	r7, r0
 8001b62:	9b1c      	ldr	r3, [sp, #112]	; 0x70
 8001b64:	981d      	ldr	r0, [sp, #116]	; 0x74
 8001b66:	9206      	str	r2, [sp, #24]
 8001b68:	9707      	str	r7, [sp, #28]
 8001b6a:	9a1a      	ldr	r2, [sp, #104]	; 0x68
 8001b6c:	9f1b      	ldr	r7, [sp, #108]	; 0x6c
 8001b6e:	405a      	eors	r2, r3
 8001b70:	4047      	eors	r7, r0
 8001b72:	9920      	ldr	r1, [sp, #128]	; 0x80
 8001b74:	920c      	str	r2, [sp, #48]	; 0x30
 8001b76:	970d      	str	r7, [sp, #52]	; 0x34
 8001b78:	9a21      	ldr	r2, [sp, #132]	; 0x84
 8001b7a:	9e18      	ldr	r6, [sp, #96]	; 0x60
 8001b7c:	9f19      	ldr	r7, [sp, #100]	; 0x64
 8001b7e:	404e      	eors	r6, r1
 8001b80:	4057      	eors	r7, r2
 8001b82:	9926      	ldr	r1, [sp, #152]	; 0x98
 8001b84:	9a1e      	ldr	r2, [sp, #120]	; 0x78
 8001b86:	4051      	eors	r1, r2
 8001b88:	9108      	str	r1, [sp, #32]
 8001b8a:	981f      	ldr	r0, [sp, #124]	; 0x7c
 8001b8c:	9b27      	ldr	r3, [sp, #156]	; 0x9c
 8001b8e:	991d      	ldr	r1, [sp, #116]	; 0x74
 8001b90:	4043      	eors	r3, r0
 8001b92:	9309      	str	r3, [sp, #36]	; 0x24
 8001b94:	9a24      	ldr	r2, [sp, #144]	; 0x90
 8001b96:	9b1c      	ldr	r3, [sp, #112]	; 0x70
 8001b98:	9825      	ldr	r0, [sp, #148]	; 0x94
 8001b9a:	405a      	eors	r2, r3
 8001b9c:	4048      	eors	r0, r1
 8001b9e:	920a      	str	r2, [sp, #40]	; 0x28
 8001ba0:	900b      	str	r0, [sp, #44]	; 0x2c
 8001ba2:	9b18      	ldr	r3, [sp, #96]	; 0x60
 8001ba4:	9822      	ldr	r0, [sp, #136]	; 0x88
 8001ba6:	9919      	ldr	r1, [sp, #100]	; 0x64
 8001ba8:	9a23      	ldr	r2, [sp, #140]	; 0x8c
 8001baa:	4043      	eors	r3, r0
 8001bac:	4051      	eors	r1, r2
 8001bae:	9300      	str	r3, [sp, #0]
 8001bb0:	9101      	str	r1, [sp, #4]
 8001bb2:	e685      	b.n	80018c0 <SHA512Transform+0x394>
 8001bb4:	34705604 	.word	0x34705604
 8001bb8:	89563478 	.word	0x89563478
 8001bbc:	00000000 	.word	0x00000000

08001bc0 <barrett_reduce>:
 8001bc0:	b5f0      	push	{r4, r5, r6, r7, lr}
 8001bc2:	465f      	mov	r7, fp
 8001bc4:	4656      	mov	r6, sl
 8001bc6:	4644      	mov	r4, r8
 8001bc8:	464d      	mov	r5, r9
 8001bca:	b4f0      	push	{r4, r5, r6, r7}
 8001bcc:	4cc2      	ldr	r4, [pc, #776]	; (8001ed8 <barrett_reduce+0x318>)
 8001bce:	2224      	movs	r2, #36	; 0x24
 8001bd0:	44a5      	add	sp, r4
 8001bd2:	909e      	str	r0, [sp, #632]	; 0x278
 8001bd4:	91a0      	str	r1, [sp, #640]	; 0x280
 8001bd6:	a8b1      	add	r0, sp, #708	; 0x2c4
 8001bd8:	311c      	adds	r1, #28
 8001bda:	f005 f865 	bl	8006ca8 <memcpy>
 8001bde:	9cb1      	ldr	r4, [sp, #708]	; 0x2c4
 8001be0:	9db2      	ldr	r5, [sp, #712]	; 0x2c8
 8001be2:	949f      	str	r4, [sp, #636]	; 0x27c
 8001be4:	95a1      	str	r5, [sp, #644]	; 0x284
 8001be6:	9cb3      	ldr	r4, [sp, #716]	; 0x2cc
 8001be8:	9db4      	ldr	r5, [sp, #720]	; 0x2d0
 8001bea:	94a2      	str	r4, [sp, #648]	; 0x288
 8001bec:	95a3      	str	r5, [sp, #652]	; 0x28c
 8001bee:	9cb5      	ldr	r4, [sp, #724]	; 0x2d4
 8001bf0:	9db6      	ldr	r5, [sp, #728]	; 0x2d8
 8001bf2:	94a4      	str	r4, [sp, #656]	; 0x290
 8001bf4:	95a5      	str	r5, [sp, #660]	; 0x294
 8001bf6:	9cb7      	ldr	r4, [sp, #732]	; 0x2dc
 8001bf8:	9db8      	ldr	r5, [sp, #736]	; 0x2e0
 8001bfa:	49b8      	ldr	r1, [pc, #736]	; (8001edc <barrett_reduce+0x31c>)
 8001bfc:	94a6      	str	r4, [sp, #664]	; 0x298
 8001bfe:	95a7      	str	r5, [sp, #668]	; 0x29c
 8001c00:	2401      	movs	r4, #1
 8001c02:	2500      	movs	r5, #0
 8001c04:	949d      	str	r4, [sp, #628]	; 0x274
 8001c06:	46aa      	mov	sl, r5
 8001c08:	46a8      	mov	r8, r5
 8001c0a:	2600      	movs	r6, #0
 8001c0c:	2700      	movs	r7, #0
 8001c0e:	468b      	mov	fp, r1
 8001c10:	465d      	mov	r5, fp
 8001c12:	4455      	add	r5, sl
 8001c14:	682d      	ldr	r5, [r5, #0]
 8001c16:	9a9f      	ldr	r2, [sp, #636]	; 0x27c
 8001c18:	1c28      	adds	r0, r5, #0
 8001c1a:	2300      	movs	r3, #0
 8001c1c:	2100      	movs	r1, #0
 8001c1e:	959c      	str	r5, [sp, #624]	; 0x270
 8001c20:	f7fe fafe 	bl	8000220 <__aeabi_lmul>
 8001c24:	9008      	str	r0, [sp, #32]
 8001c26:	2000      	movs	r0, #0
 8001c28:	9009      	str	r0, [sp, #36]	; 0x24
 8001c2a:	9616      	str	r6, [sp, #88]	; 0x58
 8001c2c:	9017      	str	r0, [sp, #92]	; 0x5c
 8001c2e:	9118      	str	r1, [sp, #96]	; 0x60
 8001c30:	9019      	str	r0, [sp, #100]	; 0x64
 8001c32:	9722      	str	r7, [sp, #136]	; 0x88
 8001c34:	9023      	str	r0, [sp, #140]	; 0x8c
 8001c36:	9a16      	ldr	r2, [sp, #88]	; 0x58
 8001c38:	9b17      	ldr	r3, [sp, #92]	; 0x5c
 8001c3a:	9822      	ldr	r0, [sp, #136]	; 0x88
 8001c3c:	9923      	ldr	r1, [sp, #140]	; 0x8c
 8001c3e:	9c08      	ldr	r4, [sp, #32]
 8001c40:	9d09      	ldr	r5, [sp, #36]	; 0x24
 8001c42:	9e18      	ldr	r6, [sp, #96]	; 0x60
 8001c44:	9f19      	ldr	r7, [sp, #100]	; 0x64
 8001c46:	18a4      	adds	r4, r4, r2
 8001c48:	415d      	adcs	r5, r3
 8001c4a:	1836      	adds	r6, r6, r0
 8001c4c:	414f      	adcs	r7, r1
 8001c4e:	2100      	movs	r1, #0
 8001c50:	9524      	str	r5, [sp, #144]	; 0x90
 8001c52:	9125      	str	r1, [sp, #148]	; 0x94
 8001c54:	9a24      	ldr	r2, [sp, #144]	; 0x90
 8001c56:	9b25      	ldr	r3, [sp, #148]	; 0x94
 8001c58:	18b6      	adds	r6, r6, r2
 8001c5a:	415f      	adcs	r7, r3
 8001c5c:	4643      	mov	r3, r8
 8001c5e:	2b00      	cmp	r3, #0
 8001c60:	d101      	bne.n	8001c66 <barrett_reduce+0xa6>
 8001c62:	f000 fcf3 	bl	800264c <barrett_reduce+0xa8c>
 8001c66:	46d9      	mov	r9, fp
 8001c68:	44d1      	add	r9, sl
 8001c6a:	464b      	mov	r3, r9
 8001c6c:	3b04      	subs	r3, #4
 8001c6e:	6818      	ldr	r0, [r3, #0]
 8001c70:	9aa1      	ldr	r2, [sp, #644]	; 0x284
 8001c72:	2300      	movs	r3, #0
 8001c74:	f7fe fad4 	bl	8000220 <__aeabi_lmul>
 8001c78:	2200      	movs	r2, #0
 8001c7a:	9227      	str	r2, [sp, #156]	; 0x9c
 8001c7c:	9034      	str	r0, [sp, #208]	; 0xd0
 8001c7e:	9426      	str	r4, [sp, #152]	; 0x98
 8001c80:	9235      	str	r2, [sp, #212]	; 0xd4
 8001c82:	9a34      	ldr	r2, [sp, #208]	; 0xd0
 8001c84:	9b35      	ldr	r3, [sp, #212]	; 0xd4
 8001c86:	9c26      	ldr	r4, [sp, #152]	; 0x98
 8001c88:	9d27      	ldr	r5, [sp, #156]	; 0x9c
 8001c8a:	18a4      	adds	r4, r4, r2
 8001c8c:	415d      	adcs	r5, r3
 8001c8e:	2300      	movs	r3, #0
 8001c90:	9136      	str	r1, [sp, #216]	; 0xd8
 8001c92:	9337      	str	r3, [sp, #220]	; 0xdc
 8001c94:	9836      	ldr	r0, [sp, #216]	; 0xd8
 8001c96:	9937      	ldr	r1, [sp, #220]	; 0xdc
 8001c98:	9538      	str	r5, [sp, #224]	; 0xe0
 8001c9a:	1836      	adds	r6, r6, r0
 8001c9c:	414f      	adcs	r7, r1
 8001c9e:	9339      	str	r3, [sp, #228]	; 0xe4
 8001ca0:	9938      	ldr	r1, [sp, #224]	; 0xe0
 8001ca2:	9a39      	ldr	r2, [sp, #228]	; 0xe4
 8001ca4:	1876      	adds	r6, r6, r1
 8001ca6:	4157      	adcs	r7, r2
 8001ca8:	4642      	mov	r2, r8
 8001caa:	2a01      	cmp	r2, #1
 8001cac:	d101      	bne.n	8001cb2 <barrett_reduce+0xf2>
 8001cae:	f000 fccd 	bl	800264c <barrett_reduce+0xa8c>
 8001cb2:	464b      	mov	r3, r9
 8001cb4:	3b08      	subs	r3, #8
 8001cb6:	6818      	ldr	r0, [r3, #0]
 8001cb8:	9aa2      	ldr	r2, [sp, #648]	; 0x288
 8001cba:	2300      	movs	r3, #0
 8001cbc:	2100      	movs	r1, #0
 8001cbe:	f7fe faaf 	bl	8000220 <__aeabi_lmul>
 8001cc2:	2300      	movs	r3, #0
 8001cc4:	9329      	str	r3, [sp, #164]	; 0xa4
 8001cc6:	903a      	str	r0, [sp, #232]	; 0xe8
 8001cc8:	9428      	str	r4, [sp, #160]	; 0xa0
 8001cca:	933b      	str	r3, [sp, #236]	; 0xec
 8001ccc:	9a3a      	ldr	r2, [sp, #232]	; 0xe8
 8001cce:	9b3b      	ldr	r3, [sp, #236]	; 0xec
 8001cd0:	9c28      	ldr	r4, [sp, #160]	; 0xa0
 8001cd2:	9d29      	ldr	r5, [sp, #164]	; 0xa4
 8001cd4:	18a4      	adds	r4, r4, r2
 8001cd6:	415d      	adcs	r5, r3
 8001cd8:	2300      	movs	r3, #0
 8001cda:	953c      	str	r5, [sp, #240]	; 0xf0
 8001cdc:	933d      	str	r3, [sp, #244]	; 0xf4
 8001cde:	9a3c      	ldr	r2, [sp, #240]	; 0xf0
 8001ce0:	9b3d      	ldr	r3, [sp, #244]	; 0xf4
 8001ce2:	18b6      	adds	r6, r6, r2
 8001ce4:	415f      	adcs	r7, r3
 8001ce6:	2300      	movs	r3, #0
 8001ce8:	913e      	str	r1, [sp, #248]	; 0xf8
 8001cea:	933f      	str	r3, [sp, #252]	; 0xfc
 8001cec:	983e      	ldr	r0, [sp, #248]	; 0xf8
 8001cee:	993f      	ldr	r1, [sp, #252]	; 0xfc
 8001cf0:	1836      	adds	r6, r6, r0
 8001cf2:	414f      	adcs	r7, r1
 8001cf4:	4641      	mov	r1, r8
 8001cf6:	2902      	cmp	r1, #2
 8001cf8:	d101      	bne.n	8001cfe <barrett_reduce+0x13e>
 8001cfa:	f000 fca7 	bl	800264c <barrett_reduce+0xa8c>
 8001cfe:	464b      	mov	r3, r9
 8001d00:	3b0c      	subs	r3, #12
 8001d02:	6818      	ldr	r0, [r3, #0]
 8001d04:	9aa3      	ldr	r2, [sp, #652]	; 0x28c
 8001d06:	2300      	movs	r3, #0
 8001d08:	2100      	movs	r1, #0
 8001d0a:	f7fe fa89 	bl	8000220 <__aeabi_lmul>
 8001d0e:	2200      	movs	r2, #0
 8001d10:	922b      	str	r2, [sp, #172]	; 0xac
 8001d12:	9040      	str	r0, [sp, #256]	; 0x100
 8001d14:	942a      	str	r4, [sp, #168]	; 0xa8
 8001d16:	9241      	str	r2, [sp, #260]	; 0x104
 8001d18:	9a40      	ldr	r2, [sp, #256]	; 0x100
 8001d1a:	9b41      	ldr	r3, [sp, #260]	; 0x104
 8001d1c:	9c2a      	ldr	r4, [sp, #168]	; 0xa8
 8001d1e:	9d2b      	ldr	r5, [sp, #172]	; 0xac
 8001d20:	18a4      	adds	r4, r4, r2
 8001d22:	415d      	adcs	r5, r3
 8001d24:	2300      	movs	r3, #0
 8001d26:	9542      	str	r5, [sp, #264]	; 0x108
 8001d28:	9343      	str	r3, [sp, #268]	; 0x10c
 8001d2a:	9a42      	ldr	r2, [sp, #264]	; 0x108
 8001d2c:	9b43      	ldr	r3, [sp, #268]	; 0x10c
 8001d2e:	18b6      	adds	r6, r6, r2
 8001d30:	415f      	adcs	r7, r3
 8001d32:	2300      	movs	r3, #0
 8001d34:	9144      	str	r1, [sp, #272]	; 0x110
 8001d36:	9345      	str	r3, [sp, #276]	; 0x114
 8001d38:	9844      	ldr	r0, [sp, #272]	; 0x110
 8001d3a:	9945      	ldr	r1, [sp, #276]	; 0x114
 8001d3c:	1836      	adds	r6, r6, r0
 8001d3e:	414f      	adcs	r7, r1
 8001d40:	4641      	mov	r1, r8
 8001d42:	2903      	cmp	r1, #3
 8001d44:	d101      	bne.n	8001d4a <barrett_reduce+0x18a>
 8001d46:	f000 fc81 	bl	800264c <barrett_reduce+0xa8c>
 8001d4a:	464b      	mov	r3, r9
 8001d4c:	3b10      	subs	r3, #16
 8001d4e:	6818      	ldr	r0, [r3, #0]
 8001d50:	9aa4      	ldr	r2, [sp, #656]	; 0x290
 8001d52:	2300      	movs	r3, #0
 8001d54:	2100      	movs	r1, #0
 8001d56:	f7fe fa63 	bl	8000220 <__aeabi_lmul>
 8001d5a:	2200      	movs	r2, #0
 8001d5c:	922d      	str	r2, [sp, #180]	; 0xb4
 8001d5e:	9046      	str	r0, [sp, #280]	; 0x118
 8001d60:	942c      	str	r4, [sp, #176]	; 0xb0
 8001d62:	9247      	str	r2, [sp, #284]	; 0x11c
 8001d64:	9a46      	ldr	r2, [sp, #280]	; 0x118
 8001d66:	9b47      	ldr	r3, [sp, #284]	; 0x11c
 8001d68:	9c2c      	ldr	r4, [sp, #176]	; 0xb0
 8001d6a:	9d2d      	ldr	r5, [sp, #180]	; 0xb4
 8001d6c:	18a4      	adds	r4, r4, r2
 8001d6e:	415d      	adcs	r5, r3
 8001d70:	2300      	movs	r3, #0
 8001d72:	9548      	str	r5, [sp, #288]	; 0x120
 8001d74:	9349      	str	r3, [sp, #292]	; 0x124
 8001d76:	9a48      	ldr	r2, [sp, #288]	; 0x120
 8001d78:	9b49      	ldr	r3, [sp, #292]	; 0x124
 8001d7a:	18b6      	adds	r6, r6, r2
 8001d7c:	415f      	adcs	r7, r3
 8001d7e:	2300      	movs	r3, #0
 8001d80:	914a      	str	r1, [sp, #296]	; 0x128
 8001d82:	934b      	str	r3, [sp, #300]	; 0x12c
 8001d84:	984a      	ldr	r0, [sp, #296]	; 0x128
 8001d86:	994b      	ldr	r1, [sp, #300]	; 0x12c
 8001d88:	1836      	adds	r6, r6, r0
 8001d8a:	414f      	adcs	r7, r1
 8001d8c:	4641      	mov	r1, r8
 8001d8e:	2904      	cmp	r1, #4
 8001d90:	d101      	bne.n	8001d96 <barrett_reduce+0x1d6>
 8001d92:	f000 fc5b 	bl	800264c <barrett_reduce+0xa8c>
 8001d96:	464b      	mov	r3, r9
 8001d98:	3b14      	subs	r3, #20
 8001d9a:	6818      	ldr	r0, [r3, #0]
 8001d9c:	9aa5      	ldr	r2, [sp, #660]	; 0x294
 8001d9e:	2300      	movs	r3, #0
 8001da0:	2100      	movs	r1, #0
 8001da2:	f7fe fa3d 	bl	8000220 <__aeabi_lmul>
 8001da6:	2200      	movs	r2, #0
 8001da8:	922f      	str	r2, [sp, #188]	; 0xbc
 8001daa:	904c      	str	r0, [sp, #304]	; 0x130
 8001dac:	942e      	str	r4, [sp, #184]	; 0xb8
 8001dae:	924d      	str	r2, [sp, #308]	; 0x134
 8001db0:	9a4c      	ldr	r2, [sp, #304]	; 0x130
 8001db2:	9b4d      	ldr	r3, [sp, #308]	; 0x134
 8001db4:	9c2e      	ldr	r4, [sp, #184]	; 0xb8
 8001db6:	9d2f      	ldr	r5, [sp, #188]	; 0xbc
 8001db8:	18a4      	adds	r4, r4, r2
 8001dba:	415d      	adcs	r5, r3
 8001dbc:	2300      	movs	r3, #0
 8001dbe:	954e      	str	r5, [sp, #312]	; 0x138
 8001dc0:	934f      	str	r3, [sp, #316]	; 0x13c
 8001dc2:	9a4e      	ldr	r2, [sp, #312]	; 0x138
 8001dc4:	9b4f      	ldr	r3, [sp, #316]	; 0x13c
 8001dc6:	18b6      	adds	r6, r6, r2
 8001dc8:	415f      	adcs	r7, r3
 8001dca:	2300      	movs	r3, #0
 8001dcc:	9150      	str	r1, [sp, #320]	; 0x140
 8001dce:	9351      	str	r3, [sp, #324]	; 0x144
 8001dd0:	9850      	ldr	r0, [sp, #320]	; 0x140
 8001dd2:	9951      	ldr	r1, [sp, #324]	; 0x144
 8001dd4:	1836      	adds	r6, r6, r0
 8001dd6:	414f      	adcs	r7, r1
 8001dd8:	4641      	mov	r1, r8
 8001dda:	2905      	cmp	r1, #5
 8001ddc:	d101      	bne.n	8001de2 <barrett_reduce+0x222>
 8001dde:	f000 fc35 	bl	800264c <barrett_reduce+0xa8c>
 8001de2:	464b      	mov	r3, r9
 8001de4:	3b18      	subs	r3, #24
 8001de6:	6818      	ldr	r0, [r3, #0]
 8001de8:	9aa6      	ldr	r2, [sp, #664]	; 0x298
 8001dea:	2300      	movs	r3, #0
 8001dec:	2100      	movs	r1, #0
 8001dee:	f7fe fa17 	bl	8000220 <__aeabi_lmul>
 8001df2:	2200      	movs	r2, #0
 8001df4:	9231      	str	r2, [sp, #196]	; 0xc4
 8001df6:	9052      	str	r0, [sp, #328]	; 0x148
 8001df8:	9430      	str	r4, [sp, #192]	; 0xc0
 8001dfa:	9253      	str	r2, [sp, #332]	; 0x14c
 8001dfc:	9a52      	ldr	r2, [sp, #328]	; 0x148
 8001dfe:	9b53      	ldr	r3, [sp, #332]	; 0x14c
 8001e00:	9c30      	ldr	r4, [sp, #192]	; 0xc0
 8001e02:	9d31      	ldr	r5, [sp, #196]	; 0xc4
 8001e04:	18a4      	adds	r4, r4, r2
 8001e06:	415d      	adcs	r5, r3
 8001e08:	2300      	movs	r3, #0
 8001e0a:	9554      	str	r5, [sp, #336]	; 0x150
 8001e0c:	9355      	str	r3, [sp, #340]	; 0x154
 8001e0e:	9a54      	ldr	r2, [sp, #336]	; 0x150
 8001e10:	9b55      	ldr	r3, [sp, #340]	; 0x154
 8001e12:	18b6      	adds	r6, r6, r2
 8001e14:	415f      	adcs	r7, r3
 8001e16:	2300      	movs	r3, #0
 8001e18:	9156      	str	r1, [sp, #344]	; 0x158
 8001e1a:	9357      	str	r3, [sp, #348]	; 0x15c
 8001e1c:	9856      	ldr	r0, [sp, #344]	; 0x158
 8001e1e:	9957      	ldr	r1, [sp, #348]	; 0x15c
 8001e20:	1836      	adds	r6, r6, r0
 8001e22:	414f      	adcs	r7, r1
 8001e24:	4641      	mov	r1, r8
 8001e26:	2906      	cmp	r1, #6
 8001e28:	d101      	bne.n	8001e2e <barrett_reduce+0x26e>
 8001e2a:	f000 fc0f 	bl	800264c <barrett_reduce+0xa8c>
 8001e2e:	464b      	mov	r3, r9
 8001e30:	3b1c      	subs	r3, #28
 8001e32:	6818      	ldr	r0, [r3, #0]
 8001e34:	9aa7      	ldr	r2, [sp, #668]	; 0x29c
 8001e36:	2300      	movs	r3, #0
 8001e38:	2100      	movs	r1, #0
 8001e3a:	f7fe f9f1 	bl	8000220 <__aeabi_lmul>
 8001e3e:	2200      	movs	r2, #0
 8001e40:	9233      	str	r2, [sp, #204]	; 0xcc
 8001e42:	9058      	str	r0, [sp, #352]	; 0x160
 8001e44:	9432      	str	r4, [sp, #200]	; 0xc8
 8001e46:	9259      	str	r2, [sp, #356]	; 0x164
 8001e48:	9a58      	ldr	r2, [sp, #352]	; 0x160
 8001e4a:	9b59      	ldr	r3, [sp, #356]	; 0x164
 8001e4c:	9c32      	ldr	r4, [sp, #200]	; 0xc8
 8001e4e:	9d33      	ldr	r5, [sp, #204]	; 0xcc
 8001e50:	18a4      	adds	r4, r4, r2
 8001e52:	415d      	adcs	r5, r3
 8001e54:	2300      	movs	r3, #0
 8001e56:	955a      	str	r5, [sp, #360]	; 0x168
 8001e58:	935b      	str	r3, [sp, #364]	; 0x16c
 8001e5a:	9a5a      	ldr	r2, [sp, #360]	; 0x168
 8001e5c:	9b5b      	ldr	r3, [sp, #364]	; 0x16c
 8001e5e:	18b6      	adds	r6, r6, r2
 8001e60:	415f      	adcs	r7, r3
 8001e62:	2300      	movs	r3, #0
 8001e64:	915c      	str	r1, [sp, #368]	; 0x170
 8001e66:	935d      	str	r3, [sp, #372]	; 0x174
 8001e68:	985c      	ldr	r0, [sp, #368]	; 0x170
 8001e6a:	995d      	ldr	r1, [sp, #372]	; 0x174
 8001e6c:	1836      	adds	r6, r6, r0
 8001e6e:	414f      	adcs	r7, r1
 8001e70:	4641      	mov	r1, r8
 8001e72:	2908      	cmp	r1, #8
 8001e74:	d001      	beq.n	8001e7a <barrett_reduce+0x2ba>
 8001e76:	f000 fbf2 	bl	800265e <barrett_reduce+0xa9e>
 8001e7a:	9ab9      	ldr	r2, [sp, #740]	; 0x2e4
 8001e7c:	2100      	movs	r1, #0
 8001e7e:	1c10      	adds	r0, r2, #0
 8001e80:	4690      	mov	r8, r2
 8001e82:	4b12      	ldr	r3, [pc, #72]	; (8001ecc <barrett_reduce+0x30c>)
 8001e84:	4a10      	ldr	r2, [pc, #64]	; (8001ec8 <barrett_reduce+0x308>)
 8001e86:	f7fe f9cb 	bl	8000220 <__aeabi_lmul>
 8001e8a:	2500      	movs	r5, #0
 8001e8c:	1c22      	adds	r2, r4, #0
 8001e8e:	1c0c      	adds	r4, r1, #0
 8001e90:	1936      	adds	r6, r6, r4
 8001e92:	416f      	adcs	r7, r5
 8001e94:	2300      	movs	r3, #0
 8001e96:	1c04      	adds	r4, r0, #0
 8001e98:	18a4      	adds	r4, r4, r2
 8001e9a:	415d      	adcs	r5, r3
 8001e9c:	1c2a      	adds	r2, r5, #0
 8001e9e:	18b6      	adds	r6, r6, r2
 8001ea0:	415f      	adcs	r7, r3
 8001ea2:	4640      	mov	r0, r8
 8001ea4:	2100      	movs	r1, #0
 8001ea6:	4a0a      	ldr	r2, [pc, #40]	; (8001ed0 <barrett_reduce+0x310>)
 8001ea8:	4b0a      	ldr	r3, [pc, #40]	; (8001ed4 <barrett_reduce+0x314>)
 8001eaa:	f7fe f9b9 	bl	8000220 <__aeabi_lmul>
 8001eae:	2500      	movs	r5, #0
 8001eb0:	9016      	str	r0, [sp, #88]	; 0x58
 8001eb2:	9517      	str	r5, [sp, #92]	; 0x5c
 8001eb4:	9118      	str	r1, [sp, #96]	; 0x60
 8001eb6:	2500      	movs	r5, #0
 8001eb8:	a8b2      	add	r0, sp, #712	; 0x2c8
 8001eba:	a9ba      	add	r1, sp, #744	; 0x2e8
 8001ebc:	9519      	str	r5, [sp, #100]	; 0x64
 8001ebe:	4681      	mov	r9, r0
 8001ec0:	468b      	mov	fp, r1
 8001ec2:	46a8      	mov	r8, r5
 8001ec4:	e00c      	b.n	8001ee0 <barrett_reduce+0x320>
 8001ec6:	46c0      	nop			; (mov r8, r8)
 8001ec8:	0a2c131b 	.word	0x0a2c131b
 8001ecc:	00000000 	.word	0x00000000
 8001ed0:	ed9ce5a3 	.word	0xed9ce5a3
 8001ed4:	00000000 	.word	0x00000000
 8001ed8:	fffffccc 	.word	0xfffffccc
 8001edc:	08007718 	.word	0x08007718
 8001ee0:	464b      	mov	r3, r9
 8001ee2:	681b      	ldr	r3, [r3, #0]
 8001ee4:	2400      	movs	r4, #0
 8001ee6:	0f1d      	lsrs	r5, r3, #28
 8001ee8:	0118      	lsls	r0, r3, #4
 8001eea:	9306      	str	r3, [sp, #24]
 8001eec:	951b      	str	r5, [sp, #108]	; 0x6c
 8001eee:	901a      	str	r0, [sp, #104]	; 0x68
 8001ef0:	9407      	str	r4, [sp, #28]
 8001ef2:	9c06      	ldr	r4, [sp, #24]
 8001ef4:	9d07      	ldr	r5, [sp, #28]
 8001ef6:	9a1a      	ldr	r2, [sp, #104]	; 0x68
 8001ef8:	9b1b      	ldr	r3, [sp, #108]	; 0x6c
 8001efa:	1b12      	subs	r2, r2, r4
 8001efc:	41ab      	sbcs	r3, r5
 8001efe:	2500      	movs	r5, #0
 8001f00:	925e      	str	r2, [sp, #376]	; 0x178
 8001f02:	9660      	str	r6, [sp, #384]	; 0x180
 8001f04:	9561      	str	r5, [sp, #388]	; 0x184
 8001f06:	955f      	str	r5, [sp, #380]	; 0x17c
 8001f08:	9860      	ldr	r0, [sp, #384]	; 0x180
 8001f0a:	9961      	ldr	r1, [sp, #388]	; 0x184
 8001f0c:	9c5e      	ldr	r4, [sp, #376]	; 0x178
 8001f0e:	9d5f      	ldr	r5, [sp, #380]	; 0x17c
 8001f10:	1824      	adds	r4, r4, r0
 8001f12:	414d      	adcs	r5, r1
 8001f14:	2100      	movs	r1, #0
 8001f16:	9362      	str	r3, [sp, #392]	; 0x188
 8001f18:	9163      	str	r1, [sp, #396]	; 0x18c
 8001f1a:	9764      	str	r7, [sp, #400]	; 0x190
 8001f1c:	9165      	str	r1, [sp, #404]	; 0x194
 8001f1e:	9e62      	ldr	r6, [sp, #392]	; 0x188
 8001f20:	9f63      	ldr	r7, [sp, #396]	; 0x18c
 8001f22:	9a64      	ldr	r2, [sp, #400]	; 0x190
 8001f24:	9b65      	ldr	r3, [sp, #404]	; 0x194
 8001f26:	9566      	str	r5, [sp, #408]	; 0x198
 8001f28:	18b6      	adds	r6, r6, r2
 8001f2a:	415f      	adcs	r7, r3
 8001f2c:	9167      	str	r1, [sp, #412]	; 0x19c
 8001f2e:	9866      	ldr	r0, [sp, #408]	; 0x198
 8001f30:	9967      	ldr	r1, [sp, #412]	; 0x19c
 8001f32:	1836      	adds	r6, r6, r0
 8001f34:	414f      	adcs	r7, r1
 8001f36:	4641      	mov	r1, r8
 8001f38:	2907      	cmp	r1, #7
 8001f3a:	d100      	bne.n	8001f3e <barrett_reduce+0x37e>
 8001f3c:	e123      	b.n	8002186 <barrett_reduce+0x5c6>
 8001f3e:	464a      	mov	r2, r9
 8001f40:	6852      	ldr	r2, [r2, #4]
 8001f42:	2300      	movs	r3, #0
 8001f44:	0c10      	lsrs	r0, r2, #16
 8001f46:	0411      	lsls	r1, r2, #16
 8001f48:	920a      	str	r2, [sp, #40]	; 0x28
 8001f4a:	930b      	str	r3, [sp, #44]	; 0x2c
 8001f4c:	901d      	str	r0, [sp, #116]	; 0x74
 8001f4e:	911c      	str	r1, [sp, #112]	; 0x70
 8001f50:	9a1c      	ldr	r2, [sp, #112]	; 0x70
 8001f52:	9b1d      	ldr	r3, [sp, #116]	; 0x74
 8001f54:	980a      	ldr	r0, [sp, #40]	; 0x28
 8001f56:	990b      	ldr	r1, [sp, #44]	; 0x2c
 8001f58:	1a12      	subs	r2, r2, r0
 8001f5a:	418b      	sbcs	r3, r1
 8001f5c:	0c11      	lsrs	r1, r2, #16
 8001f5e:	0418      	lsls	r0, r3, #16
 8001f60:	4308      	orrs	r0, r1
 8001f62:	0411      	lsls	r1, r2, #16
 8001f64:	900d      	str	r0, [sp, #52]	; 0x34
 8001f66:	910c      	str	r1, [sp, #48]	; 0x30
 8001f68:	980c      	ldr	r0, [sp, #48]	; 0x30
 8001f6a:	990d      	ldr	r1, [sp, #52]	; 0x34
 8001f6c:	1812      	adds	r2, r2, r0
 8001f6e:	414b      	adcs	r3, r1
 8001f70:	2100      	movs	r1, #0
 8001f72:	9169      	str	r1, [sp, #420]	; 0x1a4
 8001f74:	9276      	str	r2, [sp, #472]	; 0x1d8
 8001f76:	9468      	str	r4, [sp, #416]	; 0x1a0
 8001f78:	9177      	str	r1, [sp, #476]	; 0x1dc
 8001f7a:	9876      	ldr	r0, [sp, #472]	; 0x1d8
 8001f7c:	9977      	ldr	r1, [sp, #476]	; 0x1dc
 8001f7e:	9c68      	ldr	r4, [sp, #416]	; 0x1a0
 8001f80:	9d69      	ldr	r5, [sp, #420]	; 0x1a4
 8001f82:	1824      	adds	r4, r4, r0
 8001f84:	414d      	adcs	r5, r1
 8001f86:	2100      	movs	r1, #0
 8001f88:	9179      	str	r1, [sp, #484]	; 0x1e4
 8001f8a:	9378      	str	r3, [sp, #480]	; 0x1e0
 8001f8c:	9a78      	ldr	r2, [sp, #480]	; 0x1e0
 8001f8e:	9b79      	ldr	r3, [sp, #484]	; 0x1e4
 8001f90:	18b6      	adds	r6, r6, r2
 8001f92:	415f      	adcs	r7, r3
 8001f94:	4643      	mov	r3, r8
 8001f96:	957a      	str	r5, [sp, #488]	; 0x1e8
 8001f98:	917b      	str	r1, [sp, #492]	; 0x1ec
 8001f9a:	3303      	adds	r3, #3
 8001f9c:	987a      	ldr	r0, [sp, #488]	; 0x1e8
 8001f9e:	997b      	ldr	r1, [sp, #492]	; 0x1ec
 8001fa0:	1836      	adds	r6, r6, r0
 8001fa2:	414f      	adcs	r7, r1
 8001fa4:	2b08      	cmp	r3, #8
 8001fa6:	dd00      	ble.n	8001faa <barrett_reduce+0x3ea>
 8001fa8:	e0ed      	b.n	8002186 <barrett_reduce+0x5c6>
 8001faa:	4649      	mov	r1, r9
 8001fac:	6889      	ldr	r1, [r1, #8]
 8001fae:	2200      	movs	r2, #0
 8001fb0:	0c0b      	lsrs	r3, r1, #16
 8001fb2:	0408      	lsls	r0, r1, #16
 8001fb4:	920f      	str	r2, [sp, #60]	; 0x3c
 8001fb6:	901e      	str	r0, [sp, #120]	; 0x78
 8001fb8:	910e      	str	r1, [sp, #56]	; 0x38
 8001fba:	931f      	str	r3, [sp, #124]	; 0x7c
 8001fbc:	980e      	ldr	r0, [sp, #56]	; 0x38
 8001fbe:	990f      	ldr	r1, [sp, #60]	; 0x3c
 8001fc0:	9a1e      	ldr	r2, [sp, #120]	; 0x78
 8001fc2:	9b1f      	ldr	r3, [sp, #124]	; 0x7c
 8001fc4:	1a12      	subs	r2, r2, r0
 8001fc6:	418b      	sbcs	r3, r1
 8001fc8:	0c11      	lsrs	r1, r2, #16
 8001fca:	0418      	lsls	r0, r3, #16
 8001fcc:	4308      	orrs	r0, r1
 8001fce:	0411      	lsls	r1, r2, #16
 8001fd0:	9011      	str	r0, [sp, #68]	; 0x44
 8001fd2:	9110      	str	r1, [sp, #64]	; 0x40
 8001fd4:	9810      	ldr	r0, [sp, #64]	; 0x40
 8001fd6:	9911      	ldr	r1, [sp, #68]	; 0x44
 8001fd8:	1812      	adds	r2, r2, r0
 8001fda:	414b      	adcs	r3, r1
 8001fdc:	2100      	movs	r1, #0
 8001fde:	916b      	str	r1, [sp, #428]	; 0x1ac
 8001fe0:	927c      	str	r2, [sp, #496]	; 0x1f0
 8001fe2:	946a      	str	r4, [sp, #424]	; 0x1a8
 8001fe4:	917d      	str	r1, [sp, #500]	; 0x1f4
 8001fe6:	987c      	ldr	r0, [sp, #496]	; 0x1f0
 8001fe8:	997d      	ldr	r1, [sp, #500]	; 0x1f4
 8001fea:	9c6a      	ldr	r4, [sp, #424]	; 0x1a8
 8001fec:	9d6b      	ldr	r5, [sp, #428]	; 0x1ac
 8001fee:	1824      	adds	r4, r4, r0
 8001ff0:	414d      	adcs	r5, r1
 8001ff2:	2100      	movs	r1, #0
 8001ff4:	957e      	str	r5, [sp, #504]	; 0x1f8
 8001ff6:	917f      	str	r1, [sp, #508]	; 0x1fc
 8001ff8:	987e      	ldr	r0, [sp, #504]	; 0x1f8
 8001ffa:	997f      	ldr	r1, [sp, #508]	; 0x1fc
 8001ffc:	1836      	adds	r6, r6, r0
 8001ffe:	414f      	adcs	r7, r1
 8002000:	2100      	movs	r1, #0
 8002002:	9380      	str	r3, [sp, #512]	; 0x200
 8002004:	9181      	str	r1, [sp, #516]	; 0x204
 8002006:	9a80      	ldr	r2, [sp, #512]	; 0x200
 8002008:	9b81      	ldr	r3, [sp, #516]	; 0x204
 800200a:	18b6      	adds	r6, r6, r2
 800200c:	415f      	adcs	r7, r3
 800200e:	4643      	mov	r3, r8
 8002010:	3304      	adds	r3, #4
 8002012:	2b08      	cmp	r3, #8
 8002014:	dd00      	ble.n	8002018 <barrett_reduce+0x458>
 8002016:	e0b6      	b.n	8002186 <barrett_reduce+0x5c6>
 8002018:	464b      	mov	r3, r9
 800201a:	68db      	ldr	r3, [r3, #12]
 800201c:	2000      	movs	r0, #0
 800201e:	0c19      	lsrs	r1, r3, #16
 8002020:	041a      	lsls	r2, r3, #16
 8002022:	9312      	str	r3, [sp, #72]	; 0x48
 8002024:	9121      	str	r1, [sp, #132]	; 0x84
 8002026:	9013      	str	r0, [sp, #76]	; 0x4c
 8002028:	9220      	str	r2, [sp, #128]	; 0x80
 800202a:	9812      	ldr	r0, [sp, #72]	; 0x48
 800202c:	9913      	ldr	r1, [sp, #76]	; 0x4c
 800202e:	9a20      	ldr	r2, [sp, #128]	; 0x80
 8002030:	9b21      	ldr	r3, [sp, #132]	; 0x84
 8002032:	1a12      	subs	r2, r2, r0
 8002034:	418b      	sbcs	r3, r1
 8002036:	0c11      	lsrs	r1, r2, #16
 8002038:	0418      	lsls	r0, r3, #16
 800203a:	4308      	orrs	r0, r1
 800203c:	0411      	lsls	r1, r2, #16
 800203e:	9015      	str	r0, [sp, #84]	; 0x54
 8002040:	9114      	str	r1, [sp, #80]	; 0x50
 8002042:	9814      	ldr	r0, [sp, #80]	; 0x50
 8002044:	9915      	ldr	r1, [sp, #84]	; 0x54
 8002046:	1812      	adds	r2, r2, r0
 8002048:	414b      	adcs	r3, r1
 800204a:	2100      	movs	r1, #0
 800204c:	916d      	str	r1, [sp, #436]	; 0x1b4
 800204e:	9282      	str	r2, [sp, #520]	; 0x208
 8002050:	946c      	str	r4, [sp, #432]	; 0x1b0
 8002052:	9183      	str	r1, [sp, #524]	; 0x20c
 8002054:	9882      	ldr	r0, [sp, #520]	; 0x208
 8002056:	9983      	ldr	r1, [sp, #524]	; 0x20c
 8002058:	9c6c      	ldr	r4, [sp, #432]	; 0x1b0
 800205a:	9d6d      	ldr	r5, [sp, #436]	; 0x1b4
 800205c:	1824      	adds	r4, r4, r0
 800205e:	414d      	adcs	r5, r1
 8002060:	2100      	movs	r1, #0
 8002062:	9584      	str	r5, [sp, #528]	; 0x210
 8002064:	9185      	str	r1, [sp, #532]	; 0x214
 8002066:	9884      	ldr	r0, [sp, #528]	; 0x210
 8002068:	9985      	ldr	r1, [sp, #532]	; 0x214
 800206a:	1836      	adds	r6, r6, r0
 800206c:	414f      	adcs	r7, r1
 800206e:	2100      	movs	r1, #0
 8002070:	9386      	str	r3, [sp, #536]	; 0x218
 8002072:	9187      	str	r1, [sp, #540]	; 0x21c
 8002074:	9a86      	ldr	r2, [sp, #536]	; 0x218
 8002076:	9b87      	ldr	r3, [sp, #540]	; 0x21c
 8002078:	18b6      	adds	r6, r6, r2
 800207a:	415f      	adcs	r7, r3
 800207c:	4643      	mov	r3, r8
 800207e:	3305      	adds	r3, #5
 8002080:	2b08      	cmp	r3, #8
 8002082:	dd00      	ble.n	8002086 <barrett_reduce+0x4c6>
 8002084:	e07f      	b.n	8002186 <barrett_reduce+0x5c6>
 8002086:	464b      	mov	r3, r9
 8002088:	6918      	ldr	r0, [r3, #16]
 800208a:	2100      	movs	r1, #0
 800208c:	4be5      	ldr	r3, [pc, #916]	; (8002424 <barrett_reduce+0x864>)
 800208e:	4ae4      	ldr	r2, [pc, #912]	; (8002420 <barrett_reduce+0x860>)
 8002090:	f7fe f8c6 	bl	8000220 <__aeabi_lmul>
 8002094:	946e      	str	r4, [sp, #440]	; 0x1b8
 8002096:	2400      	movs	r4, #0
 8002098:	9088      	str	r0, [sp, #544]	; 0x220
 800209a:	9489      	str	r4, [sp, #548]	; 0x224
 800209c:	946f      	str	r4, [sp, #444]	; 0x1bc
 800209e:	9a88      	ldr	r2, [sp, #544]	; 0x220
 80020a0:	9b89      	ldr	r3, [sp, #548]	; 0x224
 80020a2:	9c6e      	ldr	r4, [sp, #440]	; 0x1b8
 80020a4:	9d6f      	ldr	r5, [sp, #444]	; 0x1bc
 80020a6:	18a4      	adds	r4, r4, r2
 80020a8:	415d      	adcs	r5, r3
 80020aa:	2300      	movs	r3, #0
 80020ac:	958a      	str	r5, [sp, #552]	; 0x228
 80020ae:	938b      	str	r3, [sp, #556]	; 0x22c
 80020b0:	9a8a      	ldr	r2, [sp, #552]	; 0x228
 80020b2:	9b8b      	ldr	r3, [sp, #556]	; 0x22c
 80020b4:	18b6      	adds	r6, r6, r2
 80020b6:	415f      	adcs	r7, r3
 80020b8:	2300      	movs	r3, #0
 80020ba:	938d      	str	r3, [sp, #564]	; 0x234
 80020bc:	4643      	mov	r3, r8
 80020be:	918c      	str	r1, [sp, #560]	; 0x230
 80020c0:	3306      	adds	r3, #6
 80020c2:	988c      	ldr	r0, [sp, #560]	; 0x230
 80020c4:	998d      	ldr	r1, [sp, #564]	; 0x234
 80020c6:	1836      	adds	r6, r6, r0
 80020c8:	414f      	adcs	r7, r1
 80020ca:	2b08      	cmp	r3, #8
 80020cc:	dc5b      	bgt.n	8002186 <barrett_reduce+0x5c6>
 80020ce:	4649      	mov	r1, r9
 80020d0:	4ad5      	ldr	r2, [pc, #852]	; (8002428 <barrett_reduce+0x868>)
 80020d2:	4bd6      	ldr	r3, [pc, #856]	; (800242c <barrett_reduce+0x86c>)
 80020d4:	6948      	ldr	r0, [r1, #20]
 80020d6:	2100      	movs	r1, #0
 80020d8:	f7fe f8a2 	bl	8000220 <__aeabi_lmul>
 80020dc:	2200      	movs	r2, #0
 80020de:	9271      	str	r2, [sp, #452]	; 0x1c4
 80020e0:	908e      	str	r0, [sp, #568]	; 0x238
 80020e2:	9470      	str	r4, [sp, #448]	; 0x1c0
 80020e4:	928f      	str	r2, [sp, #572]	; 0x23c
 80020e6:	9a8e      	ldr	r2, [sp, #568]	; 0x238
 80020e8:	9b8f      	ldr	r3, [sp, #572]	; 0x23c
 80020ea:	9c70      	ldr	r4, [sp, #448]	; 0x1c0
 80020ec:	9d71      	ldr	r5, [sp, #452]	; 0x1c4
 80020ee:	18a4      	adds	r4, r4, r2
 80020f0:	415d      	adcs	r5, r3
 80020f2:	2300      	movs	r3, #0
 80020f4:	9590      	str	r5, [sp, #576]	; 0x240
 80020f6:	9391      	str	r3, [sp, #580]	; 0x244
 80020f8:	9a90      	ldr	r2, [sp, #576]	; 0x240
 80020fa:	9b91      	ldr	r3, [sp, #580]	; 0x244
 80020fc:	18b6      	adds	r6, r6, r2
 80020fe:	415f      	adcs	r7, r3
 8002100:	2300      	movs	r3, #0
 8002102:	9393      	str	r3, [sp, #588]	; 0x24c
 8002104:	4643      	mov	r3, r8
 8002106:	9192      	str	r1, [sp, #584]	; 0x248
 8002108:	3307      	adds	r3, #7
 800210a:	9892      	ldr	r0, [sp, #584]	; 0x248
 800210c:	9993      	ldr	r1, [sp, #588]	; 0x24c
 800210e:	1836      	adds	r6, r6, r0
 8002110:	414f      	adcs	r7, r1
 8002112:	2b08      	cmp	r3, #8
 8002114:	dc37      	bgt.n	8002186 <barrett_reduce+0x5c6>
 8002116:	4649      	mov	r1, r9
 8002118:	4ac5      	ldr	r2, [pc, #788]	; (8002430 <barrett_reduce+0x870>)
 800211a:	4bc6      	ldr	r3, [pc, #792]	; (8002434 <barrett_reduce+0x874>)
 800211c:	6988      	ldr	r0, [r1, #24]
 800211e:	2100      	movs	r1, #0
 8002120:	f7fe f87e 	bl	8000220 <__aeabi_lmul>
 8002124:	2200      	movs	r2, #0
 8002126:	9273      	str	r2, [sp, #460]	; 0x1cc
 8002128:	9094      	str	r0, [sp, #592]	; 0x250
 800212a:	9472      	str	r4, [sp, #456]	; 0x1c8
 800212c:	9295      	str	r2, [sp, #596]	; 0x254
 800212e:	9a94      	ldr	r2, [sp, #592]	; 0x250
 8002130:	9b95      	ldr	r3, [sp, #596]	; 0x254
 8002132:	9c72      	ldr	r4, [sp, #456]	; 0x1c8
 8002134:	9d73      	ldr	r5, [sp, #460]	; 0x1cc
 8002136:	18a4      	adds	r4, r4, r2
 8002138:	415d      	adcs	r5, r3
 800213a:	2300      	movs	r3, #0
 800213c:	9596      	str	r5, [sp, #600]	; 0x258
 800213e:	9397      	str	r3, [sp, #604]	; 0x25c
 8002140:	9a96      	ldr	r2, [sp, #600]	; 0x258
 8002142:	9b97      	ldr	r3, [sp, #604]	; 0x25c
 8002144:	18b6      	adds	r6, r6, r2
 8002146:	415f      	adcs	r7, r3
 8002148:	2300      	movs	r3, #0
 800214a:	9198      	str	r1, [sp, #608]	; 0x260
 800214c:	9399      	str	r3, [sp, #612]	; 0x264
 800214e:	9898      	ldr	r0, [sp, #608]	; 0x260
 8002150:	9999      	ldr	r1, [sp, #612]	; 0x264
 8002152:	1836      	adds	r6, r6, r0
 8002154:	414f      	adcs	r7, r1
 8002156:	4641      	mov	r1, r8
 8002158:	2900      	cmp	r1, #0
 800215a:	d114      	bne.n	8002186 <barrett_reduce+0x5c6>
 800215c:	2200      	movs	r2, #0
 800215e:	9474      	str	r4, [sp, #464]	; 0x1d0
 8002160:	9275      	str	r2, [sp, #468]	; 0x1d4
 8002162:	9c16      	ldr	r4, [sp, #88]	; 0x58
 8002164:	9d17      	ldr	r5, [sp, #92]	; 0x5c
 8002166:	9a74      	ldr	r2, [sp, #464]	; 0x1d0
 8002168:	9b75      	ldr	r3, [sp, #468]	; 0x1d4
 800216a:	1912      	adds	r2, r2, r4
 800216c:	416b      	adcs	r3, r5
 800216e:	2500      	movs	r5, #0
 8002170:	939a      	str	r3, [sp, #616]	; 0x268
 8002172:	959b      	str	r5, [sp, #620]	; 0x26c
 8002174:	989a      	ldr	r0, [sp, #616]	; 0x268
 8002176:	999b      	ldr	r1, [sp, #620]	; 0x26c
 8002178:	1836      	adds	r6, r6, r0
 800217a:	414f      	adcs	r7, r1
 800217c:	1c14      	adds	r4, r2, #0
 800217e:	9918      	ldr	r1, [sp, #96]	; 0x60
 8002180:	9a19      	ldr	r2, [sp, #100]	; 0x64
 8002182:	1876      	adds	r6, r6, r1
 8002184:	4157      	adcs	r7, r2
 8002186:	4642      	mov	r2, r8
 8002188:	2104      	movs	r1, #4
 800218a:	0093      	lsls	r3, r2, #2
 800218c:	465d      	mov	r5, fp
 800218e:	2001      	movs	r0, #1
 8002190:	4489      	add	r9, r1
 8002192:	50ec      	str	r4, [r5, r3]
 8002194:	4480      	add	r8, r0
 8002196:	45cb      	cmp	fp, r9
 8002198:	d000      	beq.n	800219c <barrett_reduce+0x5dc>
 800219a:	e6a1      	b.n	8001ee0 <barrett_reduce+0x320>
 800219c:	4cb0      	ldr	r4, [pc, #704]	; (8002460 <barrett_reduce+0x8a0>)
 800219e:	2300      	movs	r3, #0
 80021a0:	2509      	movs	r5, #9
 80021a2:	96c2      	str	r6, [sp, #776]	; 0x308
 80021a4:	93c3      	str	r3, [sp, #780]	; 0x30c
 80021a6:	93c4      	str	r3, [sp, #784]	; 0x310
 80021a8:	93c5      	str	r3, [sp, #788]	; 0x314
 80021aa:	93c6      	str	r3, [sp, #792]	; 0x318
 80021ac:	93c7      	str	r3, [sp, #796]	; 0x31c
 80021ae:	93c8      	str	r3, [sp, #800]	; 0x320
 80021b0:	93c9      	str	r3, [sp, #804]	; 0x324
 80021b2:	93ca      	str	r3, [sp, #808]	; 0x328
 80021b4:	93cb      	str	r3, [sp, #812]	; 0x32c
 80021b6:	afc3      	add	r7, sp, #780	; 0x30c
 80021b8:	940a      	str	r4, [sp, #40]	; 0x28
 80021ba:	46aa      	mov	sl, r5
 80021bc:	4651      	mov	r1, sl
 80021be:	2900      	cmp	r1, #0
 80021c0:	dd21      	ble.n	8002206 <barrett_reduce+0x646>
 80021c2:	9c0a      	ldr	r4, [sp, #40]	; 0x28
 80021c4:	0089      	lsls	r1, r1, #2
 80021c6:	6822      	ldr	r2, [r4, #0]
 80021c8:	4688      	mov	r8, r1
 80021ca:	4691      	mov	r9, r2
 80021cc:	2600      	movs	r6, #0
 80021ce:	2400      	movs	r4, #0
 80021d0:	2500      	movs	r5, #0
 80021d2:	59b8      	ldr	r0, [r7, r6]
 80021d4:	2100      	movs	r1, #0
 80021d6:	9002      	str	r0, [sp, #8]
 80021d8:	9504      	str	r5, [sp, #16]
 80021da:	9103      	str	r1, [sp, #12]
 80021dc:	9105      	str	r1, [sp, #20]
 80021de:	9a04      	ldr	r2, [sp, #16]
 80021e0:	9b05      	ldr	r3, [sp, #20]
 80021e2:	9c02      	ldr	r4, [sp, #8]
 80021e4:	9d03      	ldr	r5, [sp, #12]
 80021e6:	18a4      	adds	r4, r4, r2
 80021e8:	415d      	adcs	r5, r3
 80021ea:	465b      	mov	r3, fp
 80021ec:	599b      	ldr	r3, [r3, r6]
 80021ee:	464a      	mov	r2, r9
 80021f0:	9301      	str	r3, [sp, #4]
 80021f2:	1c18      	adds	r0, r3, #0
 80021f4:	2300      	movs	r3, #0
 80021f6:	f7fe f813 	bl	8000220 <__aeabi_lmul>
 80021fa:	1824      	adds	r4, r4, r0
 80021fc:	414d      	adcs	r5, r1
 80021fe:	51bc      	str	r4, [r7, r6]
 8002200:	3604      	adds	r6, #4
 8002202:	4546      	cmp	r6, r8
 8002204:	d1e5      	bne.n	80021d2 <barrett_reduce+0x612>
 8002206:	2401      	movs	r4, #1
 8002208:	9d0a      	ldr	r5, [sp, #40]	; 0x28
 800220a:	4264      	negs	r4, r4
 800220c:	44a2      	add	sl, r4
 800220e:	3504      	adds	r5, #4
 8002210:	4650      	mov	r0, sl
 8002212:	3704      	adds	r7, #4
 8002214:	950a      	str	r5, [sp, #40]	; 0x28
 8002216:	2801      	cmp	r0, #1
 8002218:	d1d0      	bne.n	80021bc <barrett_reduce+0x5fc>
 800221a:	9ac3      	ldr	r2, [sp, #780]	; 0x30c
 800221c:	9da0      	ldr	r5, [sp, #640]	; 0x280
 800221e:	2300      	movs	r3, #0
 8002220:	4885      	ldr	r0, [pc, #532]	; (8002438 <barrett_reduce+0x878>)
 8002222:	4986      	ldr	r1, [pc, #536]	; (800243c <barrett_reduce+0x87c>)
 8002224:	1a80      	subs	r0, r0, r2
 8002226:	4199      	sbcs	r1, r3
 8002228:	682a      	ldr	r2, [r5, #0]
 800222a:	1c04      	adds	r4, r0, #0
 800222c:	1c0d      	adds	r5, r1, #0
 800222e:	18a4      	adds	r4, r4, r2
 8002230:	415d      	adcs	r5, r3
 8002232:	940e      	str	r4, [sp, #56]	; 0x38
 8002234:	950f      	str	r5, [sp, #60]	; 0x3c
 8002236:	980f      	ldr	r0, [sp, #60]	; 0x3c
 8002238:	9d9e      	ldr	r5, [sp, #632]	; 0x278
 800223a:	4652      	mov	r2, sl
 800223c:	4042      	eors	r2, r0
 800223e:	602c      	str	r4, [r5, #0]
 8002240:	4c7d      	ldr	r4, [pc, #500]	; (8002438 <barrett_reduce+0x878>)
 8002242:	4d7e      	ldr	r5, [pc, #504]	; (800243c <barrett_reduce+0x87c>)
 8002244:	1aa4      	subs	r4, r4, r2
 8002246:	419d      	sbcs	r5, r3
 8002248:	9aa0      	ldr	r2, [sp, #640]	; 0x280
 800224a:	2100      	movs	r1, #0
 800224c:	6850      	ldr	r0, [r2, #4]
 800224e:	9ac4      	ldr	r2, [sp, #784]	; 0x310
 8002250:	1a80      	subs	r0, r0, r2
 8002252:	4199      	sbcs	r1, r3
 8002254:	1c02      	adds	r2, r0, #0
 8002256:	1c0b      	adds	r3, r1, #0
 8002258:	1912      	adds	r2, r2, r4
 800225a:	416b      	adcs	r3, r5
 800225c:	920c      	str	r2, [sp, #48]	; 0x30
 800225e:	930d      	str	r3, [sp, #52]	; 0x34
 8002260:	9c9e      	ldr	r4, [sp, #632]	; 0x278
 8002262:	9d0d      	ldr	r5, [sp, #52]	; 0x34
 8002264:	6062      	str	r2, [r4, #4]
 8002266:	4652      	mov	r2, sl
 8002268:	406a      	eors	r2, r5
 800226a:	2300      	movs	r3, #0
 800226c:	4c72      	ldr	r4, [pc, #456]	; (8002438 <barrett_reduce+0x878>)
 800226e:	4d73      	ldr	r5, [pc, #460]	; (800243c <barrett_reduce+0x87c>)
 8002270:	1aa4      	subs	r4, r4, r2
 8002272:	419d      	sbcs	r5, r3
 8002274:	9aa0      	ldr	r2, [sp, #640]	; 0x280
 8002276:	2100      	movs	r1, #0
 8002278:	6890      	ldr	r0, [r2, #8]
 800227a:	9ac5      	ldr	r2, [sp, #788]	; 0x314
 800227c:	1a80      	subs	r0, r0, r2
 800227e:	4199      	sbcs	r1, r3
 8002280:	1c02      	adds	r2, r0, #0
 8002282:	1c0b      	adds	r3, r1, #0
 8002284:	1912      	adds	r2, r2, r4
 8002286:	416b      	adcs	r3, r5
 8002288:	9202      	str	r2, [sp, #8]
 800228a:	9303      	str	r3, [sp, #12]
 800228c:	9c9e      	ldr	r4, [sp, #632]	; 0x278
 800228e:	9d03      	ldr	r5, [sp, #12]
 8002290:	60a2      	str	r2, [r4, #8]
 8002292:	4652      	mov	r2, sl
 8002294:	2300      	movs	r3, #0
 8002296:	406a      	eors	r2, r5
 8002298:	4c67      	ldr	r4, [pc, #412]	; (8002438 <barrett_reduce+0x878>)
 800229a:	4d68      	ldr	r5, [pc, #416]	; (800243c <barrett_reduce+0x87c>)
 800229c:	1aa4      	subs	r4, r4, r2
 800229e:	419d      	sbcs	r5, r3
 80022a0:	9aa0      	ldr	r2, [sp, #640]	; 0x280
 80022a2:	2100      	movs	r1, #0
 80022a4:	68d0      	ldr	r0, [r2, #12]
 80022a6:	9ac6      	ldr	r2, [sp, #792]	; 0x318
 80022a8:	1a80      	subs	r0, r0, r2
 80022aa:	4199      	sbcs	r1, r3
 80022ac:	1c06      	adds	r6, r0, #0
 80022ae:	1c0f      	adds	r7, r1, #0
 80022b0:	1936      	adds	r6, r6, r4
 80022b2:	416f      	adcs	r7, r5
 80022b4:	4652      	mov	r2, sl
 80022b6:	9c9e      	ldr	r4, [sp, #632]	; 0x278
 80022b8:	407a      	eors	r2, r7
 80022ba:	60e6      	str	r6, [r4, #12]
 80022bc:	4c5e      	ldr	r4, [pc, #376]	; (8002438 <barrett_reduce+0x878>)
 80022be:	4d5f      	ldr	r5, [pc, #380]	; (800243c <barrett_reduce+0x87c>)
 80022c0:	1aa4      	subs	r4, r4, r2
 80022c2:	419d      	sbcs	r5, r3
 80022c4:	9aa0      	ldr	r2, [sp, #640]	; 0x280
 80022c6:	2100      	movs	r1, #0
 80022c8:	6910      	ldr	r0, [r2, #16]
 80022ca:	9ac7      	ldr	r2, [sp, #796]	; 0x31c
 80022cc:	2700      	movs	r7, #0
 80022ce:	1a80      	subs	r0, r0, r2
 80022d0:	4199      	sbcs	r1, r3
 80022d2:	1c02      	adds	r2, r0, #0
 80022d4:	1c0b      	adds	r3, r1, #0
 80022d6:	1912      	adds	r2, r2, r4
 80022d8:	416b      	adcs	r3, r5
 80022da:	920a      	str	r2, [sp, #40]	; 0x28
 80022dc:	930b      	str	r3, [sp, #44]	; 0x2c
 80022de:	9c9e      	ldr	r4, [sp, #632]	; 0x278
 80022e0:	9d0b      	ldr	r5, [sp, #44]	; 0x2c
 80022e2:	6122      	str	r2, [r4, #16]
 80022e4:	4652      	mov	r2, sl
 80022e6:	406a      	eors	r2, r5
 80022e8:	2300      	movs	r3, #0
 80022ea:	4c53      	ldr	r4, [pc, #332]	; (8002438 <barrett_reduce+0x878>)
 80022ec:	4d53      	ldr	r5, [pc, #332]	; (800243c <barrett_reduce+0x87c>)
 80022ee:	1aa4      	subs	r4, r4, r2
 80022f0:	419d      	sbcs	r5, r3
 80022f2:	9aa0      	ldr	r2, [sp, #640]	; 0x280
 80022f4:	2100      	movs	r1, #0
 80022f6:	6950      	ldr	r0, [r2, #20]
 80022f8:	9ac8      	ldr	r2, [sp, #800]	; 0x320
 80022fa:	1a80      	subs	r0, r0, r2
 80022fc:	4199      	sbcs	r1, r3
 80022fe:	1c02      	adds	r2, r0, #0
 8002300:	1c0b      	adds	r3, r1, #0
 8002302:	1912      	adds	r2, r2, r4
 8002304:	416b      	adcs	r3, r5
 8002306:	9204      	str	r2, [sp, #16]
 8002308:	9305      	str	r3, [sp, #20]
 800230a:	9c9e      	ldr	r4, [sp, #632]	; 0x278
 800230c:	9d05      	ldr	r5, [sp, #20]
 800230e:	6162      	str	r2, [r4, #20]
 8002310:	4652      	mov	r2, sl
 8002312:	406a      	eors	r2, r5
 8002314:	2300      	movs	r3, #0
 8002316:	4c48      	ldr	r4, [pc, #288]	; (8002438 <barrett_reduce+0x878>)
 8002318:	4d48      	ldr	r5, [pc, #288]	; (800243c <barrett_reduce+0x87c>)
 800231a:	1aa4      	subs	r4, r4, r2
 800231c:	419d      	sbcs	r5, r3
 800231e:	9aa0      	ldr	r2, [sp, #640]	; 0x280
 8002320:	2100      	movs	r1, #0
 8002322:	6990      	ldr	r0, [r2, #24]
 8002324:	9ac9      	ldr	r2, [sp, #804]	; 0x324
 8002326:	1a80      	subs	r0, r0, r2
 8002328:	4199      	sbcs	r1, r3
 800232a:	1c02      	adds	r2, r0, #0
 800232c:	1c0b      	adds	r3, r1, #0
 800232e:	1912      	adds	r2, r2, r4
 8002330:	416b      	adcs	r3, r5
 8002332:	9206      	str	r2, [sp, #24]
 8002334:	9307      	str	r3, [sp, #28]
 8002336:	9c9e      	ldr	r4, [sp, #632]	; 0x278
 8002338:	9d07      	ldr	r5, [sp, #28]
 800233a:	61a2      	str	r2, [r4, #24]
 800233c:	4652      	mov	r2, sl
 800233e:	406a      	eors	r2, r5
 8002340:	2300      	movs	r3, #0
 8002342:	4c3d      	ldr	r4, [pc, #244]	; (8002438 <barrett_reduce+0x878>)
 8002344:	4d3d      	ldr	r5, [pc, #244]	; (800243c <barrett_reduce+0x87c>)
 8002346:	1aa4      	subs	r4, r4, r2
 8002348:	419d      	sbcs	r5, r3
 800234a:	9aa0      	ldr	r2, [sp, #640]	; 0x280
 800234c:	2100      	movs	r1, #0
 800234e:	69d0      	ldr	r0, [r2, #28]
 8002350:	9aca      	ldr	r2, [sp, #808]	; 0x328
 8002352:	1a80      	subs	r0, r0, r2
 8002354:	4199      	sbcs	r1, r3
 8002356:	1c02      	adds	r2, r0, #0
 8002358:	1c0b      	adds	r3, r1, #0
 800235a:	1912      	adds	r2, r2, r4
 800235c:	416b      	adcs	r3, r5
 800235e:	9210      	str	r2, [sp, #64]	; 0x40
 8002360:	9311      	str	r3, [sp, #68]	; 0x44
 8002362:	4c37      	ldr	r4, [pc, #220]	; (8002440 <barrett_reduce+0x880>)
 8002364:	4d37      	ldr	r5, [pc, #220]	; (8002444 <barrett_reduce+0x884>)
 8002366:	9a0e      	ldr	r2, [sp, #56]	; 0x38
 8002368:	2300      	movs	r3, #0
 800236a:	980c      	ldr	r0, [sp, #48]	; 0x30
 800236c:	18a4      	adds	r4, r4, r2
 800236e:	415d      	adcs	r5, r3
 8002370:	2100      	movs	r1, #0
 8002372:	4652      	mov	r2, sl
 8002374:	9408      	str	r4, [sp, #32]
 8002376:	9509      	str	r5, [sp, #36]	; 0x24
 8002378:	406a      	eors	r2, r5
 800237a:	4c33      	ldr	r4, [pc, #204]	; (8002448 <barrett_reduce+0x888>)
 800237c:	4d33      	ldr	r5, [pc, #204]	; (800244c <barrett_reduce+0x88c>)
 800237e:	1900      	adds	r0, r0, r4
 8002380:	4169      	adcs	r1, r5
 8002382:	1c04      	adds	r4, r0, #0
 8002384:	1c0d      	adds	r5, r1, #0
 8002386:	9802      	ldr	r0, [sp, #8]
 8002388:	1aa4      	subs	r4, r4, r2
 800238a:	419d      	sbcs	r5, r3
 800238c:	2100      	movs	r1, #0
 800238e:	4652      	mov	r2, sl
 8002390:	9420      	str	r4, [sp, #128]	; 0x80
 8002392:	9521      	str	r5, [sp, #132]	; 0x84
 8002394:	406a      	eors	r2, r5
 8002396:	4c2e      	ldr	r4, [pc, #184]	; (8002450 <barrett_reduce+0x890>)
 8002398:	4d2e      	ldr	r5, [pc, #184]	; (8002454 <barrett_reduce+0x894>)
 800239a:	1900      	adds	r0, r0, r4
 800239c:	4169      	adcs	r1, r5
 800239e:	1c04      	adds	r4, r0, #0
 80023a0:	1c0d      	adds	r5, r1, #0
 80023a2:	1aa4      	subs	r4, r4, r2
 80023a4:	419d      	sbcs	r5, r3
 80023a6:	1c30      	adds	r0, r6, #0
 80023a8:	4652      	mov	r2, sl
 80023aa:	2100      	movs	r1, #0
 80023ac:	941e      	str	r4, [sp, #120]	; 0x78
 80023ae:	951f      	str	r5, [sp, #124]	; 0x7c
 80023b0:	406a      	eors	r2, r5
 80023b2:	4c29      	ldr	r4, [pc, #164]	; (8002458 <barrett_reduce+0x898>)
 80023b4:	4d29      	ldr	r5, [pc, #164]	; (800245c <barrett_reduce+0x89c>)
 80023b6:	1900      	adds	r0, r0, r4
 80023b8:	4169      	adcs	r1, r5
 80023ba:	1c04      	adds	r4, r0, #0
 80023bc:	1c0d      	adds	r5, r1, #0
 80023be:	980a      	ldr	r0, [sp, #40]	; 0x28
 80023c0:	1aa4      	subs	r4, r4, r2
 80023c2:	419d      	sbcs	r5, r3
 80023c4:	2100      	movs	r1, #0
 80023c6:	4652      	mov	r2, sl
 80023c8:	941c      	str	r4, [sp, #112]	; 0x70
 80023ca:	951d      	str	r5, [sp, #116]	; 0x74
 80023cc:	406a      	eors	r2, r5
 80023ce:	4c1a      	ldr	r4, [pc, #104]	; (8002438 <barrett_reduce+0x878>)
 80023d0:	4d1a      	ldr	r5, [pc, #104]	; (800243c <barrett_reduce+0x87c>)
 80023d2:	1900      	adds	r0, r0, r4
 80023d4:	4169      	adcs	r1, r5
 80023d6:	1c04      	adds	r4, r0, #0
 80023d8:	1c0d      	adds	r5, r1, #0
 80023da:	9804      	ldr	r0, [sp, #16]
 80023dc:	1aa4      	subs	r4, r4, r2
 80023de:	419d      	sbcs	r5, r3
 80023e0:	2100      	movs	r1, #0
 80023e2:	4652      	mov	r2, sl
 80023e4:	941a      	str	r4, [sp, #104]	; 0x68
 80023e6:	951b      	str	r5, [sp, #108]	; 0x6c
 80023e8:	406a      	eors	r2, r5
 80023ea:	4c13      	ldr	r4, [pc, #76]	; (8002438 <barrett_reduce+0x878>)
 80023ec:	4d13      	ldr	r5, [pc, #76]	; (800243c <barrett_reduce+0x87c>)
 80023ee:	1900      	adds	r0, r0, r4
 80023f0:	4169      	adcs	r1, r5
 80023f2:	1c04      	adds	r4, r0, #0
 80023f4:	1c0d      	adds	r5, r1, #0
 80023f6:	9806      	ldr	r0, [sp, #24]
 80023f8:	1aa4      	subs	r4, r4, r2
 80023fa:	419d      	sbcs	r5, r3
 80023fc:	2100      	movs	r1, #0
 80023fe:	4652      	mov	r2, sl
 8002400:	9414      	str	r4, [sp, #80]	; 0x50
 8002402:	9515      	str	r5, [sp, #84]	; 0x54
 8002404:	406a      	eors	r2, r5
 8002406:	4c0c      	ldr	r4, [pc, #48]	; (8002438 <barrett_reduce+0x878>)
 8002408:	4d0c      	ldr	r5, [pc, #48]	; (800243c <barrett_reduce+0x87c>)
 800240a:	1900      	adds	r0, r0, r4
 800240c:	4169      	adcs	r1, r5
 800240e:	1c04      	adds	r4, r0, #0
 8002410:	1c0d      	adds	r5, r1, #0
 8002412:	1aa4      	subs	r4, r4, r2
 8002414:	419d      	sbcs	r5, r3
 8002416:	9810      	ldr	r0, [sp, #64]	; 0x40
 8002418:	4653      	mov	r3, sl
 800241a:	9412      	str	r4, [sp, #72]	; 0x48
 800241c:	9513      	str	r5, [sp, #76]	; 0x4c
 800241e:	e021      	b.n	8002464 <barrett_reduce+0x8a4>
 8002420:	ffffffeb 	.word	0xffffffeb
 8002424:	00000000 	.word	0x00000000
 8002428:	2106215d 	.word	0x2106215d
 800242c:	00000000 	.word	0x00000000
 8002430:	086329a7 	.word	0x086329a7
	...
 800243c:	00000001 	.word	0x00000001
 8002440:	a30a2c13 	.word	0xa30a2c13
 8002444:	00000000 	.word	0x00000000
 8002448:	a7ed9ce6 	.word	0xa7ed9ce6
 800244c:	00000000 	.word	0x00000000
 8002450:	5d08632a 	.word	0x5d08632a
 8002454:	00000000 	.word	0x00000000
 8002458:	eb210622 	.word	0xeb210622
 800245c:	00000000 	.word	0x00000000
 8002460:	08007054 	.word	0x08007054
 8002464:	406b      	eors	r3, r5
 8002466:	2100      	movs	r1, #0
 8002468:	2400      	movs	r4, #0
 800246a:	9316      	str	r3, [sp, #88]	; 0x58
 800246c:	9417      	str	r4, [sp, #92]	; 0x5c
 800246e:	4b81      	ldr	r3, [pc, #516]	; (8002674 <barrett_reduce+0xab4>)
 8002470:	4a7f      	ldr	r2, [pc, #508]	; (8002670 <barrett_reduce+0xab0>)
 8002472:	1812      	adds	r2, r2, r0
 8002474:	414b      	adcs	r3, r1
 8002476:	9c16      	ldr	r4, [sp, #88]	; 0x58
 8002478:	9d17      	ldr	r5, [sp, #92]	; 0x5c
 800247a:	1b12      	subs	r2, r2, r4
 800247c:	41ab      	sbcs	r3, r5
 800247e:	980e      	ldr	r0, [sp, #56]	; 0x38
 8002480:	9216      	str	r2, [sp, #88]	; 0x58
 8002482:	9317      	str	r3, [sp, #92]	; 0x5c
 8002484:	4655      	mov	r5, sl
 8002486:	9a08      	ldr	r2, [sp, #32]
 8002488:	405d      	eors	r5, r3
 800248a:	3d01      	subs	r5, #1
 800248c:	4042      	eors	r2, r0
 800248e:	402a      	ands	r2, r5
 8002490:	1c01      	adds	r1, r0, #0
 8002492:	4051      	eors	r1, r2
 8002494:	9820      	ldr	r0, [sp, #128]	; 0x80
 8002496:	9a0c      	ldr	r2, [sp, #48]	; 0x30
 8002498:	9c02      	ldr	r4, [sp, #8]
 800249a:	4050      	eors	r0, r2
 800249c:	4028      	ands	r0, r5
 800249e:	1c13      	adds	r3, r2, #0
 80024a0:	4043      	eors	r3, r0
 80024a2:	981e      	ldr	r0, [sp, #120]	; 0x78
 80024a4:	4688      	mov	r8, r1
 80024a6:	4060      	eors	r0, r4
 80024a8:	4028      	ands	r0, r5
 80024aa:	1c21      	adds	r1, r4, #0
 80024ac:	4041      	eors	r1, r0
 80024ae:	9102      	str	r1, [sp, #8]
 80024b0:	981c      	ldr	r0, [sp, #112]	; 0x70
 80024b2:	9a0a      	ldr	r2, [sp, #40]	; 0x28
 80024b4:	4070      	eors	r0, r6
 80024b6:	4028      	ands	r0, r5
 80024b8:	1c01      	adds	r1, r0, #0
 80024ba:	4071      	eors	r1, r6
 80024bc:	9e1a      	ldr	r6, [sp, #104]	; 0x68
 80024be:	9c04      	ldr	r4, [sp, #16]
 80024c0:	9814      	ldr	r0, [sp, #80]	; 0x50
 80024c2:	4056      	eors	r6, r2
 80024c4:	469c      	mov	ip, r3
 80024c6:	402e      	ands	r6, r5
 80024c8:	1c13      	adds	r3, r2, #0
 80024ca:	4060      	eors	r0, r4
 80024cc:	4073      	eors	r3, r6
 80024ce:	4028      	ands	r0, r5
 80024d0:	1c22      	adds	r2, r4, #0
 80024d2:	4699      	mov	r9, r3
 80024d4:	4042      	eors	r2, r0
 80024d6:	9b06      	ldr	r3, [sp, #24]
 80024d8:	9812      	ldr	r0, [sp, #72]	; 0x48
 80024da:	1c1c      	adds	r4, r3, #0
 80024dc:	4058      	eors	r0, r3
 80024de:	4028      	ands	r0, r5
 80024e0:	4044      	eors	r4, r0
 80024e2:	9b16      	ldr	r3, [sp, #88]	; 0x58
 80024e4:	9810      	ldr	r0, [sp, #64]	; 0x40
 80024e6:	4646      	mov	r6, r8
 80024e8:	4043      	eors	r3, r0
 80024ea:	402b      	ands	r3, r5
 80024ec:	4058      	eors	r0, r3
 80024ee:	9204      	str	r2, [sp, #16]
 80024f0:	4a61      	ldr	r2, [pc, #388]	; (8002678 <barrett_reduce+0xab8>)
 80024f2:	4b62      	ldr	r3, [pc, #392]	; (800267c <barrett_reduce+0xabc>)
 80024f4:	1992      	adds	r2, r2, r6
 80024f6:	417b      	adcs	r3, r7
 80024f8:	9212      	str	r2, [sp, #72]	; 0x48
 80024fa:	9313      	str	r3, [sp, #76]	; 0x4c
 80024fc:	46a3      	mov	fp, r4
 80024fe:	9c13      	ldr	r4, [sp, #76]	; 0x4c
 8002500:	4666      	mov	r6, ip
 8002502:	4652      	mov	r2, sl
 8002504:	4062      	eors	r2, r4
 8002506:	4c5e      	ldr	r4, [pc, #376]	; (8002680 <barrett_reduce+0xac0>)
 8002508:	4d5e      	ldr	r5, [pc, #376]	; (8002684 <barrett_reduce+0xac4>)
 800250a:	1936      	adds	r6, r6, r4
 800250c:	416f      	adcs	r7, r5
 800250e:	2300      	movs	r3, #0
 8002510:	1c34      	adds	r4, r6, #0
 8002512:	1c3d      	adds	r5, r7, #0
 8002514:	9e02      	ldr	r6, [sp, #8]
 8002516:	1aa4      	subs	r4, r4, r2
 8002518:	419d      	sbcs	r5, r3
 800251a:	2700      	movs	r7, #0
 800251c:	4652      	mov	r2, sl
 800251e:	9410      	str	r4, [sp, #64]	; 0x40
 8002520:	9511      	str	r5, [sp, #68]	; 0x44
 8002522:	406a      	eors	r2, r5
 8002524:	4c58      	ldr	r4, [pc, #352]	; (8002688 <barrett_reduce+0xac8>)
 8002526:	4d59      	ldr	r5, [pc, #356]	; (800268c <barrett_reduce+0xacc>)
 8002528:	1936      	adds	r6, r6, r4
 800252a:	416f      	adcs	r7, r5
 800252c:	1c34      	adds	r4, r6, #0
 800252e:	1c3d      	adds	r5, r7, #0
 8002530:	1aa4      	subs	r4, r4, r2
 8002532:	419d      	sbcs	r5, r3
 8002534:	1c0e      	adds	r6, r1, #0
 8002536:	4652      	mov	r2, sl
 8002538:	2700      	movs	r7, #0
 800253a:	940e      	str	r4, [sp, #56]	; 0x38
 800253c:	950f      	str	r5, [sp, #60]	; 0x3c
 800253e:	406a      	eors	r2, r5
 8002540:	4c53      	ldr	r4, [pc, #332]	; (8002690 <barrett_reduce+0xad0>)
 8002542:	4d54      	ldr	r5, [pc, #336]	; (8002694 <barrett_reduce+0xad4>)
 8002544:	1936      	adds	r6, r6, r4
 8002546:	416f      	adcs	r7, r5
 8002548:	1c34      	adds	r4, r6, #0
 800254a:	1c3d      	adds	r5, r7, #0
 800254c:	1aa4      	subs	r4, r4, r2
 800254e:	419d      	sbcs	r5, r3
 8002550:	464e      	mov	r6, r9
 8002552:	4652      	mov	r2, sl
 8002554:	2700      	movs	r7, #0
 8002556:	940c      	str	r4, [sp, #48]	; 0x30
 8002558:	950d      	str	r5, [sp, #52]	; 0x34
 800255a:	406a      	eors	r2, r5
 800255c:	4c4e      	ldr	r4, [pc, #312]	; (8002698 <barrett_reduce+0xad8>)
 800255e:	4d4f      	ldr	r5, [pc, #316]	; (800269c <barrett_reduce+0xadc>)
 8002560:	1936      	adds	r6, r6, r4
 8002562:	416f      	adcs	r7, r5
 8002564:	1c34      	adds	r4, r6, #0
 8002566:	1c3d      	adds	r5, r7, #0
 8002568:	9e04      	ldr	r6, [sp, #16]
 800256a:	1aa4      	subs	r4, r4, r2
 800256c:	419d      	sbcs	r5, r3
 800256e:	2700      	movs	r7, #0
 8002570:	4652      	mov	r2, sl
 8002572:	9408      	str	r4, [sp, #32]
 8002574:	9509      	str	r5, [sp, #36]	; 0x24
 8002576:	406a      	eors	r2, r5
 8002578:	4c47      	ldr	r4, [pc, #284]	; (8002698 <barrett_reduce+0xad8>)
 800257a:	4d48      	ldr	r5, [pc, #288]	; (800269c <barrett_reduce+0xadc>)
 800257c:	1936      	adds	r6, r6, r4
 800257e:	416f      	adcs	r7, r5
 8002580:	1c34      	adds	r4, r6, #0
 8002582:	1c3d      	adds	r5, r7, #0
 8002584:	1aa4      	subs	r4, r4, r2
 8002586:	419d      	sbcs	r5, r3
 8002588:	465e      	mov	r6, fp
 800258a:	4652      	mov	r2, sl
 800258c:	2700      	movs	r7, #0
 800258e:	940a      	str	r4, [sp, #40]	; 0x28
 8002590:	950b      	str	r5, [sp, #44]	; 0x2c
 8002592:	406a      	eors	r2, r5
 8002594:	4c40      	ldr	r4, [pc, #256]	; (8002698 <barrett_reduce+0xad8>)
 8002596:	4d41      	ldr	r5, [pc, #260]	; (800269c <barrett_reduce+0xadc>)
 8002598:	1936      	adds	r6, r6, r4
 800259a:	416f      	adcs	r7, r5
 800259c:	1c34      	adds	r4, r6, #0
 800259e:	1c3d      	adds	r5, r7, #0
 80025a0:	1aa4      	subs	r4, r4, r2
 80025a2:	419d      	sbcs	r5, r3
 80025a4:	1c06      	adds	r6, r0, #0
 80025a6:	4652      	mov	r2, sl
 80025a8:	2700      	movs	r7, #0
 80025aa:	9406      	str	r4, [sp, #24]
 80025ac:	9507      	str	r5, [sp, #28]
 80025ae:	406a      	eors	r2, r5
 80025b0:	4d30      	ldr	r5, [pc, #192]	; (8002674 <barrett_reduce+0xab4>)
 80025b2:	4c2f      	ldr	r4, [pc, #188]	; (8002670 <barrett_reduce+0xab0>)
 80025b4:	1936      	adds	r6, r6, r4
 80025b6:	416f      	adcs	r7, r5
 80025b8:	1c34      	adds	r4, r6, #0
 80025ba:	1c3d      	adds	r5, r7, #0
 80025bc:	1aa4      	subs	r4, r4, r2
 80025be:	419d      	sbcs	r5, r3
 80025c0:	4657      	mov	r7, sl
 80025c2:	406f      	eors	r7, r5
 80025c4:	9d12      	ldr	r5, [sp, #72]	; 0x48
 80025c6:	4646      	mov	r6, r8
 80025c8:	3f01      	subs	r7, #1
 80025ca:	406e      	eors	r6, r5
 80025cc:	1c22      	adds	r2, r4, #0
 80025ce:	9d9e      	ldr	r5, [sp, #632]	; 0x278
 80025d0:	4644      	mov	r4, r8
 80025d2:	403e      	ands	r6, r7
 80025d4:	4066      	eors	r6, r4
 80025d6:	9c10      	ldr	r4, [sp, #64]	; 0x40
 80025d8:	602e      	str	r6, [r5, #0]
 80025da:	4666      	mov	r6, ip
 80025dc:	4066      	eors	r6, r4
 80025de:	4665      	mov	r5, ip
 80025e0:	9c9e      	ldr	r4, [sp, #632]	; 0x278
 80025e2:	403e      	ands	r6, r7
 80025e4:	406e      	eors	r6, r5
 80025e6:	6066      	str	r6, [r4, #4]
 80025e8:	9d0e      	ldr	r5, [sp, #56]	; 0x38
 80025ea:	9e02      	ldr	r6, [sp, #8]
 80025ec:	9c02      	ldr	r4, [sp, #8]
 80025ee:	406e      	eors	r6, r5
 80025f0:	403e      	ands	r6, r7
 80025f2:	9d9e      	ldr	r5, [sp, #632]	; 0x278
 80025f4:	4066      	eors	r6, r4
 80025f6:	60ae      	str	r6, [r5, #8]
 80025f8:	9e0c      	ldr	r6, [sp, #48]	; 0x30
 80025fa:	464c      	mov	r4, r9
 80025fc:	404e      	eors	r6, r1
 80025fe:	403e      	ands	r6, r7
 8002600:	404e      	eors	r6, r1
 8002602:	9908      	ldr	r1, [sp, #32]
 8002604:	60ee      	str	r6, [r5, #12]
 8002606:	464d      	mov	r5, r9
 8002608:	404d      	eors	r5, r1
 800260a:	403d      	ands	r5, r7
 800260c:	4065      	eors	r5, r4
 800260e:	9c9e      	ldr	r4, [sp, #632]	; 0x278
 8002610:	1c03      	adds	r3, r0, #0
 8002612:	6125      	str	r5, [r4, #16]
 8002614:	9d0a      	ldr	r5, [sp, #40]	; 0x28
 8002616:	9e04      	ldr	r6, [sp, #16]
 8002618:	9904      	ldr	r1, [sp, #16]
 800261a:	406e      	eors	r6, r5
 800261c:	403e      	ands	r6, r7
 800261e:	404e      	eors	r6, r1
 8002620:	9d06      	ldr	r5, [sp, #24]
 8002622:	6166      	str	r6, [r4, #20]
 8002624:	465c      	mov	r4, fp
 8002626:	406c      	eors	r4, r5
 8002628:	4053      	eors	r3, r2
 800262a:	9d9e      	ldr	r5, [sp, #632]	; 0x278
 800262c:	403c      	ands	r4, r7
 800262e:	4659      	mov	r1, fp
 8002630:	403b      	ands	r3, r7
 8002632:	404c      	eors	r4, r1
 8002634:	4043      	eors	r3, r0
 8002636:	61ac      	str	r4, [r5, #24]
 8002638:	61eb      	str	r3, [r5, #28]
 800263a:	23cd      	movs	r3, #205	; 0xcd
 800263c:	009b      	lsls	r3, r3, #2
 800263e:	449d      	add	sp, r3
 8002640:	bc3c      	pop	{r2, r3, r4, r5}
 8002642:	4690      	mov	r8, r2
 8002644:	4699      	mov	r9, r3
 8002646:	46a2      	mov	sl, r4
 8002648:	46ab      	mov	fp, r5
 800264a:	bdf0      	pop	{r4, r5, r6, r7, pc}
 800264c:	9c9d      	ldr	r4, [sp, #628]	; 0x274
 800264e:	2201      	movs	r2, #1
 8002650:	2304      	movs	r3, #4
 8002652:	3401      	adds	r4, #1
 8002654:	4490      	add	r8, r2
 8002656:	449a      	add	sl, r3
 8002658:	949d      	str	r4, [sp, #628]	; 0x274
 800265a:	f7ff fad9 	bl	8001c10 <barrett_reduce+0x50>
 800265e:	9c9d      	ldr	r4, [sp, #628]	; 0x274
 8002660:	2c09      	cmp	r4, #9
 8002662:	d1f3      	bne.n	800264c <barrett_reduce+0xa8c>
 8002664:	9db9      	ldr	r5, [sp, #740]	; 0x2e4
 8002666:	46a8      	mov	r8, r5
 8002668:	f7ff fc1b 	bl	8001ea2 <barrett_reduce+0x2e2>
 800266c:	46c0      	nop			; (mov r8, r8)
 800266e:	46c0      	nop			; (mov r8, r8)
 8002670:	f0000000 	.word	0xf0000000
 8002674:	00000000 	.word	0x00000000
 8002678:	a30a2c13 	.word	0xa30a2c13
 800267c:	00000000 	.word	0x00000000
 8002680:	a7ed9ce6 	.word	0xa7ed9ce6
 8002684:	00000000 	.word	0x00000000
 8002688:	5d08632a 	.word	0x5d08632a
 800268c:	00000000 	.word	0x00000000
 8002690:	eb210622 	.word	0xeb210622
	...
 800269c:	00000001 	.word	0x00000001

080026a0 <AES_general_SW_enc>:
 80026a0:	b5f0      	push	{r4, r5, r6, r7, lr}
 80026a2:	465f      	mov	r7, fp
 80026a4:	4656      	mov	r6, sl
 80026a6:	464d      	mov	r5, r9
 80026a8:	4644      	mov	r4, r8
 80026aa:	b4f0      	push	{r4, r5, r6, r7}
 80026ac:	10db      	asrs	r3, r3, #3
 80026ae:	b089      	sub	sp, #36	; 0x24
 80026b0:	3303      	adds	r3, #3
 80026b2:	9304      	str	r3, [sp, #16]
 80026b4:	2300      	movs	r3, #0
 80026b6:	9307      	str	r3, [sp, #28]
 80026b8:	4be8      	ldr	r3, [pc, #928]	; (8002a5c <AES_general_SW_enc+0x3bc>)
 80026ba:	9105      	str	r1, [sp, #20]
 80026bc:	2101      	movs	r1, #1
 80026be:	6019      	str	r1, [r3, #0]
 80026c0:	681b      	ldr	r3, [r3, #0]
 80026c2:	9307      	str	r3, [sp, #28]
 80026c4:	4be6      	ldr	r3, [pc, #920]	; (8002a60 <AES_general_SW_enc+0x3c0>)
 80026c6:	6819      	ldr	r1, [r3, #0]
 80026c8:	9107      	str	r1, [sp, #28]
 80026ca:	9907      	ldr	r1, [sp, #28]
 80026cc:	3101      	adds	r1, #1
 80026ce:	d100      	bne.n	80026d2 <AES_general_SW_enc+0x32>
 80026d0:	e1a3      	b.n	8002a1a <AES_general_SW_enc+0x37a>
 80026d2:	6847      	ldr	r7, [r0, #4]
 80026d4:	6856      	ldr	r6, [r2, #4]
 80026d6:	407e      	eors	r6, r7
 80026d8:	46b2      	mov	sl, r6
 80026da:	6806      	ldr	r6, [r0, #0]
 80026dc:	6810      	ldr	r0, [r2, #0]
 80026de:	4046      	eors	r6, r0
 80026e0:	46b0      	mov	r8, r6
 80026e2:	46b1      	mov	r9, r6
 80026e4:	4657      	mov	r7, sl
 80026e6:	9702      	str	r7, [sp, #8]
 80026e8:	46b4      	mov	ip, r6
 80026ea:	464f      	mov	r7, r9
 80026ec:	4bdd      	ldr	r3, [pc, #884]	; (8002a64 <AES_general_SW_enc+0x3c4>)
 80026ee:	21ff      	movs	r1, #255	; 0xff
 80026f0:	2518      	movs	r5, #24
 80026f2:	2408      	movs	r4, #8
 80026f4:	2010      	movs	r0, #16
 80026f6:	9701      	str	r7, [sp, #4]
 80026f8:	46e1      	mov	r9, ip
 80026fa:	e087      	b.n	800280c <AES_general_SW_enc+0x16c>
 80026fc:	9f03      	ldr	r7, [sp, #12]
 80026fe:	0e3e      	lsrs	r6, r7, #24
 8002700:	00b6      	lsls	r6, r6, #2
 8002702:	599f      	ldr	r7, [r3, r6]
 8002704:	6816      	ldr	r6, [r2, #0]
 8002706:	4077      	eors	r7, r6
 8002708:	4646      	mov	r6, r8
 800270a:	400e      	ands	r6, r1
 800270c:	00b6      	lsls	r6, r6, #2
 800270e:	599e      	ldr	r6, [r3, r6]
 8002710:	41ee      	rors	r6, r5
 8002712:	4077      	eors	r7, r6
 8002714:	46b9      	mov	r9, r7
 8002716:	4657      	mov	r7, sl
 8002718:	0c3e      	lsrs	r6, r7, #16
 800271a:	400e      	ands	r6, r1
 800271c:	00b6      	lsls	r6, r6, #2
 800271e:	599e      	ldr	r6, [r3, r6]
 8002720:	464f      	mov	r7, r9
 8002722:	41e6      	rors	r6, r4
 8002724:	4077      	eors	r7, r6
 8002726:	46b9      	mov	r9, r7
 8002728:	4667      	mov	r7, ip
 800272a:	0a3e      	lsrs	r6, r7, #8
 800272c:	400e      	ands	r6, r1
 800272e:	00b6      	lsls	r6, r6, #2
 8002730:	599e      	ldr	r6, [r3, r6]
 8002732:	464f      	mov	r7, r9
 8002734:	41c6      	rors	r6, r0
 8002736:	4077      	eors	r7, r6
 8002738:	9702      	str	r7, [sp, #8]
 800273a:	4657      	mov	r7, sl
 800273c:	0e3e      	lsrs	r6, r7, #24
 800273e:	00b6      	lsls	r6, r6, #2
 8002740:	599e      	ldr	r6, [r3, r6]
 8002742:	6857      	ldr	r7, [r2, #4]
 8002744:	4077      	eors	r7, r6
 8002746:	9e03      	ldr	r6, [sp, #12]
 8002748:	400e      	ands	r6, r1
 800274a:	00b6      	lsls	r6, r6, #2
 800274c:	599e      	ldr	r6, [r3, r6]
 800274e:	41ee      	rors	r6, r5
 8002750:	4077      	eors	r7, r6
 8002752:	46b9      	mov	r9, r7
 8002754:	4667      	mov	r7, ip
 8002756:	0c3e      	lsrs	r6, r7, #16
 8002758:	400e      	ands	r6, r1
 800275a:	00b6      	lsls	r6, r6, #2
 800275c:	599e      	ldr	r6, [r3, r6]
 800275e:	464f      	mov	r7, r9
 8002760:	41e6      	rors	r6, r4
 8002762:	4077      	eors	r7, r6
 8002764:	46b9      	mov	r9, r7
 8002766:	4647      	mov	r7, r8
 8002768:	0a3e      	lsrs	r6, r7, #8
 800276a:	400e      	ands	r6, r1
 800276c:	00b6      	lsls	r6, r6, #2
 800276e:	599e      	ldr	r6, [r3, r6]
 8002770:	464f      	mov	r7, r9
 8002772:	41c6      	rors	r6, r0
 8002774:	4077      	eors	r7, r6
 8002776:	4666      	mov	r6, ip
 8002778:	0e36      	lsrs	r6, r6, #24
 800277a:	00b6      	lsls	r6, r6, #2
 800277c:	9701      	str	r7, [sp, #4]
 800277e:	599f      	ldr	r7, [r3, r6]
 8002780:	1c3e      	adds	r6, r7, #0
 8002782:	6897      	ldr	r7, [r2, #8]
 8002784:	407e      	eors	r6, r7
 8002786:	46b3      	mov	fp, r6
 8002788:	4656      	mov	r6, sl
 800278a:	400e      	ands	r6, r1
 800278c:	00b6      	lsls	r6, r6, #2
 800278e:	599f      	ldr	r7, [r3, r6]
 8002790:	1c3e      	adds	r6, r7, #0
 8002792:	41ee      	rors	r6, r5
 8002794:	465f      	mov	r7, fp
 8002796:	4077      	eors	r7, r6
 8002798:	4646      	mov	r6, r8
 800279a:	0c36      	lsrs	r6, r6, #16
 800279c:	400e      	ands	r6, r1
 800279e:	00b6      	lsls	r6, r6, #2
 80027a0:	46b9      	mov	r9, r7
 80027a2:	599f      	ldr	r7, [r3, r6]
 80027a4:	1c3e      	adds	r6, r7, #0
 80027a6:	41e6      	rors	r6, r4
 80027a8:	464f      	mov	r7, r9
 80027aa:	4077      	eors	r7, r6
 80027ac:	9e03      	ldr	r6, [sp, #12]
 80027ae:	46b9      	mov	r9, r7
 80027b0:	0a36      	lsrs	r6, r6, #8
 80027b2:	400e      	ands	r6, r1
 80027b4:	00b6      	lsls	r6, r6, #2
 80027b6:	599f      	ldr	r7, [r3, r6]
 80027b8:	1c3e      	adds	r6, r7, #0
 80027ba:	41c6      	rors	r6, r0
 80027bc:	464f      	mov	r7, r9
 80027be:	4077      	eors	r7, r6
 80027c0:	4646      	mov	r6, r8
 80027c2:	0e36      	lsrs	r6, r6, #24
 80027c4:	00b6      	lsls	r6, r6, #2
 80027c6:	46b9      	mov	r9, r7
 80027c8:	599f      	ldr	r7, [r3, r6]
 80027ca:	1c3e      	adds	r6, r7, #0
 80027cc:	68d7      	ldr	r7, [r2, #12]
 80027ce:	407e      	eors	r6, r7
 80027d0:	46b3      	mov	fp, r6
 80027d2:	4666      	mov	r6, ip
 80027d4:	400e      	ands	r6, r1
 80027d6:	00b6      	lsls	r6, r6, #2
 80027d8:	599f      	ldr	r7, [r3, r6]
 80027da:	1c3e      	adds	r6, r7, #0
 80027dc:	41ee      	rors	r6, r5
 80027de:	465f      	mov	r7, fp
 80027e0:	4077      	eors	r7, r6
 80027e2:	9e03      	ldr	r6, [sp, #12]
 80027e4:	46bb      	mov	fp, r7
 80027e6:	0c36      	lsrs	r6, r6, #16
 80027e8:	400e      	ands	r6, r1
 80027ea:	00b6      	lsls	r6, r6, #2
 80027ec:	599f      	ldr	r7, [r3, r6]
 80027ee:	1c3e      	adds	r6, r7, #0
 80027f0:	41e6      	rors	r6, r4
 80027f2:	465f      	mov	r7, fp
 80027f4:	4077      	eors	r7, r6
 80027f6:	4656      	mov	r6, sl
 80027f8:	0a36      	lsrs	r6, r6, #8
 80027fa:	400e      	ands	r6, r1
 80027fc:	00b6      	lsls	r6, r6, #2
 80027fe:	46b8      	mov	r8, r7
 8002800:	599f      	ldr	r7, [r3, r6]
 8002802:	1c3e      	adds	r6, r7, #0
 8002804:	41c6      	rors	r6, r0
 8002806:	4647      	mov	r7, r8
 8002808:	4077      	eors	r7, r6
 800280a:	46b8      	mov	r8, r7
 800280c:	9e02      	ldr	r6, [sp, #8]
 800280e:	0e36      	lsrs	r6, r6, #24
 8002810:	00b6      	lsls	r6, r6, #2
 8002812:	599f      	ldr	r7, [r3, r6]
 8002814:	1c3e      	adds	r6, r7, #0
 8002816:	6917      	ldr	r7, [r2, #16]
 8002818:	407e      	eors	r6, r7
 800281a:	46b2      	mov	sl, r6
 800281c:	4646      	mov	r6, r8
 800281e:	400e      	ands	r6, r1
 8002820:	00b6      	lsls	r6, r6, #2
 8002822:	599f      	ldr	r7, [r3, r6]
 8002824:	1c3e      	adds	r6, r7, #0
 8002826:	41ee      	rors	r6, r5
 8002828:	4657      	mov	r7, sl
 800282a:	4077      	eors	r7, r6
 800282c:	9e01      	ldr	r6, [sp, #4]
 800282e:	46ba      	mov	sl, r7
 8002830:	0c36      	lsrs	r6, r6, #16
 8002832:	400e      	ands	r6, r1
 8002834:	00b6      	lsls	r6, r6, #2
 8002836:	599f      	ldr	r7, [r3, r6]
 8002838:	1c3e      	adds	r6, r7, #0
 800283a:	41e6      	rors	r6, r4
 800283c:	4657      	mov	r7, sl
 800283e:	4077      	eors	r7, r6
 8002840:	464e      	mov	r6, r9
 8002842:	0a36      	lsrs	r6, r6, #8
 8002844:	400e      	ands	r6, r1
 8002846:	00b6      	lsls	r6, r6, #2
 8002848:	46ba      	mov	sl, r7
 800284a:	599f      	ldr	r7, [r3, r6]
 800284c:	1c3e      	adds	r6, r7, #0
 800284e:	41c6      	rors	r6, r0
 8002850:	4657      	mov	r7, sl
 8002852:	4077      	eors	r7, r6
 8002854:	9e01      	ldr	r6, [sp, #4]
 8002856:	9703      	str	r7, [sp, #12]
 8002858:	0e36      	lsrs	r6, r6, #24
 800285a:	00b6      	lsls	r6, r6, #2
 800285c:	599f      	ldr	r7, [r3, r6]
 800285e:	1c3e      	adds	r6, r7, #0
 8002860:	6957      	ldr	r7, [r2, #20]
 8002862:	407e      	eors	r6, r7
 8002864:	46b2      	mov	sl, r6
 8002866:	9e02      	ldr	r6, [sp, #8]
 8002868:	400e      	ands	r6, r1
 800286a:	00b6      	lsls	r6, r6, #2
 800286c:	599f      	ldr	r7, [r3, r6]
 800286e:	1c3e      	adds	r6, r7, #0
 8002870:	41ee      	rors	r6, r5
 8002872:	4657      	mov	r7, sl
 8002874:	4077      	eors	r7, r6
 8002876:	464e      	mov	r6, r9
 8002878:	0c36      	lsrs	r6, r6, #16
 800287a:	400e      	ands	r6, r1
 800287c:	00b6      	lsls	r6, r6, #2
 800287e:	46ba      	mov	sl, r7
 8002880:	599f      	ldr	r7, [r3, r6]
 8002882:	1c3e      	adds	r6, r7, #0
 8002884:	41e6      	rors	r6, r4
 8002886:	4657      	mov	r7, sl
 8002888:	4077      	eors	r7, r6
 800288a:	4646      	mov	r6, r8
 800288c:	0a36      	lsrs	r6, r6, #8
 800288e:	400e      	ands	r6, r1
 8002890:	00b6      	lsls	r6, r6, #2
 8002892:	46ba      	mov	sl, r7
 8002894:	599f      	ldr	r7, [r3, r6]
 8002896:	1c3e      	adds	r6, r7, #0
 8002898:	41c6      	rors	r6, r0
 800289a:	4657      	mov	r7, sl
 800289c:	4077      	eors	r7, r6
 800289e:	464e      	mov	r6, r9
 80028a0:	0e36      	lsrs	r6, r6, #24
 80028a2:	00b6      	lsls	r6, r6, #2
 80028a4:	46ba      	mov	sl, r7
 80028a6:	599f      	ldr	r7, [r3, r6]
 80028a8:	1c3e      	adds	r6, r7, #0
 80028aa:	6997      	ldr	r7, [r2, #24]
 80028ac:	407e      	eors	r6, r7
 80028ae:	46b3      	mov	fp, r6
 80028b0:	9e01      	ldr	r6, [sp, #4]
 80028b2:	400e      	ands	r6, r1
 80028b4:	00b6      	lsls	r6, r6, #2
 80028b6:	599f      	ldr	r7, [r3, r6]
 80028b8:	1c3e      	adds	r6, r7, #0
 80028ba:	41ee      	rors	r6, r5
 80028bc:	465f      	mov	r7, fp
 80028be:	4077      	eors	r7, r6
 80028c0:	4646      	mov	r6, r8
 80028c2:	0c36      	lsrs	r6, r6, #16
 80028c4:	400e      	ands	r6, r1
 80028c6:	00b6      	lsls	r6, r6, #2
 80028c8:	46bc      	mov	ip, r7
 80028ca:	599f      	ldr	r7, [r3, r6]
 80028cc:	1c3e      	adds	r6, r7, #0
 80028ce:	41e6      	rors	r6, r4
 80028d0:	4667      	mov	r7, ip
 80028d2:	4077      	eors	r7, r6
 80028d4:	9e02      	ldr	r6, [sp, #8]
 80028d6:	46bc      	mov	ip, r7
 80028d8:	0a36      	lsrs	r6, r6, #8
 80028da:	400e      	ands	r6, r1
 80028dc:	00b6      	lsls	r6, r6, #2
 80028de:	599f      	ldr	r7, [r3, r6]
 80028e0:	1c3e      	adds	r6, r7, #0
 80028e2:	41c6      	rors	r6, r0
 80028e4:	4667      	mov	r7, ip
 80028e6:	4077      	eors	r7, r6
 80028e8:	4646      	mov	r6, r8
 80028ea:	0e36      	lsrs	r6, r6, #24
 80028ec:	00b6      	lsls	r6, r6, #2
 80028ee:	46bc      	mov	ip, r7
 80028f0:	599f      	ldr	r7, [r3, r6]
 80028f2:	1c3e      	adds	r6, r7, #0
 80028f4:	69d7      	ldr	r7, [r2, #28]
 80028f6:	3220      	adds	r2, #32
 80028f8:	407e      	eors	r6, r7
 80028fa:	46b3      	mov	fp, r6
 80028fc:	464e      	mov	r6, r9
 80028fe:	400e      	ands	r6, r1
 8002900:	00b6      	lsls	r6, r6, #2
 8002902:	599f      	ldr	r7, [r3, r6]
 8002904:	1c3e      	adds	r6, r7, #0
 8002906:	41ee      	rors	r6, r5
 8002908:	465f      	mov	r7, fp
 800290a:	4077      	eors	r7, r6
 800290c:	9e02      	ldr	r6, [sp, #8]
 800290e:	46bb      	mov	fp, r7
 8002910:	0c37      	lsrs	r7, r6, #16
 8002912:	400f      	ands	r7, r1
 8002914:	00bf      	lsls	r7, r7, #2
 8002916:	59df      	ldr	r7, [r3, r7]
 8002918:	465e      	mov	r6, fp
 800291a:	41e7      	rors	r7, r4
 800291c:	407e      	eors	r6, r7
 800291e:	9f01      	ldr	r7, [sp, #4]
 8002920:	46b0      	mov	r8, r6
 8002922:	0a3e      	lsrs	r6, r7, #8
 8002924:	400e      	ands	r6, r1
 8002926:	00b6      	lsls	r6, r6, #2
 8002928:	599e      	ldr	r6, [r3, r6]
 800292a:	4647      	mov	r7, r8
 800292c:	41c6      	rors	r6, r0
 800292e:	4077      	eors	r7, r6
 8002930:	9e04      	ldr	r6, [sp, #16]
 8002932:	46b8      	mov	r8, r7
 8002934:	3e01      	subs	r6, #1
 8002936:	9604      	str	r6, [sp, #16]
 8002938:	2e00      	cmp	r6, #0
 800293a:	dd00      	ble.n	800293e <AES_general_SW_enc+0x29e>
 800293c:	e6de      	b.n	80026fc <AES_general_SW_enc+0x5c>
 800293e:	9803      	ldr	r0, [sp, #12]
 8002940:	4b49      	ldr	r3, [pc, #292]	; (8002a68 <AES_general_SW_enc+0x3c8>)
 8002942:	4644      	mov	r4, r8
 8002944:	0e01      	lsrs	r1, r0, #24
 8002946:	20ff      	movs	r0, #255	; 0xff
 8002948:	5c59      	ldrb	r1, [r3, r1]
 800294a:	4020      	ands	r0, r4
 800294c:	5c18      	ldrb	r0, [r3, r0]
 800294e:	4657      	mov	r7, sl
 8002950:	0609      	lsls	r1, r1, #24
 8002952:	26ff      	movs	r6, #255	; 0xff
 8002954:	4301      	orrs	r1, r0
 8002956:	0c38      	lsrs	r0, r7, #16
 8002958:	4030      	ands	r0, r6
 800295a:	5c18      	ldrb	r0, [r3, r0]
 800295c:	4664      	mov	r4, ip
 800295e:	0400      	lsls	r0, r0, #16
 8002960:	4301      	orrs	r1, r0
 8002962:	0a20      	lsrs	r0, r4, #8
 8002964:	4030      	ands	r0, r6
 8002966:	5c18      	ldrb	r0, [r3, r0]
 8002968:	6816      	ldr	r6, [r2, #0]
 800296a:	0200      	lsls	r0, r0, #8
 800296c:	4301      	orrs	r1, r0
 800296e:	9805      	ldr	r0, [sp, #20]
 8002970:	4071      	eors	r1, r6
 8002972:	9c03      	ldr	r4, [sp, #12]
 8002974:	6001      	str	r1, [r0, #0]
 8002976:	0e39      	lsrs	r1, r7, #24
 8002978:	20ff      	movs	r0, #255	; 0xff
 800297a:	5c59      	ldrb	r1, [r3, r1]
 800297c:	4020      	ands	r0, r4
 800297e:	5c18      	ldrb	r0, [r3, r0]
 8002980:	4666      	mov	r6, ip
 8002982:	0609      	lsls	r1, r1, #24
 8002984:	24ff      	movs	r4, #255	; 0xff
 8002986:	4301      	orrs	r1, r0
 8002988:	0c30      	lsrs	r0, r6, #16
 800298a:	4020      	ands	r0, r4
 800298c:	5c18      	ldrb	r0, [r3, r0]
 800298e:	4646      	mov	r6, r8
 8002990:	0400      	lsls	r0, r0, #16
 8002992:	4301      	orrs	r1, r0
 8002994:	0a30      	lsrs	r0, r6, #8
 8002996:	4020      	ands	r0, r4
 8002998:	5c18      	ldrb	r0, [r3, r0]
 800299a:	9c05      	ldr	r4, [sp, #20]
 800299c:	0200      	lsls	r0, r0, #8
 800299e:	4301      	orrs	r1, r0
 80029a0:	6850      	ldr	r0, [r2, #4]
 80029a2:	4666      	mov	r6, ip
 80029a4:	4041      	eors	r1, r0
 80029a6:	6061      	str	r1, [r4, #4]
 80029a8:	20ff      	movs	r0, #255	; 0xff
 80029aa:	0e31      	lsrs	r1, r6, #24
 80029ac:	5c59      	ldrb	r1, [r3, r1]
 80029ae:	4038      	ands	r0, r7
 80029b0:	5c18      	ldrb	r0, [r3, r0]
 80029b2:	4644      	mov	r4, r8
 80029b4:	0609      	lsls	r1, r1, #24
 80029b6:	26ff      	movs	r6, #255	; 0xff
 80029b8:	4301      	orrs	r1, r0
 80029ba:	0c20      	lsrs	r0, r4, #16
 80029bc:	4030      	ands	r0, r6
 80029be:	5c18      	ldrb	r0, [r3, r0]
 80029c0:	9c03      	ldr	r4, [sp, #12]
 80029c2:	0400      	lsls	r0, r0, #16
 80029c4:	4301      	orrs	r1, r0
 80029c6:	0a20      	lsrs	r0, r4, #8
 80029c8:	4030      	ands	r0, r6
 80029ca:	5c18      	ldrb	r0, [r3, r0]
 80029cc:	6896      	ldr	r6, [r2, #8]
 80029ce:	0200      	lsls	r0, r0, #8
 80029d0:	4301      	orrs	r1, r0
 80029d2:	9805      	ldr	r0, [sp, #20]
 80029d4:	4071      	eors	r1, r6
 80029d6:	4644      	mov	r4, r8
 80029d8:	6081      	str	r1, [r0, #8]
 80029da:	0e21      	lsrs	r1, r4, #24
 80029dc:	5c58      	ldrb	r0, [r3, r1]
 80029de:	4666      	mov	r6, ip
 80029e0:	21ff      	movs	r1, #255	; 0xff
 80029e2:	4031      	ands	r1, r6
 80029e4:	5c59      	ldrb	r1, [r3, r1]
 80029e6:	9c03      	ldr	r4, [sp, #12]
 80029e8:	0600      	lsls	r0, r0, #24
 80029ea:	26ff      	movs	r6, #255	; 0xff
 80029ec:	4308      	orrs	r0, r1
 80029ee:	0c21      	lsrs	r1, r4, #16
 80029f0:	4031      	ands	r1, r6
 80029f2:	5c59      	ldrb	r1, [r3, r1]
 80029f4:	0a3f      	lsrs	r7, r7, #8
 80029f6:	4037      	ands	r7, r6
 80029f8:	0409      	lsls	r1, r1, #16
 80029fa:	4308      	orrs	r0, r1
 80029fc:	5dd9      	ldrb	r1, [r3, r7]
 80029fe:	68d2      	ldr	r2, [r2, #12]
 8002a00:	0209      	lsls	r1, r1, #8
 8002a02:	1c03      	adds	r3, r0, #0
 8002a04:	430b      	orrs	r3, r1
 8002a06:	9f05      	ldr	r7, [sp, #20]
 8002a08:	4053      	eors	r3, r2
 8002a0a:	60fb      	str	r3, [r7, #12]
 8002a0c:	b009      	add	sp, #36	; 0x24
 8002a0e:	bc3c      	pop	{r2, r3, r4, r5}
 8002a10:	4690      	mov	r8, r2
 8002a12:	4699      	mov	r9, r3
 8002a14:	46a2      	mov	sl, r4
 8002a16:	46ab      	mov	fp, r5
 8002a18:	bdf0      	pop	{r4, r5, r6, r7, pc}
 8002a1a:	9907      	ldr	r1, [sp, #28]
 8002a1c:	6019      	str	r1, [r3, #0]
 8002a1e:	681b      	ldr	r3, [r3, #0]
 8002a20:	9307      	str	r3, [sp, #28]
 8002a22:	9b07      	ldr	r3, [sp, #28]
 8002a24:	2b00      	cmp	r3, #0
 8002a26:	d10f      	bne.n	8002a48 <AES_general_SW_enc+0x3a8>
 8002a28:	6803      	ldr	r3, [r0, #0]
 8002a2a:	6811      	ldr	r1, [r2, #0]
 8002a2c:	6846      	ldr	r6, [r0, #4]
 8002a2e:	6854      	ldr	r4, [r2, #4]
 8002a30:	4059      	eors	r1, r3
 8002a32:	6887      	ldr	r7, [r0, #8]
 8002a34:	68c3      	ldr	r3, [r0, #12]
 8002a36:	68d0      	ldr	r0, [r2, #12]
 8002a38:	4074      	eors	r4, r6
 8002a3a:	6896      	ldr	r6, [r2, #8]
 8002a3c:	4058      	eors	r0, r3
 8002a3e:	468a      	mov	sl, r1
 8002a40:	46a1      	mov	r9, r4
 8002a42:	407e      	eors	r6, r7
 8002a44:	4680      	mov	r8, r0
 8002a46:	e64d      	b.n	80026e4 <AES_general_SW_enc+0x44>
 8002a48:	6851      	ldr	r1, [r2, #4]
 8002a4a:	6843      	ldr	r3, [r0, #4]
 8002a4c:	6806      	ldr	r6, [r0, #0]
 8002a4e:	6814      	ldr	r4, [r2, #0]
 8002a50:	4059      	eors	r1, r3
 8002a52:	4066      	eors	r6, r4
 8002a54:	468a      	mov	sl, r1
 8002a56:	46b0      	mov	r8, r6
 8002a58:	46b1      	mov	r9, r6
 8002a5a:	e643      	b.n	80026e4 <AES_general_SW_enc+0x44>
 8002a5c:	40023008 	.word	0x40023008
 8002a60:	40023000 	.word	0x40023000
 8002a64:	08007318 	.word	0x08007318
 8002a68:	0800773c 	.word	0x0800773c

08002a6c <DRBG_AES128_Block_cipher_df.constprop.37>:
 8002a6c:	b5f0      	push	{r4, r5, r6, r7, lr}
 8002a6e:	4656      	mov	r6, sl
 8002a70:	464d      	mov	r5, r9
 8002a72:	465f      	mov	r7, fp
 8002a74:	4644      	mov	r4, r8
 8002a76:	b4f0      	push	{r4, r5, r6, r7}
 8002a78:	1c0d      	adds	r5, r1, #0
 8002a7a:	4991      	ldr	r1, [pc, #580]	; (8002cc0 <DRBG_AES128_Block_cipher_df.constprop.37+0x254>)
 8002a7c:	b0ff      	sub	sp, #508	; 0x1fc
 8002a7e:	4682      	mov	sl, r0
 8002a80:	4691      	mov	r9, r2
 8002a82:	a852      	add	r0, sp, #328	; 0x148
 8002a84:	3168      	adds	r1, #104	; 0x68
 8002a86:	22b0      	movs	r2, #176	; 0xb0
 8002a88:	1c2e      	adds	r6, r5, #0
 8002a8a:	3619      	adds	r6, #25
 8002a8c:	f004 f90c 	bl	8006ca8 <memcpy>
 8002a90:	230f      	movs	r3, #15
 8002a92:	46b0      	mov	r8, r6
 8002a94:	4033      	ands	r3, r6
 8002a96:	2700      	movs	r7, #0
 8002a98:	2b00      	cmp	r3, #0
 8002a9a:	d003      	beq.n	8002aa4 <DRBG_AES128_Block_cipher_df.constprop.37+0x38>
 8002a9c:	2710      	movs	r7, #16
 8002a9e:	1aff      	subs	r7, r7, r3
 8002aa0:	19f2      	adds	r2, r6, r7
 8002aa2:	4690      	mov	r8, r2
 8002aa4:	233b      	movs	r3, #59	; 0x3b
 8002aa6:	446b      	add	r3, sp
 8002aa8:	243a      	movs	r4, #58	; 0x3a
 8002aaa:	701d      	strb	r5, [r3, #0]
 8002aac:	446c      	add	r4, sp
 8002aae:	0a2b      	lsrs	r3, r5, #8
 8002ab0:	2239      	movs	r2, #57	; 0x39
 8002ab2:	7023      	strb	r3, [r4, #0]
 8002ab4:	446a      	add	r2, sp
 8002ab6:	0c2b      	lsrs	r3, r5, #16
 8002ab8:	7013      	strb	r3, [r2, #0]
 8002aba:	ac0e      	add	r4, sp, #56	; 0x38
 8002abc:	0e2b      	lsrs	r3, r5, #24
 8002abe:	223f      	movs	r2, #63	; 0x3f
 8002ac0:	7023      	strb	r3, [r4, #0]
 8002ac2:	446a      	add	r2, sp
 8002ac4:	2320      	movs	r3, #32
 8002ac6:	7013      	strb	r3, [r2, #0]
 8002ac8:	243e      	movs	r4, #62	; 0x3e
 8002aca:	223d      	movs	r2, #61	; 0x3d
 8002acc:	2300      	movs	r3, #0
 8002ace:	446c      	add	r4, sp
 8002ad0:	446a      	add	r2, sp
 8002ad2:	7023      	strb	r3, [r4, #0]
 8002ad4:	7013      	strb	r3, [r2, #0]
 8002ad6:	ac0f      	add	r4, sp, #60	; 0x3c
 8002ad8:	1c2a      	adds	r2, r5, #0
 8002ada:	a810      	add	r0, sp, #64	; 0x40
 8002adc:	4651      	mov	r1, sl
 8002ade:	7023      	strb	r3, [r4, #0]
 8002ae0:	f004 f8e2 	bl	8006ca8 <memcpy>
 8002ae4:	aa0a      	add	r2, sp, #40	; 0x28
 8002ae6:	1955      	adds	r5, r2, r5
 8002ae8:	2380      	movs	r3, #128	; 0x80
 8002aea:	762b      	strb	r3, [r5, #24]
 8002aec:	2f00      	cmp	r7, #0
 8002aee:	d005      	beq.n	8002afc <DRBG_AES128_Block_cipher_df.constprop.37+0x90>
 8002af0:	ac0a      	add	r4, sp, #40	; 0x28
 8002af2:	19a0      	adds	r0, r4, r6
 8002af4:	2100      	movs	r1, #0
 8002af6:	1c3a      	adds	r2, r7, #0
 8002af8:	f004 f8f2 	bl	8006ce0 <memset>
 8002afc:	2300      	movs	r3, #0
 8002afe:	930a      	str	r3, [sp, #40]	; 0x28
 8002b00:	930b      	str	r3, [sp, #44]	; 0x2c
 8002b02:	930c      	str	r3, [sp, #48]	; 0x30
 8002b04:	930d      	str	r3, [sp, #52]	; 0x34
 8002b06:	9302      	str	r3, [sp, #8]
 8002b08:	9303      	str	r3, [sp, #12]
 8002b0a:	9304      	str	r3, [sp, #16]
 8002b0c:	9305      	str	r3, [sp, #20]
 8002b0e:	4643      	mov	r3, r8
 8002b10:	091f      	lsrs	r7, r3, #4
 8002b12:	d100      	bne.n	8002b16 <DRBG_AES128_Block_cipher_df.constprop.37+0xaa>
 8002b14:	e0c9      	b.n	8002caa <DRBG_AES128_Block_cipher_df.constprop.37+0x23e>
 8002b16:	2600      	movs	r6, #0
 8002b18:	ac02      	add	r4, sp, #8
 8002b1a:	9601      	str	r6, [sp, #4]
 8002b1c:	46b2      	mov	sl, r6
 8002b1e:	ad0a      	add	r5, sp, #40	; 0x28
 8002b20:	2000      	movs	r0, #0
 8002b22:	2100      	movs	r1, #0
 8002b24:	2200      	movs	r2, #0
 8002b26:	ae26      	add	r6, sp, #152	; 0x98
 8002b28:	46a0      	mov	r8, r4
 8002b2a:	e004      	b.n	8002b36 <DRBG_AES128_Block_cipher_df.constprop.37+0xca>
 8002b2c:	9b02      	ldr	r3, [sp, #8]
 8002b2e:	9a03      	ldr	r2, [sp, #12]
 8002b30:	9904      	ldr	r1, [sp, #16]
 8002b32:	9805      	ldr	r0, [sp, #20]
 8002b34:	9301      	str	r3, [sp, #4]
 8002b36:	782b      	ldrb	r3, [r5, #0]
 8002b38:	786c      	ldrb	r4, [r5, #1]
 8002b3a:	061b      	lsls	r3, r3, #24
 8002b3c:	0424      	lsls	r4, r4, #16
 8002b3e:	4323      	orrs	r3, r4
 8002b40:	469c      	mov	ip, r3
 8002b42:	78eb      	ldrb	r3, [r5, #3]
 8002b44:	4664      	mov	r4, ip
 8002b46:	431c      	orrs	r4, r3
 8002b48:	78ab      	ldrb	r3, [r5, #2]
 8002b4a:	021b      	lsls	r3, r3, #8
 8002b4c:	431c      	orrs	r4, r3
 8002b4e:	9b01      	ldr	r3, [sp, #4]
 8002b50:	4063      	eors	r3, r4
 8002b52:	6033      	str	r3, [r6, #0]
 8002b54:	792b      	ldrb	r3, [r5, #4]
 8002b56:	061b      	lsls	r3, r3, #24
 8002b58:	469c      	mov	ip, r3
 8002b5a:	796b      	ldrb	r3, [r5, #5]
 8002b5c:	4664      	mov	r4, ip
 8002b5e:	041b      	lsls	r3, r3, #16
 8002b60:	431c      	orrs	r4, r3
 8002b62:	79eb      	ldrb	r3, [r5, #7]
 8002b64:	431c      	orrs	r4, r3
 8002b66:	79ab      	ldrb	r3, [r5, #6]
 8002b68:	021b      	lsls	r3, r3, #8
 8002b6a:	4323      	orrs	r3, r4
 8002b6c:	405a      	eors	r2, r3
 8002b6e:	6072      	str	r2, [r6, #4]
 8002b70:	7a6b      	ldrb	r3, [r5, #9]
 8002b72:	7a2a      	ldrb	r2, [r5, #8]
 8002b74:	041b      	lsls	r3, r3, #16
 8002b76:	0612      	lsls	r2, r2, #24
 8002b78:	4313      	orrs	r3, r2
 8002b7a:	7aea      	ldrb	r2, [r5, #11]
 8002b7c:	4313      	orrs	r3, r2
 8002b7e:	7aaa      	ldrb	r2, [r5, #10]
 8002b80:	0212      	lsls	r2, r2, #8
 8002b82:	4313      	orrs	r3, r2
 8002b84:	4059      	eors	r1, r3
 8002b86:	7b2a      	ldrb	r2, [r5, #12]
 8002b88:	7b6b      	ldrb	r3, [r5, #13]
 8002b8a:	0612      	lsls	r2, r2, #24
 8002b8c:	041b      	lsls	r3, r3, #16
 8002b8e:	4313      	orrs	r3, r2
 8002b90:	7bea      	ldrb	r2, [r5, #15]
 8002b92:	60b1      	str	r1, [r6, #8]
 8002b94:	4313      	orrs	r3, r2
 8002b96:	7baa      	ldrb	r2, [r5, #14]
 8002b98:	4641      	mov	r1, r8
 8002b9a:	0212      	lsls	r2, r2, #8
 8002b9c:	4313      	orrs	r3, r2
 8002b9e:	4058      	eors	r0, r3
 8002ba0:	60f0      	str	r0, [r6, #12]
 8002ba2:	aa52      	add	r2, sp, #328	; 0x148
 8002ba4:	1c30      	adds	r0, r6, #0
 8002ba6:	2310      	movs	r3, #16
 8002ba8:	f7ff fd7a 	bl	80026a0 <AES_general_SW_enc>
 8002bac:	2201      	movs	r2, #1
 8002bae:	4492      	add	sl, r2
 8002bb0:	3510      	adds	r5, #16
 8002bb2:	45ba      	cmp	sl, r7
 8002bb4:	d1ba      	bne.n	8002b2c <DRBG_AES128_Block_cipher_df.constprop.37+0xc0>
 8002bb6:	242b      	movs	r4, #43	; 0x2b
 8002bb8:	2301      	movs	r3, #1
 8002bba:	446c      	add	r4, sp
 8002bbc:	2200      	movs	r2, #0
 8002bbe:	7023      	strb	r3, [r4, #0]
 8002bc0:	9200      	str	r2, [sp, #0]
 8002bc2:	2300      	movs	r3, #0
 8002bc4:	aa06      	add	r2, sp, #24
 8002bc6:	9306      	str	r3, [sp, #24]
 8002bc8:	9307      	str	r3, [sp, #28]
 8002bca:	9308      	str	r3, [sp, #32]
 8002bcc:	9309      	str	r3, [sp, #36]	; 0x24
 8002bce:	ac0a      	add	r4, sp, #40	; 0x28
 8002bd0:	2000      	movs	r0, #0
 8002bd2:	2100      	movs	r1, #0
 8002bd4:	9301      	str	r3, [sp, #4]
 8002bd6:	2500      	movs	r5, #0
 8002bd8:	4692      	mov	sl, r2
 8002bda:	e005      	b.n	8002be8 <DRBG_AES128_Block_cipher_df.constprop.37+0x17c>
 8002bdc:	9a06      	ldr	r2, [sp, #24]
 8002bde:	9b07      	ldr	r3, [sp, #28]
 8002be0:	9908      	ldr	r1, [sp, #32]
 8002be2:	9809      	ldr	r0, [sp, #36]	; 0x24
 8002be4:	9201      	str	r2, [sp, #4]
 8002be6:	9300      	str	r3, [sp, #0]
 8002be8:	7822      	ldrb	r2, [r4, #0]
 8002bea:	7863      	ldrb	r3, [r4, #1]
 8002bec:	0612      	lsls	r2, r2, #24
 8002bee:	041b      	lsls	r3, r3, #16
 8002bf0:	431a      	orrs	r2, r3
 8002bf2:	4694      	mov	ip, r2
 8002bf4:	78e2      	ldrb	r2, [r4, #3]
 8002bf6:	4663      	mov	r3, ip
 8002bf8:	4313      	orrs	r3, r2
 8002bfa:	78a2      	ldrb	r2, [r4, #2]
 8002bfc:	3501      	adds	r5, #1
 8002bfe:	0212      	lsls	r2, r2, #8
 8002c00:	4313      	orrs	r3, r2
 8002c02:	469c      	mov	ip, r3
 8002c04:	9b01      	ldr	r3, [sp, #4]
 8002c06:	4662      	mov	r2, ip
 8002c08:	4053      	eors	r3, r2
 8002c0a:	6033      	str	r3, [r6, #0]
 8002c0c:	7923      	ldrb	r3, [r4, #4]
 8002c0e:	061b      	lsls	r3, r3, #24
 8002c10:	469c      	mov	ip, r3
 8002c12:	7963      	ldrb	r3, [r4, #5]
 8002c14:	4662      	mov	r2, ip
 8002c16:	041b      	lsls	r3, r3, #16
 8002c18:	431a      	orrs	r2, r3
 8002c1a:	79e3      	ldrb	r3, [r4, #7]
 8002c1c:	431a      	orrs	r2, r3
 8002c1e:	79a3      	ldrb	r3, [r4, #6]
 8002c20:	021b      	lsls	r3, r3, #8
 8002c22:	4313      	orrs	r3, r2
 8002c24:	9a00      	ldr	r2, [sp, #0]
 8002c26:	405a      	eors	r2, r3
 8002c28:	6072      	str	r2, [r6, #4]
 8002c2a:	7a63      	ldrb	r3, [r4, #9]
 8002c2c:	7a22      	ldrb	r2, [r4, #8]
 8002c2e:	041b      	lsls	r3, r3, #16
 8002c30:	0612      	lsls	r2, r2, #24
 8002c32:	4313      	orrs	r3, r2
 8002c34:	7ae2      	ldrb	r2, [r4, #11]
 8002c36:	4313      	orrs	r3, r2
 8002c38:	7aa2      	ldrb	r2, [r4, #10]
 8002c3a:	0212      	lsls	r2, r2, #8
 8002c3c:	4313      	orrs	r3, r2
 8002c3e:	4059      	eors	r1, r3
 8002c40:	7b22      	ldrb	r2, [r4, #12]
 8002c42:	7b63      	ldrb	r3, [r4, #13]
 8002c44:	0612      	lsls	r2, r2, #24
 8002c46:	041b      	lsls	r3, r3, #16
 8002c48:	4313      	orrs	r3, r2
 8002c4a:	7be2      	ldrb	r2, [r4, #15]
 8002c4c:	60b1      	str	r1, [r6, #8]
 8002c4e:	4313      	orrs	r3, r2
 8002c50:	7ba2      	ldrb	r2, [r4, #14]
 8002c52:	4651      	mov	r1, sl
 8002c54:	0212      	lsls	r2, r2, #8
 8002c56:	4313      	orrs	r3, r2
 8002c58:	4058      	eors	r0, r3
 8002c5a:	60f0      	str	r0, [r6, #12]
 8002c5c:	aa52      	add	r2, sp, #328	; 0x148
 8002c5e:	1c30      	adds	r0, r6, #0
 8002c60:	2310      	movs	r3, #16
 8002c62:	f7ff fd1d 	bl	80026a0 <AES_general_SW_enc>
 8002c66:	3410      	adds	r4, #16
 8002c68:	42bd      	cmp	r5, r7
 8002c6a:	d1b7      	bne.n	8002bdc <DRBG_AES128_Block_cipher_df.constprop.37+0x170>
 8002c6c:	4640      	mov	r0, r8
 8002c6e:	1c31      	adds	r1, r6, #0
 8002c70:	2210      	movs	r2, #16
 8002c72:	f7fe fb65 	bl	8001340 <AES_keyschedule_enc_LL>
 8002c76:	4650      	mov	r0, sl
 8002c78:	4649      	mov	r1, r9
 8002c7a:	1c32      	adds	r2, r6, #0
 8002c7c:	2310      	movs	r3, #16
 8002c7e:	f7ff fd0f 	bl	80026a0 <AES_general_SW_enc>
 8002c82:	4649      	mov	r1, r9
 8002c84:	4650      	mov	r0, sl
 8002c86:	2210      	movs	r2, #16
 8002c88:	f004 f80e 	bl	8006ca8 <memcpy>
 8002c8c:	4649      	mov	r1, r9
 8002c8e:	4650      	mov	r0, sl
 8002c90:	3110      	adds	r1, #16
 8002c92:	1c32      	adds	r2, r6, #0
 8002c94:	2310      	movs	r3, #16
 8002c96:	f7ff fd03 	bl	80026a0 <AES_general_SW_enc>
 8002c9a:	2000      	movs	r0, #0
 8002c9c:	b07f      	add	sp, #508	; 0x1fc
 8002c9e:	bc3c      	pop	{r2, r3, r4, r5}
 8002ca0:	4690      	mov	r8, r2
 8002ca2:	4699      	mov	r9, r3
 8002ca4:	46a2      	mov	sl, r4
 8002ca6:	46ab      	mov	fp, r5
 8002ca8:	bdf0      	pop	{r4, r5, r6, r7, pc}
 8002caa:	ab02      	add	r3, sp, #8
 8002cac:	ac06      	add	r4, sp, #24
 8002cae:	9706      	str	r7, [sp, #24]
 8002cb0:	9707      	str	r7, [sp, #28]
 8002cb2:	9708      	str	r7, [sp, #32]
 8002cb4:	9709      	str	r7, [sp, #36]	; 0x24
 8002cb6:	ae26      	add	r6, sp, #152	; 0x98
 8002cb8:	4698      	mov	r8, r3
 8002cba:	46a2      	mov	sl, r4
 8002cbc:	e7d6      	b.n	8002c6c <DRBG_AES128_Block_cipher_df.constprop.37+0x200>
 8002cbe:	46c0      	nop			; (mov r8, r8)
 8002cc0:	08006da8 	.word	0x08006da8

08002cc4 <crl_DRBG_AES128_Generate.part.25.constprop.36>:
 8002cc4:	b5f0      	push	{r4, r5, r6, r7, lr}
 8002cc6:	4645      	mov	r5, r8
 8002cc8:	4657      	mov	r7, sl
 8002cca:	464e      	mov	r6, r9
 8002ccc:	b4e0      	push	{r5, r6, r7}
 8002cce:	4688      	mov	r8, r1
 8002cd0:	b0c0      	sub	sp, #256	; 0x100
 8002cd2:	1c05      	adds	r5, r0, #0
 8002cd4:	2b00      	cmp	r3, #0
 8002cd6:	dc00      	bgt.n	8002cda <crl_DRBG_AES128_Generate.part.25.constprop.36+0x16>
 8002cd8:	e0dc      	b.n	8002e94 <crl_DRBG_AES128_Generate.part.25.constprop.36+0x1d0>
 8002cda:	1c10      	adds	r0, r2, #0
 8002cdc:	1c19      	adds	r1, r3, #0
 8002cde:	aa04      	add	r2, sp, #16
 8002ce0:	f7ff fec4 	bl	8002a6c <DRBG_AES128_Block_cipher_df.constprop.37>
 8002ce4:	2800      	cmp	r0, #0
 8002ce6:	d005      	beq.n	8002cf4 <crl_DRBG_AES128_Generate.part.25.constprop.36+0x30>
 8002ce8:	b040      	add	sp, #256	; 0x100
 8002cea:	bc1c      	pop	{r2, r3, r4}
 8002cec:	4690      	mov	r8, r2
 8002cee:	4699      	mov	r9, r3
 8002cf0:	46a2      	mov	sl, r4
 8002cf2:	bdf0      	pop	{r4, r5, r6, r7, pc}
 8002cf4:	2210      	movs	r2, #16
 8002cf6:	1952      	adds	r2, r2, r5
 8002cf8:	ab14      	add	r3, sp, #80	; 0x50
 8002cfa:	1c10      	adds	r0, r2, #0
 8002cfc:	4692      	mov	sl, r2
 8002cfe:	1c19      	adds	r1, r3, #0
 8002d00:	2210      	movs	r2, #16
 8002d02:	4699      	mov	r9, r3
 8002d04:	f7fe fb1c 	bl	8001340 <AES_keyschedule_enc_LL>
 8002d08:	af0c      	add	r7, sp, #48	; 0x30
 8002d0a:	1c3c      	adds	r4, r7, #0
 8002d0c:	464e      	mov	r6, r9
 8002d0e:	68eb      	ldr	r3, [r5, #12]
 8002d10:	3301      	adds	r3, #1
 8002d12:	60eb      	str	r3, [r5, #12]
 8002d14:	2b00      	cmp	r3, #0
 8002d16:	d10c      	bne.n	8002d32 <crl_DRBG_AES128_Generate.part.25.constprop.36+0x6e>
 8002d18:	68ab      	ldr	r3, [r5, #8]
 8002d1a:	3301      	adds	r3, #1
 8002d1c:	60ab      	str	r3, [r5, #8]
 8002d1e:	2b00      	cmp	r3, #0
 8002d20:	d107      	bne.n	8002d32 <crl_DRBG_AES128_Generate.part.25.constprop.36+0x6e>
 8002d22:	686b      	ldr	r3, [r5, #4]
 8002d24:	3301      	adds	r3, #1
 8002d26:	606b      	str	r3, [r5, #4]
 8002d28:	2b00      	cmp	r3, #0
 8002d2a:	d102      	bne.n	8002d32 <crl_DRBG_AES128_Generate.part.25.constprop.36+0x6e>
 8002d2c:	682b      	ldr	r3, [r5, #0]
 8002d2e:	3301      	adds	r3, #1
 8002d30:	602b      	str	r3, [r5, #0]
 8002d32:	1c21      	adds	r1, r4, #0
 8002d34:	1c28      	adds	r0, r5, #0
 8002d36:	464a      	mov	r2, r9
 8002d38:	2310      	movs	r3, #16
 8002d3a:	3410      	adds	r4, #16
 8002d3c:	f7ff fcb0 	bl	80026a0 <AES_general_SW_enc>
 8002d40:	45a1      	cmp	r9, r4
 8002d42:	d1e4      	bne.n	8002d0e <crl_DRBG_AES128_Generate.part.25.constprop.36+0x4a>
 8002d44:	9a0c      	ldr	r2, [sp, #48]	; 0x30
 8002d46:	9b04      	ldr	r3, [sp, #16]
 8002d48:	4053      	eors	r3, r2
 8002d4a:	612b      	str	r3, [r5, #16]
 8002d4c:	687a      	ldr	r2, [r7, #4]
 8002d4e:	9b05      	ldr	r3, [sp, #20]
 8002d50:	4053      	eors	r3, r2
 8002d52:	616b      	str	r3, [r5, #20]
 8002d54:	68ba      	ldr	r2, [r7, #8]
 8002d56:	9b06      	ldr	r3, [sp, #24]
 8002d58:	4053      	eors	r3, r2
 8002d5a:	61ab      	str	r3, [r5, #24]
 8002d5c:	68fa      	ldr	r2, [r7, #12]
 8002d5e:	9b07      	ldr	r3, [sp, #28]
 8002d60:	4053      	eors	r3, r2
 8002d62:	61eb      	str	r3, [r5, #28]
 8002d64:	693a      	ldr	r2, [r7, #16]
 8002d66:	9b08      	ldr	r3, [sp, #32]
 8002d68:	4053      	eors	r3, r2
 8002d6a:	602b      	str	r3, [r5, #0]
 8002d6c:	697a      	ldr	r2, [r7, #20]
 8002d6e:	9b09      	ldr	r3, [sp, #36]	; 0x24
 8002d70:	4053      	eors	r3, r2
 8002d72:	606b      	str	r3, [r5, #4]
 8002d74:	69ba      	ldr	r2, [r7, #24]
 8002d76:	9b0a      	ldr	r3, [sp, #40]	; 0x28
 8002d78:	4053      	eors	r3, r2
 8002d7a:	60ab      	str	r3, [r5, #8]
 8002d7c:	69fa      	ldr	r2, [r7, #28]
 8002d7e:	9b0b      	ldr	r3, [sp, #44]	; 0x2c
 8002d80:	4053      	eors	r3, r2
 8002d82:	60eb      	str	r3, [r5, #12]
 8002d84:	2210      	movs	r2, #16
 8002d86:	4650      	mov	r0, sl
 8002d88:	1c31      	adds	r1, r6, #0
 8002d8a:	f7fe fad9 	bl	8001340 <AES_keyschedule_enc_LL>
 8002d8e:	2280      	movs	r2, #128	; 0x80
 8002d90:	4644      	mov	r4, r8
 8002d92:	0252      	lsls	r2, r2, #9
 8002d94:	1912      	adds	r2, r2, r4
 8002d96:	4690      	mov	r8, r2
 8002d98:	68eb      	ldr	r3, [r5, #12]
 8002d9a:	3301      	adds	r3, #1
 8002d9c:	60eb      	str	r3, [r5, #12]
 8002d9e:	2b00      	cmp	r3, #0
 8002da0:	d10c      	bne.n	8002dbc <crl_DRBG_AES128_Generate.part.25.constprop.36+0xf8>
 8002da2:	68ab      	ldr	r3, [r5, #8]
 8002da4:	3301      	adds	r3, #1
 8002da6:	60ab      	str	r3, [r5, #8]
 8002da8:	2b00      	cmp	r3, #0
 8002daa:	d107      	bne.n	8002dbc <crl_DRBG_AES128_Generate.part.25.constprop.36+0xf8>
 8002dac:	686b      	ldr	r3, [r5, #4]
 8002dae:	3301      	adds	r3, #1
 8002db0:	606b      	str	r3, [r5, #4]
 8002db2:	2b00      	cmp	r3, #0
 8002db4:	d102      	bne.n	8002dbc <crl_DRBG_AES128_Generate.part.25.constprop.36+0xf8>
 8002db6:	682b      	ldr	r3, [r5, #0]
 8002db8:	3301      	adds	r3, #1
 8002dba:	602b      	str	r3, [r5, #0]
 8002dbc:	1c32      	adds	r2, r6, #0
 8002dbe:	2310      	movs	r3, #16
 8002dc0:	1c28      	adds	r0, r5, #0
 8002dc2:	4669      	mov	r1, sp
 8002dc4:	f7ff fc6c 	bl	80026a0 <AES_general_SW_enc>
 8002dc8:	9b00      	ldr	r3, [sp, #0]
 8002dca:	0a1a      	lsrs	r2, r3, #8
 8002dcc:	70e3      	strb	r3, [r4, #3]
 8002dce:	70a2      	strb	r2, [r4, #2]
 8002dd0:	0c1a      	lsrs	r2, r3, #16
 8002dd2:	0e1b      	lsrs	r3, r3, #24
 8002dd4:	7023      	strb	r3, [r4, #0]
 8002dd6:	9b01      	ldr	r3, [sp, #4]
 8002dd8:	7062      	strb	r2, [r4, #1]
 8002dda:	0a1a      	lsrs	r2, r3, #8
 8002ddc:	71e3      	strb	r3, [r4, #7]
 8002dde:	71a2      	strb	r2, [r4, #6]
 8002de0:	0c1a      	lsrs	r2, r3, #16
 8002de2:	0e1b      	lsrs	r3, r3, #24
 8002de4:	7123      	strb	r3, [r4, #4]
 8002de6:	9b02      	ldr	r3, [sp, #8]
 8002de8:	7162      	strb	r2, [r4, #5]
 8002dea:	0a1a      	lsrs	r2, r3, #8
 8002dec:	72e3      	strb	r3, [r4, #11]
 8002dee:	72a2      	strb	r2, [r4, #10]
 8002df0:	0c1a      	lsrs	r2, r3, #16
 8002df2:	0e1b      	lsrs	r3, r3, #24
 8002df4:	7223      	strb	r3, [r4, #8]
 8002df6:	9b03      	ldr	r3, [sp, #12]
 8002df8:	7262      	strb	r2, [r4, #9]
 8002dfa:	0a1a      	lsrs	r2, r3, #8
 8002dfc:	73e3      	strb	r3, [r4, #15]
 8002dfe:	73a2      	strb	r2, [r4, #14]
 8002e00:	0c1a      	lsrs	r2, r3, #16
 8002e02:	0e1b      	lsrs	r3, r3, #24
 8002e04:	7362      	strb	r2, [r4, #13]
 8002e06:	7323      	strb	r3, [r4, #12]
 8002e08:	3410      	adds	r4, #16
 8002e0a:	4544      	cmp	r4, r8
 8002e0c:	d1c4      	bne.n	8002d98 <crl_DRBG_AES128_Generate.part.25.constprop.36+0xd4>
 8002e0e:	1c3c      	adds	r4, r7, #0
 8002e10:	68eb      	ldr	r3, [r5, #12]
 8002e12:	3301      	adds	r3, #1
 8002e14:	60eb      	str	r3, [r5, #12]
 8002e16:	2b00      	cmp	r3, #0
 8002e18:	d10c      	bne.n	8002e34 <crl_DRBG_AES128_Generate.part.25.constprop.36+0x170>
 8002e1a:	68ab      	ldr	r3, [r5, #8]
 8002e1c:	3301      	adds	r3, #1
 8002e1e:	60ab      	str	r3, [r5, #8]
 8002e20:	2b00      	cmp	r3, #0
 8002e22:	d107      	bne.n	8002e34 <crl_DRBG_AES128_Generate.part.25.constprop.36+0x170>
 8002e24:	686b      	ldr	r3, [r5, #4]
 8002e26:	3301      	adds	r3, #1
 8002e28:	606b      	str	r3, [r5, #4]
 8002e2a:	2b00      	cmp	r3, #0
 8002e2c:	d102      	bne.n	8002e34 <crl_DRBG_AES128_Generate.part.25.constprop.36+0x170>
 8002e2e:	682b      	ldr	r3, [r5, #0]
 8002e30:	3301      	adds	r3, #1
 8002e32:	602b      	str	r3, [r5, #0]
 8002e34:	1c21      	adds	r1, r4, #0
 8002e36:	1c28      	adds	r0, r5, #0
 8002e38:	1c32      	adds	r2, r6, #0
 8002e3a:	2310      	movs	r3, #16
 8002e3c:	3410      	adds	r4, #16
 8002e3e:	f7ff fc2f 	bl	80026a0 <AES_general_SW_enc>
 8002e42:	42a6      	cmp	r6, r4
 8002e44:	d1e4      	bne.n	8002e10 <crl_DRBG_AES128_Generate.part.25.constprop.36+0x14c>
 8002e46:	9a0c      	ldr	r2, [sp, #48]	; 0x30
 8002e48:	9b04      	ldr	r3, [sp, #16]
 8002e4a:	4053      	eors	r3, r2
 8002e4c:	612b      	str	r3, [r5, #16]
 8002e4e:	687a      	ldr	r2, [r7, #4]
 8002e50:	9b05      	ldr	r3, [sp, #20]
 8002e52:	4053      	eors	r3, r2
 8002e54:	616b      	str	r3, [r5, #20]
 8002e56:	68ba      	ldr	r2, [r7, #8]
 8002e58:	9b06      	ldr	r3, [sp, #24]
 8002e5a:	4053      	eors	r3, r2
 8002e5c:	61ab      	str	r3, [r5, #24]
 8002e5e:	68fa      	ldr	r2, [r7, #12]
 8002e60:	9b07      	ldr	r3, [sp, #28]
 8002e62:	4053      	eors	r3, r2
 8002e64:	61eb      	str	r3, [r5, #28]
 8002e66:	693a      	ldr	r2, [r7, #16]
 8002e68:	9b08      	ldr	r3, [sp, #32]
 8002e6a:	4053      	eors	r3, r2
 8002e6c:	602b      	str	r3, [r5, #0]
 8002e6e:	697a      	ldr	r2, [r7, #20]
 8002e70:	9b09      	ldr	r3, [sp, #36]	; 0x24
 8002e72:	4053      	eors	r3, r2
 8002e74:	606b      	str	r3, [r5, #4]
 8002e76:	69ba      	ldr	r2, [r7, #24]
 8002e78:	9b0a      	ldr	r3, [sp, #40]	; 0x28
 8002e7a:	4053      	eors	r3, r2
 8002e7c:	60ab      	str	r3, [r5, #8]
 8002e7e:	9a0b      	ldr	r2, [sp, #44]	; 0x2c
 8002e80:	69fb      	ldr	r3, [r7, #28]
 8002e82:	4053      	eors	r3, r2
 8002e84:	60eb      	str	r3, [r5, #12]
 8002e86:	6a2b      	ldr	r3, [r5, #32]
 8002e88:	1c5a      	adds	r2, r3, #1
 8002e8a:	d012      	beq.n	8002eb2 <crl_DRBG_AES128_Generate.part.25.constprop.36+0x1ee>
 8002e8c:	3301      	adds	r3, #1
 8002e8e:	622b      	str	r3, [r5, #32]
 8002e90:	2000      	movs	r0, #0
 8002e92:	e729      	b.n	8002ce8 <crl_DRBG_AES128_Generate.part.25.constprop.36+0x24>
 8002e94:	2300      	movs	r3, #0
 8002e96:	9304      	str	r3, [sp, #16]
 8002e98:	9305      	str	r3, [sp, #20]
 8002e9a:	9306      	str	r3, [sp, #24]
 8002e9c:	9307      	str	r3, [sp, #28]
 8002e9e:	9308      	str	r3, [sp, #32]
 8002ea0:	9309      	str	r3, [sp, #36]	; 0x24
 8002ea2:	930a      	str	r3, [sp, #40]	; 0x28
 8002ea4:	930b      	str	r3, [sp, #44]	; 0x2c
 8002ea6:	2310      	movs	r3, #16
 8002ea8:	181b      	adds	r3, r3, r0
 8002eaa:	469a      	mov	sl, r3
 8002eac:	ae14      	add	r6, sp, #80	; 0x50
 8002eae:	af0c      	add	r7, sp, #48	; 0x30
 8002eb0:	e768      	b.n	8002d84 <crl_DRBG_AES128_Generate.part.25.constprop.36+0xc0>
 8002eb2:	4801      	ldr	r0, [pc, #4]	; (8002eb8 <crl_DRBG_AES128_Generate.part.25.constprop.36+0x1f4>)
 8002eb4:	e718      	b.n	8002ce8 <crl_DRBG_AES128_Generate.part.25.constprop.36+0x24>
 8002eb6:	46c0      	nop			; (mov r8, r8)
 8002eb8:	00001773 	.word	0x00001773

08002ebc <crl_DRBG_AES128_Generate.part.25>:
 8002ebc:	b5f0      	push	{r4, r5, r6, r7, lr}
 8002ebe:	464d      	mov	r5, r9
 8002ec0:	465f      	mov	r7, fp
 8002ec2:	4656      	mov	r6, sl
 8002ec4:	4644      	mov	r4, r8
 8002ec6:	b4f0      	push	{r4, r5, r6, r7}
 8002ec8:	b0c3      	sub	sp, #268	; 0x10c
 8002eca:	1c05      	adds	r5, r0, #0
 8002ecc:	984c      	ldr	r0, [sp, #304]	; 0x130
 8002ece:	468b      	mov	fp, r1
 8002ed0:	4681      	mov	r9, r0
 8002ed2:	2b00      	cmp	r3, #0
 8002ed4:	dc00      	bgt.n	8002ed8 <crl_DRBG_AES128_Generate.part.25+0x1c>
 8002ed6:	e0f8      	b.n	80030ca <crl_DRBG_AES128_Generate.part.25+0x20e>
 8002ed8:	1c10      	adds	r0, r2, #0
 8002eda:	1c19      	adds	r1, r3, #0
 8002edc:	aa06      	add	r2, sp, #24
 8002ede:	f7ff fdc5 	bl	8002a6c <DRBG_AES128_Block_cipher_df.constprop.37>
 8002ee2:	2800      	cmp	r0, #0
 8002ee4:	d006      	beq.n	8002ef4 <crl_DRBG_AES128_Generate.part.25+0x38>
 8002ee6:	b043      	add	sp, #268	; 0x10c
 8002ee8:	bc3c      	pop	{r2, r3, r4, r5}
 8002eea:	4690      	mov	r8, r2
 8002eec:	4699      	mov	r9, r3
 8002eee:	46a2      	mov	sl, r4
 8002ef0:	46ab      	mov	fp, r5
 8002ef2:	bdf0      	pop	{r4, r5, r6, r7, pc}
 8002ef4:	1c2f      	adds	r7, r5, #0
 8002ef6:	ae16      	add	r6, sp, #88	; 0x58
 8002ef8:	3710      	adds	r7, #16
 8002efa:	1c31      	adds	r1, r6, #0
 8002efc:	1c38      	adds	r0, r7, #0
 8002efe:	2210      	movs	r2, #16
 8002f00:	f7fe fa1e 	bl	8001340 <AES_keyschedule_enc_LL>
 8002f04:	a90e      	add	r1, sp, #56	; 0x38
 8002f06:	468a      	mov	sl, r1
 8002f08:	1c0c      	adds	r4, r1, #0
 8002f0a:	46b0      	mov	r8, r6
 8002f0c:	68eb      	ldr	r3, [r5, #12]
 8002f0e:	3301      	adds	r3, #1
 8002f10:	60eb      	str	r3, [r5, #12]
 8002f12:	2b00      	cmp	r3, #0
 8002f14:	d10c      	bne.n	8002f30 <crl_DRBG_AES128_Generate.part.25+0x74>
 8002f16:	68ab      	ldr	r3, [r5, #8]
 8002f18:	3301      	adds	r3, #1
 8002f1a:	60ab      	str	r3, [r5, #8]
 8002f1c:	2b00      	cmp	r3, #0
 8002f1e:	d107      	bne.n	8002f30 <crl_DRBG_AES128_Generate.part.25+0x74>
 8002f20:	686b      	ldr	r3, [r5, #4]
 8002f22:	3301      	adds	r3, #1
 8002f24:	606b      	str	r3, [r5, #4]
 8002f26:	2b00      	cmp	r3, #0
 8002f28:	d102      	bne.n	8002f30 <crl_DRBG_AES128_Generate.part.25+0x74>
 8002f2a:	682b      	ldr	r3, [r5, #0]
 8002f2c:	3301      	adds	r3, #1
 8002f2e:	602b      	str	r3, [r5, #0]
 8002f30:	1c21      	adds	r1, r4, #0
 8002f32:	1c28      	adds	r0, r5, #0
 8002f34:	1c32      	adds	r2, r6, #0
 8002f36:	2310      	movs	r3, #16
 8002f38:	3410      	adds	r4, #16
 8002f3a:	f7ff fbb1 	bl	80026a0 <AES_general_SW_enc>
 8002f3e:	42a6      	cmp	r6, r4
 8002f40:	d1e4      	bne.n	8002f0c <crl_DRBG_AES128_Generate.part.25+0x50>
 8002f42:	9a0e      	ldr	r2, [sp, #56]	; 0x38
 8002f44:	9b06      	ldr	r3, [sp, #24]
 8002f46:	4654      	mov	r4, sl
 8002f48:	4053      	eors	r3, r2
 8002f4a:	6864      	ldr	r4, [r4, #4]
 8002f4c:	612b      	str	r3, [r5, #16]
 8002f4e:	9b07      	ldr	r3, [sp, #28]
 8002f50:	4650      	mov	r0, sl
 8002f52:	4063      	eors	r3, r4
 8002f54:	6880      	ldr	r0, [r0, #8]
 8002f56:	616b      	str	r3, [r5, #20]
 8002f58:	9b08      	ldr	r3, [sp, #32]
 8002f5a:	4651      	mov	r1, sl
 8002f5c:	4043      	eors	r3, r0
 8002f5e:	68c9      	ldr	r1, [r1, #12]
 8002f60:	61ab      	str	r3, [r5, #24]
 8002f62:	9b09      	ldr	r3, [sp, #36]	; 0x24
 8002f64:	4652      	mov	r2, sl
 8002f66:	404b      	eors	r3, r1
 8002f68:	61eb      	str	r3, [r5, #28]
 8002f6a:	6912      	ldr	r2, [r2, #16]
 8002f6c:	9b0a      	ldr	r3, [sp, #40]	; 0x28
 8002f6e:	4654      	mov	r4, sl
 8002f70:	4053      	eors	r3, r2
 8002f72:	602b      	str	r3, [r5, #0]
 8002f74:	6964      	ldr	r4, [r4, #20]
 8002f76:	9b0b      	ldr	r3, [sp, #44]	; 0x2c
 8002f78:	4650      	mov	r0, sl
 8002f7a:	4063      	eors	r3, r4
 8002f7c:	606b      	str	r3, [r5, #4]
 8002f7e:	6980      	ldr	r0, [r0, #24]
 8002f80:	9b0c      	ldr	r3, [sp, #48]	; 0x30
 8002f82:	4651      	mov	r1, sl
 8002f84:	4043      	eors	r3, r0
 8002f86:	60ab      	str	r3, [r5, #8]
 8002f88:	69c9      	ldr	r1, [r1, #28]
 8002f8a:	9b0d      	ldr	r3, [sp, #52]	; 0x34
 8002f8c:	404b      	eors	r3, r1
 8002f8e:	60eb      	str	r3, [r5, #12]
 8002f90:	4641      	mov	r1, r8
 8002f92:	2210      	movs	r2, #16
 8002f94:	464c      	mov	r4, r9
 8002f96:	1c38      	adds	r0, r7, #0
 8002f98:	f7fe f9d2 	bl	8001340 <AES_keyschedule_enc_LL>
 8002f9c:	17e3      	asrs	r3, r4, #31
 8002f9e:	0f1b      	lsrs	r3, r3, #28
 8002fa0:	18e2      	adds	r2, r4, r3
 8002fa2:	210f      	movs	r1, #15
 8002fa4:	400a      	ands	r2, r1
 8002fa6:	1ad2      	subs	r2, r2, r3
 8002fa8:	9201      	str	r2, [sp, #4]
 8002faa:	2c0f      	cmp	r4, #15
 8002fac:	dc00      	bgt.n	8002fb0 <crl_DRBG_AES128_Generate.part.25+0xf4>
 8002fae:	e10f      	b.n	80031d0 <crl_DRBG_AES128_Generate.part.25+0x314>
 8002fb0:	465c      	mov	r4, fp
 8002fb2:	2710      	movs	r7, #16
 8002fb4:	ae02      	add	r6, sp, #8
 8002fb6:	68eb      	ldr	r3, [r5, #12]
 8002fb8:	3301      	adds	r3, #1
 8002fba:	60eb      	str	r3, [r5, #12]
 8002fbc:	2b00      	cmp	r3, #0
 8002fbe:	d10c      	bne.n	8002fda <crl_DRBG_AES128_Generate.part.25+0x11e>
 8002fc0:	68ab      	ldr	r3, [r5, #8]
 8002fc2:	3301      	adds	r3, #1
 8002fc4:	60ab      	str	r3, [r5, #8]
 8002fc6:	2b00      	cmp	r3, #0
 8002fc8:	d107      	bne.n	8002fda <crl_DRBG_AES128_Generate.part.25+0x11e>
 8002fca:	686b      	ldr	r3, [r5, #4]
 8002fcc:	3301      	adds	r3, #1
 8002fce:	606b      	str	r3, [r5, #4]
 8002fd0:	2b00      	cmp	r3, #0
 8002fd2:	d102      	bne.n	8002fda <crl_DRBG_AES128_Generate.part.25+0x11e>
 8002fd4:	682b      	ldr	r3, [r5, #0]
 8002fd6:	3301      	adds	r3, #1
 8002fd8:	602b      	str	r3, [r5, #0]
 8002fda:	1c31      	adds	r1, r6, #0
 8002fdc:	4642      	mov	r2, r8
 8002fde:	2310      	movs	r3, #16
 8002fe0:	1c28      	adds	r0, r5, #0
 8002fe2:	f7ff fb5d 	bl	80026a0 <AES_general_SW_enc>
 8002fe6:	9b02      	ldr	r3, [sp, #8]
 8002fe8:	ae02      	add	r6, sp, #8
 8002fea:	0a1a      	lsrs	r2, r3, #8
 8002fec:	70e3      	strb	r3, [r4, #3]
 8002fee:	70a2      	strb	r2, [r4, #2]
 8002ff0:	0c1a      	lsrs	r2, r3, #16
 8002ff2:	0e1b      	lsrs	r3, r3, #24
 8002ff4:	7023      	strb	r3, [r4, #0]
 8002ff6:	6873      	ldr	r3, [r6, #4]
 8002ff8:	7062      	strb	r2, [r4, #1]
 8002ffa:	0a1a      	lsrs	r2, r3, #8
 8002ffc:	71e3      	strb	r3, [r4, #7]
 8002ffe:	71a2      	strb	r2, [r4, #6]
 8003000:	0c1a      	lsrs	r2, r3, #16
 8003002:	0e1b      	lsrs	r3, r3, #24
 8003004:	7123      	strb	r3, [r4, #4]
 8003006:	68b3      	ldr	r3, [r6, #8]
 8003008:	7162      	strb	r2, [r4, #5]
 800300a:	0a1a      	lsrs	r2, r3, #8
 800300c:	72e3      	strb	r3, [r4, #11]
 800300e:	72a2      	strb	r2, [r4, #10]
 8003010:	0c1a      	lsrs	r2, r3, #16
 8003012:	0e1b      	lsrs	r3, r3, #24
 8003014:	7223      	strb	r3, [r4, #8]
 8003016:	68f3      	ldr	r3, [r6, #12]
 8003018:	7262      	strb	r2, [r4, #9]
 800301a:	0a1a      	lsrs	r2, r3, #8
 800301c:	73e3      	strb	r3, [r4, #15]
 800301e:	73a2      	strb	r2, [r4, #14]
 8003020:	3710      	adds	r7, #16
 8003022:	0c1a      	lsrs	r2, r3, #16
 8003024:	0e1b      	lsrs	r3, r3, #24
 8003026:	7362      	strb	r2, [r4, #13]
 8003028:	7323      	strb	r3, [r4, #12]
 800302a:	3410      	adds	r4, #16
 800302c:	45b9      	cmp	r9, r7
 800302e:	dac2      	bge.n	8002fb6 <crl_DRBG_AES128_Generate.part.25+0xfa>
 8003030:	9c01      	ldr	r4, [sp, #4]
 8003032:	2c00      	cmp	r4, #0
 8003034:	d15b      	bne.n	80030ee <crl_DRBG_AES128_Generate.part.25+0x232>
 8003036:	4654      	mov	r4, sl
 8003038:	68eb      	ldr	r3, [r5, #12]
 800303a:	3301      	adds	r3, #1
 800303c:	60eb      	str	r3, [r5, #12]
 800303e:	2b00      	cmp	r3, #0
 8003040:	d10c      	bne.n	800305c <crl_DRBG_AES128_Generate.part.25+0x1a0>
 8003042:	68ab      	ldr	r3, [r5, #8]
 8003044:	3301      	adds	r3, #1
 8003046:	60ab      	str	r3, [r5, #8]
 8003048:	2b00      	cmp	r3, #0
 800304a:	d107      	bne.n	800305c <crl_DRBG_AES128_Generate.part.25+0x1a0>
 800304c:	686b      	ldr	r3, [r5, #4]
 800304e:	3301      	adds	r3, #1
 8003050:	606b      	str	r3, [r5, #4]
 8003052:	2b00      	cmp	r3, #0
 8003054:	d102      	bne.n	800305c <crl_DRBG_AES128_Generate.part.25+0x1a0>
 8003056:	682b      	ldr	r3, [r5, #0]
 8003058:	3301      	adds	r3, #1
 800305a:	602b      	str	r3, [r5, #0]
 800305c:	1c21      	adds	r1, r4, #0
 800305e:	1c28      	adds	r0, r5, #0
 8003060:	4642      	mov	r2, r8
 8003062:	2310      	movs	r3, #16
 8003064:	3410      	adds	r4, #16
 8003066:	f7ff fb1b 	bl	80026a0 <AES_general_SW_enc>
 800306a:	45a0      	cmp	r8, r4
 800306c:	d1e4      	bne.n	8003038 <crl_DRBG_AES128_Generate.part.25+0x17c>
 800306e:	980e      	ldr	r0, [sp, #56]	; 0x38
 8003070:	9b06      	ldr	r3, [sp, #24]
 8003072:	4651      	mov	r1, sl
 8003074:	4043      	eors	r3, r0
 8003076:	6849      	ldr	r1, [r1, #4]
 8003078:	612b      	str	r3, [r5, #16]
 800307a:	9b07      	ldr	r3, [sp, #28]
 800307c:	4652      	mov	r2, sl
 800307e:	404b      	eors	r3, r1
 8003080:	6892      	ldr	r2, [r2, #8]
 8003082:	616b      	str	r3, [r5, #20]
 8003084:	9b08      	ldr	r3, [sp, #32]
 8003086:	4654      	mov	r4, sl
 8003088:	4053      	eors	r3, r2
 800308a:	68e4      	ldr	r4, [r4, #12]
 800308c:	61ab      	str	r3, [r5, #24]
 800308e:	9b09      	ldr	r3, [sp, #36]	; 0x24
 8003090:	4657      	mov	r7, sl
 8003092:	4063      	eors	r3, r4
 8003094:	61eb      	str	r3, [r5, #28]
 8003096:	693f      	ldr	r7, [r7, #16]
 8003098:	9b0a      	ldr	r3, [sp, #40]	; 0x28
 800309a:	4650      	mov	r0, sl
 800309c:	407b      	eors	r3, r7
 800309e:	602b      	str	r3, [r5, #0]
 80030a0:	6940      	ldr	r0, [r0, #20]
 80030a2:	9b0b      	ldr	r3, [sp, #44]	; 0x2c
 80030a4:	4651      	mov	r1, sl
 80030a6:	4043      	eors	r3, r0
 80030a8:	606b      	str	r3, [r5, #4]
 80030aa:	6989      	ldr	r1, [r1, #24]
 80030ac:	9b0c      	ldr	r3, [sp, #48]	; 0x30
 80030ae:	4652      	mov	r2, sl
 80030b0:	404b      	eors	r3, r1
 80030b2:	60ab      	str	r3, [r5, #8]
 80030b4:	9c0d      	ldr	r4, [sp, #52]	; 0x34
 80030b6:	69d3      	ldr	r3, [r2, #28]
 80030b8:	4063      	eors	r3, r4
 80030ba:	60eb      	str	r3, [r5, #12]
 80030bc:	6a2b      	ldr	r3, [r5, #32]
 80030be:	1c5f      	adds	r7, r3, #1
 80030c0:	d013      	beq.n	80030ea <crl_DRBG_AES128_Generate.part.25+0x22e>
 80030c2:	3301      	adds	r3, #1
 80030c4:	622b      	str	r3, [r5, #32]
 80030c6:	2000      	movs	r0, #0
 80030c8:	e70d      	b.n	8002ee6 <crl_DRBG_AES128_Generate.part.25+0x2a>
 80030ca:	2300      	movs	r3, #0
 80030cc:	9306      	str	r3, [sp, #24]
 80030ce:	9307      	str	r3, [sp, #28]
 80030d0:	9308      	str	r3, [sp, #32]
 80030d2:	9309      	str	r3, [sp, #36]	; 0x24
 80030d4:	930a      	str	r3, [sp, #40]	; 0x28
 80030d6:	930b      	str	r3, [sp, #44]	; 0x2c
 80030d8:	930c      	str	r3, [sp, #48]	; 0x30
 80030da:	930d      	str	r3, [sp, #52]	; 0x34
 80030dc:	1c2f      	adds	r7, r5, #0
 80030de:	aa16      	add	r2, sp, #88	; 0x58
 80030e0:	ab0e      	add	r3, sp, #56	; 0x38
 80030e2:	3710      	adds	r7, #16
 80030e4:	4690      	mov	r8, r2
 80030e6:	469a      	mov	sl, r3
 80030e8:	e752      	b.n	8002f90 <crl_DRBG_AES128_Generate.part.25+0xd4>
 80030ea:	483d      	ldr	r0, [pc, #244]	; (80031e0 <crl_DRBG_AES128_Generate.part.25+0x324>)
 80030ec:	e6fb      	b.n	8002ee6 <crl_DRBG_AES128_Generate.part.25+0x2a>
 80030ee:	68eb      	ldr	r3, [r5, #12]
 80030f0:	3301      	adds	r3, #1
 80030f2:	60eb      	str	r3, [r5, #12]
 80030f4:	2b00      	cmp	r3, #0
 80030f6:	d10c      	bne.n	8003112 <crl_DRBG_AES128_Generate.part.25+0x256>
 80030f8:	68ab      	ldr	r3, [r5, #8]
 80030fa:	3301      	adds	r3, #1
 80030fc:	60ab      	str	r3, [r5, #8]
 80030fe:	2b00      	cmp	r3, #0
 8003100:	d107      	bne.n	8003112 <crl_DRBG_AES128_Generate.part.25+0x256>
 8003102:	686b      	ldr	r3, [r5, #4]
 8003104:	3301      	adds	r3, #1
 8003106:	606b      	str	r3, [r5, #4]
 8003108:	2b00      	cmp	r3, #0
 800310a:	d102      	bne.n	8003112 <crl_DRBG_AES128_Generate.part.25+0x256>
 800310c:	682b      	ldr	r3, [r5, #0]
 800310e:	3301      	adds	r3, #1
 8003110:	602b      	str	r3, [r5, #0]
 8003112:	ae02      	add	r6, sp, #8
 8003114:	1c31      	adds	r1, r6, #0
 8003116:	4642      	mov	r2, r8
 8003118:	1c28      	adds	r0, r5, #0
 800311a:	2310      	movs	r3, #16
 800311c:	f7ff fac0 	bl	80026a0 <AES_general_SW_enc>
 8003120:	9c01      	ldr	r4, [sp, #4]
 8003122:	17e1      	asrs	r1, r4, #31
 8003124:	0f8a      	lsrs	r2, r1, #30
 8003126:	1912      	adds	r2, r2, r4
 8003128:	1092      	asrs	r2, r2, #2
 800312a:	2a00      	cmp	r2, #0
 800312c:	dd52      	ble.n	80031d4 <crl_DRBG_AES128_Generate.part.25+0x318>
 800312e:	1c3c      	adds	r4, r7, #0
 8003130:	3c10      	subs	r4, #16
 8003132:	465b      	mov	r3, fp
 8003134:	1918      	adds	r0, r3, r4
 8003136:	9b02      	ldr	r3, [sp, #8]
 8003138:	70c3      	strb	r3, [r0, #3]
 800313a:	0a1b      	lsrs	r3, r3, #8
 800313c:	7083      	strb	r3, [r0, #2]
 800313e:	9b02      	ldr	r3, [sp, #8]
 8003140:	0c1b      	lsrs	r3, r3, #16
 8003142:	7043      	strb	r3, [r0, #1]
 8003144:	9802      	ldr	r0, [sp, #8]
 8003146:	0e03      	lsrs	r3, r0, #24
 8003148:	4658      	mov	r0, fp
 800314a:	5503      	strb	r3, [r0, r4]
 800314c:	2a01      	cmp	r2, #1
 800314e:	dd45      	ble.n	80031dc <crl_DRBG_AES128_Generate.part.25+0x320>
 8003150:	3404      	adds	r4, #4
 8003152:	6873      	ldr	r3, [r6, #4]
 8003154:	1900      	adds	r0, r0, r4
 8003156:	70c3      	strb	r3, [r0, #3]
 8003158:	0a1b      	lsrs	r3, r3, #8
 800315a:	7083      	strb	r3, [r0, #2]
 800315c:	6873      	ldr	r3, [r6, #4]
 800315e:	0c1b      	lsrs	r3, r3, #16
 8003160:	7043      	strb	r3, [r0, #1]
 8003162:	6870      	ldr	r0, [r6, #4]
 8003164:	0e03      	lsrs	r3, r0, #24
 8003166:	4658      	mov	r0, fp
 8003168:	5503      	strb	r3, [r0, r4]
 800316a:	2a02      	cmp	r2, #2
 800316c:	dd34      	ble.n	80031d8 <crl_DRBG_AES128_Generate.part.25+0x31c>
 800316e:	68b3      	ldr	r3, [r6, #8]
 8003170:	1c38      	adds	r0, r7, #0
 8003172:	3808      	subs	r0, #8
 8003174:	465c      	mov	r4, fp
 8003176:	1822      	adds	r2, r4, r0
 8003178:	0a1c      	lsrs	r4, r3, #8
 800317a:	7094      	strb	r4, [r2, #2]
 800317c:	0c1c      	lsrs	r4, r3, #16
 800317e:	70d3      	strb	r3, [r2, #3]
 8003180:	7054      	strb	r4, [r2, #1]
 8003182:	0e1b      	lsrs	r3, r3, #24
 8003184:	465a      	mov	r2, fp
 8003186:	5413      	strb	r3, [r2, r0]
 8003188:	2003      	movs	r0, #3
 800318a:	9c01      	ldr	r4, [sp, #4]
 800318c:	2203      	movs	r2, #3
 800318e:	4222      	tst	r2, r4
 8003190:	d100      	bne.n	8003194 <crl_DRBG_AES128_Generate.part.25+0x2d8>
 8003192:	e750      	b.n	8003036 <crl_DRBG_AES128_Generate.part.25+0x17a>
 8003194:	0f89      	lsrs	r1, r1, #30
 8003196:	1863      	adds	r3, r4, r1
 8003198:	401a      	ands	r2, r3
 800319a:	1a53      	subs	r3, r2, r1
 800319c:	0080      	lsls	r0, r0, #2
 800319e:	2204      	movs	r2, #4
 80031a0:	5831      	ldr	r1, [r6, r0]
 80031a2:	1ad2      	subs	r2, r2, r3
 80031a4:	00d2      	lsls	r2, r2, #3
 80031a6:	40d1      	lsrs	r1, r2
 80031a8:	1c0a      	adds	r2, r1, #0
 80031aa:	5031      	str	r1, [r6, r0]
 80031ac:	1c39      	adds	r1, r7, #0
 80031ae:	3910      	subs	r1, #16
 80031b0:	465f      	mov	r7, fp
 80031b2:	1809      	adds	r1, r1, r0
 80031b4:	18fc      	adds	r4, r7, r3
 80031b6:	1864      	adds	r4, r4, r1
 80031b8:	3c01      	subs	r4, #1
 80031ba:	7022      	strb	r2, [r4, #0]
 80031bc:	3b02      	subs	r3, #2
 80031be:	d500      	bpl.n	80031c2 <crl_DRBG_AES128_Generate.part.25+0x306>
 80031c0:	e739      	b.n	8003036 <crl_DRBG_AES128_Generate.part.25+0x17a>
 80031c2:	4459      	add	r1, fp
 80031c4:	0a12      	lsrs	r2, r2, #8
 80031c6:	54ca      	strb	r2, [r1, r3]
 80031c8:	3b01      	subs	r3, #1
 80031ca:	d2fb      	bcs.n	80031c4 <crl_DRBG_AES128_Generate.part.25+0x308>
 80031cc:	5032      	str	r2, [r6, r0]
 80031ce:	e732      	b.n	8003036 <crl_DRBG_AES128_Generate.part.25+0x17a>
 80031d0:	2710      	movs	r7, #16
 80031d2:	e72d      	b.n	8003030 <crl_DRBG_AES128_Generate.part.25+0x174>
 80031d4:	2000      	movs	r0, #0
 80031d6:	e7d8      	b.n	800318a <crl_DRBG_AES128_Generate.part.25+0x2ce>
 80031d8:	2002      	movs	r0, #2
 80031da:	e7d6      	b.n	800318a <crl_DRBG_AES128_Generate.part.25+0x2ce>
 80031dc:	2001      	movs	r0, #1
 80031de:	e7d4      	b.n	800318a <crl_DRBG_AES128_Generate.part.25+0x2ce>
 80031e0:	00001773 	.word	0x00001773

080031e4 <SHA512Update>:
 80031e4:	b5f0      	push	{r4, r5, r6, r7, lr}
 80031e6:	4657      	mov	r7, sl
 80031e8:	468a      	mov	sl, r1
 80031ea:	218c      	movs	r1, #140	; 0x8c
 80031ec:	5843      	ldr	r3, [r0, r1]
 80031ee:	464e      	mov	r6, r9
 80031f0:	4645      	mov	r5, r8
 80031f2:	b4e0      	push	{r5, r6, r7}
 80031f4:	1c16      	adds	r6, r2, #0
 80031f6:	00d2      	lsls	r2, r2, #3
 80031f8:	059c      	lsls	r4, r3, #22
 80031fa:	18d3      	adds	r3, r2, r3
 80031fc:	1c07      	adds	r7, r0, #0
 80031fe:	0e64      	lsrs	r4, r4, #25
 8003200:	5043      	str	r3, [r0, r1]
 8003202:	429a      	cmp	r2, r3
 8003204:	d816      	bhi.n	8003234 <SHA512Update+0x50>
 8003206:	2390      	movs	r3, #144	; 0x90
 8003208:	58c2      	ldr	r2, [r0, r3]
 800320a:	0f73      	lsrs	r3, r6, #29
 800320c:	18d2      	adds	r2, r2, r3
 800320e:	2390      	movs	r3, #144	; 0x90
 8003210:	50fa      	str	r2, [r7, r3]
 8003212:	1933      	adds	r3, r6, r4
 8003214:	2b7f      	cmp	r3, #127	; 0x7f
 8003216:	d817      	bhi.n	8003248 <SHA512Update+0x64>
 8003218:	193f      	adds	r7, r7, r4
 800321a:	1c38      	adds	r0, r7, #0
 800321c:	300c      	adds	r0, #12
 800321e:	2300      	movs	r3, #0
 8003220:	4654      	mov	r4, sl
 8003222:	1af2      	subs	r2, r6, r3
 8003224:	18e1      	adds	r1, r4, r3
 8003226:	f003 fd3f 	bl	8006ca8 <memcpy>
 800322a:	bc1c      	pop	{r2, r3, r4}
 800322c:	4690      	mov	r8, r2
 800322e:	4699      	mov	r9, r3
 8003230:	46a2      	mov	sl, r4
 8003232:	bdf0      	pop	{r4, r5, r6, r7, pc}
 8003234:	2390      	movs	r3, #144	; 0x90
 8003236:	58c2      	ldr	r2, [r0, r3]
 8003238:	0f73      	lsrs	r3, r6, #29
 800323a:	3201      	adds	r2, #1
 800323c:	18d2      	adds	r2, r2, r3
 800323e:	2390      	movs	r3, #144	; 0x90
 8003240:	50fa      	str	r2, [r7, r3]
 8003242:	1933      	adds	r3, r6, r4
 8003244:	2b7f      	cmp	r3, #127	; 0x7f
 8003246:	d9e7      	bls.n	8003218 <SHA512Update+0x34>
 8003248:	2580      	movs	r5, #128	; 0x80
 800324a:	1938      	adds	r0, r7, r4
 800324c:	1b2d      	subs	r5, r5, r4
 800324e:	4651      	mov	r1, sl
 8003250:	1c2a      	adds	r2, r5, #0
 8003252:	300c      	adds	r0, #12
 8003254:	f003 fd28 	bl	8006ca8 <memcpy>
 8003258:	2398      	movs	r3, #152	; 0x98
 800325a:	19db      	adds	r3, r3, r7
 800325c:	370c      	adds	r7, #12
 800325e:	1c18      	adds	r0, r3, #0
 8003260:	1c39      	adds	r1, r7, #0
 8003262:	4698      	mov	r8, r3
 8003264:	f7fe f962 	bl	800152c <SHA512Transform>
 8003268:	23ff      	movs	r3, #255	; 0xff
 800326a:	1b1c      	subs	r4, r3, r4
 800326c:	42a6      	cmp	r6, r4
 800326e:	d923      	bls.n	80032b8 <SHA512Update+0xd4>
 8003270:	4653      	mov	r3, sl
 8003272:	195c      	adds	r4, r3, r5
 8003274:	2303      	movs	r3, #3
 8003276:	4699      	mov	r9, r3
 8003278:	e00a      	b.n	8003290 <SHA512Update+0xac>
 800327a:	1c21      	adds	r1, r4, #0
 800327c:	4640      	mov	r0, r8
 800327e:	f7fe f955 	bl	800152c <SHA512Transform>
 8003282:	1c2b      	adds	r3, r5, #0
 8003284:	35ff      	adds	r5, #255	; 0xff
 8003286:	3380      	adds	r3, #128	; 0x80
 8003288:	3480      	adds	r4, #128	; 0x80
 800328a:	42ae      	cmp	r6, r5
 800328c:	d912      	bls.n	80032b4 <SHA512Update+0xd0>
 800328e:	1c1d      	adds	r5, r3, #0
 8003290:	464b      	mov	r3, r9
 8003292:	4223      	tst	r3, r4
 8003294:	d1f1      	bne.n	800327a <SHA512Update+0x96>
 8003296:	1c21      	adds	r1, r4, #0
 8003298:	2280      	movs	r2, #128	; 0x80
 800329a:	1c38      	adds	r0, r7, #0
 800329c:	f003 fd04 	bl	8006ca8 <memcpy>
 80032a0:	4640      	mov	r0, r8
 80032a2:	1c39      	adds	r1, r7, #0
 80032a4:	f7fe f942 	bl	800152c <SHA512Transform>
 80032a8:	1c2b      	adds	r3, r5, #0
 80032aa:	35ff      	adds	r5, #255	; 0xff
 80032ac:	3380      	adds	r3, #128	; 0x80
 80032ae:	3480      	adds	r4, #128	; 0x80
 80032b0:	42ae      	cmp	r6, r5
 80032b2:	d8ec      	bhi.n	800328e <SHA512Update+0xaa>
 80032b4:	1c38      	adds	r0, r7, #0
 80032b6:	e7b3      	b.n	8003220 <SHA512Update+0x3c>
 80032b8:	1c38      	adds	r0, r7, #0
 80032ba:	1c2b      	adds	r3, r5, #0
 80032bc:	e7b0      	b.n	8003220 <SHA512Update+0x3c>
 80032be:	46c0      	nop			; (mov r8, r8)

080032c0 <SHA512Final>:
 80032c0:	b5f0      	push	{r4, r5, r6, r7, lr}
 80032c2:	2390      	movs	r3, #144	; 0x90
 80032c4:	58c3      	ldr	r3, [r0, r3]
 80032c6:	b083      	sub	sp, #12
 80032c8:	0e1a      	lsrs	r2, r3, #24
 80032ca:	1c05      	adds	r5, r0, #0
 80032cc:	4668      	mov	r0, sp
 80032ce:	7002      	strb	r2, [r0, #0]
 80032d0:	0c1a      	lsrs	r2, r3, #16
 80032d2:	7042      	strb	r2, [r0, #1]
 80032d4:	0a1a      	lsrs	r2, r3, #8
 80032d6:	7082      	strb	r2, [r0, #2]
 80032d8:	228c      	movs	r2, #140	; 0x8c
 80032da:	58aa      	ldr	r2, [r5, r2]
 80032dc:	1c0c      	adds	r4, r1, #0
 80032de:	0e11      	lsrs	r1, r2, #24
 80032e0:	7101      	strb	r1, [r0, #4]
 80032e2:	0c11      	lsrs	r1, r2, #16
 80032e4:	7141      	strb	r1, [r0, #5]
 80032e6:	0a11      	lsrs	r1, r2, #8
 80032e8:	70c3      	strb	r3, [r0, #3]
 80032ea:	7181      	strb	r1, [r0, #6]
 80032ec:	0759      	lsls	r1, r3, #29
 80032ee:	08d3      	lsrs	r3, r2, #3
 80032f0:	71c2      	strb	r2, [r0, #7]
 80032f2:	430b      	orrs	r3, r1
 80032f4:	227f      	movs	r2, #127	; 0x7f
 80032f6:	4013      	ands	r3, r2
 80032f8:	2b6f      	cmp	r3, #111	; 0x6f
 80032fa:	d854      	bhi.n	80033a6 <SHA512Final+0xe6>
 80032fc:	18ea      	adds	r2, r5, r3
 80032fe:	2180      	movs	r1, #128	; 0x80
 8003300:	7311      	strb	r1, [r2, #12]
 8003302:	2b6e      	cmp	r3, #110	; 0x6e
 8003304:	dc06      	bgt.n	8003314 <SHA512Final+0x54>
 8003306:	226f      	movs	r2, #111	; 0x6f
 8003308:	1ad2      	subs	r2, r2, r3
 800330a:	330d      	adds	r3, #13
 800330c:	18e8      	adds	r0, r5, r3
 800330e:	2100      	movs	r1, #0
 8003310:	f003 fce6 	bl	8006ce0 <memset>
 8003314:	1c2e      	adds	r6, r5, #0
 8003316:	1c2f      	adds	r7, r5, #0
 8003318:	3698      	adds	r6, #152	; 0x98
 800331a:	370c      	adds	r7, #12
 800331c:	1c2a      	adds	r2, r5, #0
 800331e:	2000      	movs	r0, #0
 8003320:	327c      	adds	r2, #124	; 0x7c
 8003322:	7010      	strb	r0, [r2, #0]
 8003324:	7050      	strb	r0, [r2, #1]
 8003326:	7090      	strb	r0, [r2, #2]
 8003328:	70d0      	strb	r0, [r2, #3]
 800332a:	7110      	strb	r0, [r2, #4]
 800332c:	7150      	strb	r0, [r2, #5]
 800332e:	7190      	strb	r0, [r2, #6]
 8003330:	71d0      	strb	r0, [r2, #7]
 8003332:	1c28      	adds	r0, r5, #0
 8003334:	2208      	movs	r2, #8
 8003336:	4669      	mov	r1, sp
 8003338:	3084      	adds	r0, #132	; 0x84
 800333a:	f003 fcb5 	bl	8006ca8 <memcpy>
 800333e:	1c30      	adds	r0, r6, #0
 8003340:	1c39      	adds	r1, r7, #0
 8003342:	f7fe f8f3 	bl	800152c <SHA512Transform>
 8003346:	1c20      	adds	r0, r4, #0
 8003348:	1c32      	adds	r2, r6, #0
 800334a:	1c23      	adds	r3, r4, #0
 800334c:	3040      	adds	r0, #64	; 0x40
 800334e:	6851      	ldr	r1, [r2, #4]
 8003350:	70d9      	strb	r1, [r3, #3]
 8003352:	6854      	ldr	r4, [r2, #4]
 8003354:	0a21      	lsrs	r1, r4, #8
 8003356:	7099      	strb	r1, [r3, #2]
 8003358:	88d1      	ldrh	r1, [r2, #6]
 800335a:	7059      	strb	r1, [r3, #1]
 800335c:	79d1      	ldrb	r1, [r2, #7]
 800335e:	7019      	strb	r1, [r3, #0]
 8003360:	6811      	ldr	r1, [r2, #0]
 8003362:	71d9      	strb	r1, [r3, #7]
 8003364:	6811      	ldr	r1, [r2, #0]
 8003366:	0a0c      	lsrs	r4, r1, #8
 8003368:	719c      	strb	r4, [r3, #6]
 800336a:	8854      	ldrh	r4, [r2, #2]
 800336c:	715c      	strb	r4, [r3, #5]
 800336e:	78d4      	ldrb	r4, [r2, #3]
 8003370:	3208      	adds	r2, #8
 8003372:	711c      	strb	r4, [r3, #4]
 8003374:	3308      	adds	r3, #8
 8003376:	4283      	cmp	r3, r0
 8003378:	d1e9      	bne.n	800334e <SHA512Final+0x8e>
 800337a:	1c38      	adds	r0, r7, #0
 800337c:	2100      	movs	r1, #0
 800337e:	2280      	movs	r2, #128	; 0x80
 8003380:	f003 fcae 	bl	8006ce0 <memset>
 8003384:	1c30      	adds	r0, r6, #0
 8003386:	2100      	movs	r1, #0
 8003388:	2240      	movs	r2, #64	; 0x40
 800338a:	f003 fca9 	bl	8006ce0 <memset>
 800338e:	358c      	adds	r5, #140	; 0x8c
 8003390:	2300      	movs	r3, #0
 8003392:	702b      	strb	r3, [r5, #0]
 8003394:	706b      	strb	r3, [r5, #1]
 8003396:	70ab      	strb	r3, [r5, #2]
 8003398:	70eb      	strb	r3, [r5, #3]
 800339a:	712b      	strb	r3, [r5, #4]
 800339c:	716b      	strb	r3, [r5, #5]
 800339e:	71ab      	strb	r3, [r5, #6]
 80033a0:	71eb      	strb	r3, [r5, #7]
 80033a2:	b003      	add	sp, #12
 80033a4:	bdf0      	pop	{r4, r5, r6, r7, pc}
 80033a6:	18e9      	adds	r1, r5, r3
 80033a8:	2080      	movs	r0, #128	; 0x80
 80033aa:	7308      	strb	r0, [r1, #12]
 80033ac:	2b7f      	cmp	r3, #127	; 0x7f
 80033ae:	d005      	beq.n	80033bc <SHA512Final+0xfc>
 80033b0:	1ad2      	subs	r2, r2, r3
 80033b2:	330d      	adds	r3, #13
 80033b4:	18e8      	adds	r0, r5, r3
 80033b6:	2100      	movs	r1, #0
 80033b8:	f003 fc92 	bl	8006ce0 <memset>
 80033bc:	1c2e      	adds	r6, r5, #0
 80033be:	1c2f      	adds	r7, r5, #0
 80033c0:	370c      	adds	r7, #12
 80033c2:	3698      	adds	r6, #152	; 0x98
 80033c4:	1c30      	adds	r0, r6, #0
 80033c6:	1c39      	adds	r1, r7, #0
 80033c8:	f7fe f8b0 	bl	800152c <SHA512Transform>
 80033cc:	1c38      	adds	r0, r7, #0
 80033ce:	2100      	movs	r1, #0
 80033d0:	2270      	movs	r2, #112	; 0x70
 80033d2:	f003 fc85 	bl	8006ce0 <memset>
 80033d6:	e7a1      	b.n	800331c <SHA512Final+0x5c>

080033d8 <crl_DRBG_AES128_Instantiate>:
 80033d8:	b5f0      	push	{r4, r5, r6, r7, lr}
 80033da:	4645      	mov	r5, r8
 80033dc:	4657      	mov	r7, sl
 80033de:	464e      	mov	r6, r9
 80033e0:	b4e0      	push	{r5, r6, r7}
 80033e2:	b0d0      	sub	sp, #320	; 0x140
 80033e4:	ac10      	add	r4, sp, #64	; 0x40
 80033e6:	1c15      	adds	r5, r2, #0
 80033e8:	1c06      	adds	r6, r0, #0
 80033ea:	2250      	movs	r2, #80	; 0x50
 80033ec:	1c0f      	adds	r7, r1, #0
 80033ee:	1c20      	adds	r0, r4, #0
 80033f0:	2100      	movs	r1, #0
 80033f2:	4698      	mov	r8, r3
 80033f4:	f003 fc74 	bl	8006ce0 <memset>
 80033f8:	493f      	ldr	r1, [pc, #252]	; (80034f8 <crl_DRBG_AES128_Instantiate+0x120>)
 80033fa:	22b0      	movs	r2, #176	; 0xb0
 80033fc:	a824      	add	r0, sp, #144	; 0x90
 80033fe:	310c      	adds	r1, #12
 8003400:	f003 fc52 	bl	8006ca8 <memcpy>
 8003404:	1c2a      	adds	r2, r5, #0
 8003406:	3a10      	subs	r2, #16
 8003408:	2a10      	cmp	r2, #16
 800340a:	d906      	bls.n	800341a <crl_DRBG_AES128_Instantiate+0x42>
 800340c:	483b      	ldr	r0, [pc, #236]	; (80034fc <crl_DRBG_AES128_Instantiate+0x124>)
 800340e:	b050      	add	sp, #320	; 0x140
 8003410:	bc1c      	pop	{r2, r3, r4}
 8003412:	4690      	mov	r8, r2
 8003414:	4699      	mov	r9, r3
 8003416:	46a2      	mov	sl, r4
 8003418:	bdf0      	pop	{r4, r5, r6, r7, pc}
 800341a:	9a5a      	ldr	r2, [sp, #360]	; 0x168
 800341c:	2a20      	cmp	r2, #32
 800341e:	dd01      	ble.n	8003424 <crl_DRBG_AES128_Instantiate+0x4c>
 8003420:	4837      	ldr	r0, [pc, #220]	; (8003500 <crl_DRBG_AES128_Instantiate+0x128>)
 8003422:	e7f4      	b.n	800340e <crl_DRBG_AES128_Instantiate+0x36>
 8003424:	9b58      	ldr	r3, [sp, #352]	; 0x160
 8003426:	2b10      	cmp	r3, #16
 8003428:	dd01      	ble.n	800342e <crl_DRBG_AES128_Instantiate+0x56>
 800342a:	4836      	ldr	r0, [pc, #216]	; (8003504 <crl_DRBG_AES128_Instantiate+0x12c>)
 800342c:	e7ef      	b.n	800340e <crl_DRBG_AES128_Instantiate+0x36>
 800342e:	195b      	adds	r3, r3, r5
 8003430:	4692      	mov	sl, r2
 8003432:	1c20      	adds	r0, r4, #0
 8003434:	1c39      	adds	r1, r7, #0
 8003436:	1c2a      	adds	r2, r5, #0
 8003438:	4699      	mov	r9, r3
 800343a:	f003 fc35 	bl	8006ca8 <memcpy>
 800343e:	9b58      	ldr	r3, [sp, #352]	; 0x160
 8003440:	44ca      	add	sl, r9
 8003442:	2b00      	cmp	r3, #0
 8003444:	dd04      	ble.n	8003450 <crl_DRBG_AES128_Instantiate+0x78>
 8003446:	1960      	adds	r0, r4, r5
 8003448:	4641      	mov	r1, r8
 800344a:	1c1a      	adds	r2, r3, #0
 800344c:	f003 fc2c 	bl	8006ca8 <memcpy>
 8003450:	9a5a      	ldr	r2, [sp, #360]	; 0x168
 8003452:	2a00      	cmp	r2, #0
 8003454:	dd04      	ble.n	8003460 <crl_DRBG_AES128_Instantiate+0x88>
 8003456:	464b      	mov	r3, r9
 8003458:	18e0      	adds	r0, r4, r3
 800345a:	9959      	ldr	r1, [sp, #356]	; 0x164
 800345c:	f003 fc24 	bl	8006ca8 <memcpy>
 8003460:	2100      	movs	r1, #0
 8003462:	2210      	movs	r2, #16
 8003464:	1c30      	adds	r0, r6, #0
 8003466:	f003 fc3b 	bl	8006ce0 <memset>
 800346a:	1c20      	adds	r0, r4, #0
 800346c:	4651      	mov	r1, sl
 800346e:	466a      	mov	r2, sp
 8003470:	f7ff fafc 	bl	8002a6c <DRBG_AES128_Block_cipher_df.constprop.37>
 8003474:	2800      	cmp	r0, #0
 8003476:	d1ca      	bne.n	800340e <crl_DRBG_AES128_Instantiate+0x36>
 8003478:	ad08      	add	r5, sp, #32
 800347a:	68f3      	ldr	r3, [r6, #12]
 800347c:	3301      	adds	r3, #1
 800347e:	60f3      	str	r3, [r6, #12]
 8003480:	2b00      	cmp	r3, #0
 8003482:	d10c      	bne.n	800349e <crl_DRBG_AES128_Instantiate+0xc6>
 8003484:	68b3      	ldr	r3, [r6, #8]
 8003486:	3301      	adds	r3, #1
 8003488:	60b3      	str	r3, [r6, #8]
 800348a:	2b00      	cmp	r3, #0
 800348c:	d107      	bne.n	800349e <crl_DRBG_AES128_Instantiate+0xc6>
 800348e:	6873      	ldr	r3, [r6, #4]
 8003490:	3301      	adds	r3, #1
 8003492:	6073      	str	r3, [r6, #4]
 8003494:	2b00      	cmp	r3, #0
 8003496:	d102      	bne.n	800349e <crl_DRBG_AES128_Instantiate+0xc6>
 8003498:	6833      	ldr	r3, [r6, #0]
 800349a:	3301      	adds	r3, #1
 800349c:	6033      	str	r3, [r6, #0]
 800349e:	1c29      	adds	r1, r5, #0
 80034a0:	1c30      	adds	r0, r6, #0
 80034a2:	aa24      	add	r2, sp, #144	; 0x90
 80034a4:	2310      	movs	r3, #16
 80034a6:	3510      	adds	r5, #16
 80034a8:	f7ff f8fa 	bl	80026a0 <AES_general_SW_enc>
 80034ac:	42a5      	cmp	r5, r4
 80034ae:	d1e4      	bne.n	800347a <crl_DRBG_AES128_Instantiate+0xa2>
 80034b0:	9a08      	ldr	r2, [sp, #32]
 80034b2:	9b00      	ldr	r3, [sp, #0]
 80034b4:	2000      	movs	r0, #0
 80034b6:	4053      	eors	r3, r2
 80034b8:	6133      	str	r3, [r6, #16]
 80034ba:	9a09      	ldr	r2, [sp, #36]	; 0x24
 80034bc:	9b01      	ldr	r3, [sp, #4]
 80034be:	4053      	eors	r3, r2
 80034c0:	6173      	str	r3, [r6, #20]
 80034c2:	9a0a      	ldr	r2, [sp, #40]	; 0x28
 80034c4:	9b02      	ldr	r3, [sp, #8]
 80034c6:	4053      	eors	r3, r2
 80034c8:	61b3      	str	r3, [r6, #24]
 80034ca:	9a0b      	ldr	r2, [sp, #44]	; 0x2c
 80034cc:	9b03      	ldr	r3, [sp, #12]
 80034ce:	4053      	eors	r3, r2
 80034d0:	61f3      	str	r3, [r6, #28]
 80034d2:	9a0c      	ldr	r2, [sp, #48]	; 0x30
 80034d4:	9b04      	ldr	r3, [sp, #16]
 80034d6:	4053      	eors	r3, r2
 80034d8:	6033      	str	r3, [r6, #0]
 80034da:	9a0d      	ldr	r2, [sp, #52]	; 0x34
 80034dc:	9b05      	ldr	r3, [sp, #20]
 80034de:	4053      	eors	r3, r2
 80034e0:	6073      	str	r3, [r6, #4]
 80034e2:	9a0e      	ldr	r2, [sp, #56]	; 0x38
 80034e4:	9b06      	ldr	r3, [sp, #24]
 80034e6:	4053      	eors	r3, r2
 80034e8:	60b3      	str	r3, [r6, #8]
 80034ea:	9a07      	ldr	r2, [sp, #28]
 80034ec:	9b0f      	ldr	r3, [sp, #60]	; 0x3c
 80034ee:	4053      	eors	r3, r2
 80034f0:	60f3      	str	r3, [r6, #12]
 80034f2:	2301      	movs	r3, #1
 80034f4:	6233      	str	r3, [r6, #32]
 80034f6:	e78a      	b.n	800340e <crl_DRBG_AES128_Instantiate+0x36>
 80034f8:	08006f28 	.word	0x08006f28
 80034fc:	00001776 	.word	0x00001776
 8003500:	00001777 	.word	0x00001777
 8003504:	0000177a 	.word	0x0000177a

08003508 <RNGinit>:
 8003508:	b530      	push	{r4, r5, lr}
 800350a:	1c0c      	adds	r4, r1, #0
 800350c:	b085      	sub	sp, #20
 800350e:	2900      	cmp	r1, #0
 8003510:	d015      	beq.n	800353e <RNGinit+0x36>
 8003512:	2800      	cmp	r0, #0
 8003514:	d013      	beq.n	800353e <RNGinit+0x36>
 8003516:	68c5      	ldr	r5, [r0, #12]
 8003518:	2300      	movs	r3, #0
 800351a:	624b      	str	r3, [r1, #36]	; 0x24
 800351c:	628b      	str	r3, [r1, #40]	; 0x28
 800351e:	6842      	ldr	r2, [r0, #4]
 8003520:	6801      	ldr	r1, [r0, #0]
 8003522:	6883      	ldr	r3, [r0, #8]
 8003524:	9500      	str	r5, [sp, #0]
 8003526:	6905      	ldr	r5, [r0, #16]
 8003528:	9501      	str	r5, [sp, #4]
 800352a:	6940      	ldr	r0, [r0, #20]
 800352c:	9002      	str	r0, [sp, #8]
 800352e:	1c20      	adds	r0, r4, #0
 8003530:	f7ff ff52 	bl	80033d8 <crl_DRBG_AES128_Instantiate>
 8003534:	2800      	cmp	r0, #0
 8003536:	d103      	bne.n	8003540 <RNGinit+0x38>
 8003538:	2301      	movs	r3, #1
 800353a:	62a3      	str	r3, [r4, #40]	; 0x28
 800353c:	e000      	b.n	8003540 <RNGinit+0x38>
 800353e:	4801      	ldr	r0, [pc, #4]	; (8003544 <RNGinit+0x3c>)
 8003540:	b005      	add	sp, #20
 8003542:	bd30      	pop	{r4, r5, pc}
 8003544:	00001774 	.word	0x00001774

08003548 <RNGfree>:
 8003548:	b508      	push	{r3, lr}
 800354a:	2800      	cmp	r0, #0
 800354c:	d004      	beq.n	8003558 <RNGfree+0x10>
 800354e:	6a83      	ldr	r3, [r0, #40]	; 0x28
 8003550:	2b01      	cmp	r3, #1
 8003552:	d003      	beq.n	800355c <RNGfree+0x14>
 8003554:	4804      	ldr	r0, [pc, #16]	; (8003568 <RNGfree+0x20>)
 8003556:	bd08      	pop	{r3, pc}
 8003558:	4804      	ldr	r0, [pc, #16]	; (800356c <RNGfree+0x24>)
 800355a:	e7fc      	b.n	8003556 <RNGfree+0xe>
 800355c:	2100      	movs	r1, #0
 800355e:	2224      	movs	r2, #36	; 0x24
 8003560:	f003 fbbe 	bl	8006ce0 <memset>
 8003564:	2000      	movs	r0, #0
 8003566:	e7f6      	b.n	8003556 <RNGfree+0xe>
 8003568:	00001771 	.word	0x00001771
 800356c:	00001774 	.word	0x00001774

08003570 <RNGgenBytes>:
 8003570:	b5f0      	push	{r4, r5, r6, r7, lr}
 8003572:	465f      	mov	r7, fp
 8003574:	4656      	mov	r6, sl
 8003576:	464d      	mov	r5, r9
 8003578:	4644      	mov	r4, r8
 800357a:	b4f0      	push	{r4, r5, r6, r7}
 800357c:	4680      	mov	r8, r0
 800357e:	b083      	sub	sp, #12
 8003580:	1c0d      	adds	r5, r1, #0
 8003582:	4692      	mov	sl, r2
 8003584:	469b      	mov	fp, r3
 8003586:	2800      	cmp	r0, #0
 8003588:	d01f      	beq.n	80035ca <RNGgenBytes+0x5a>
 800358a:	2a00      	cmp	r2, #0
 800358c:	d01b      	beq.n	80035c6 <RNGgenBytes+0x56>
 800358e:	4642      	mov	r2, r8
 8003590:	6a92      	ldr	r2, [r2, #40]	; 0x28
 8003592:	2a00      	cmp	r2, #0
 8003594:	d107      	bne.n	80035a6 <RNGgenBytes+0x36>
 8003596:	482f      	ldr	r0, [pc, #188]	; (8003654 <RNGgenBytes+0xe4>)
 8003598:	b003      	add	sp, #12
 800359a:	bc3c      	pop	{r2, r3, r4, r5}
 800359c:	4690      	mov	r8, r2
 800359e:	4699      	mov	r9, r3
 80035a0:	46a2      	mov	sl, r4
 80035a2:	46ab      	mov	fp, r5
 80035a4:	bdf0      	pop	{r4, r5, r6, r7, pc}
 80035a6:	465b      	mov	r3, fp
 80035a8:	0c1b      	lsrs	r3, r3, #16
 80035aa:	4699      	mov	r9, r3
 80035ac:	2100      	movs	r1, #0
 80035ae:	2b00      	cmp	r3, #0
 80035b0:	d01d      	beq.n	80035ee <RNGgenBytes+0x7e>
 80035b2:	2d00      	cmp	r5, #0
 80035b4:	d028      	beq.n	8003608 <RNGgenBytes+0x98>
 80035b6:	4657      	mov	r7, sl
 80035b8:	2400      	movs	r4, #0
 80035ba:	686b      	ldr	r3, [r5, #4]
 80035bc:	682a      	ldr	r2, [r5, #0]
 80035be:	2b20      	cmp	r3, #32
 80035c0:	dd05      	ble.n	80035ce <RNGgenBytes+0x5e>
 80035c2:	4825      	ldr	r0, [pc, #148]	; (8003658 <RNGgenBytes+0xe8>)
 80035c4:	e7e8      	b.n	8003598 <RNGgenBytes+0x28>
 80035c6:	2b00      	cmp	r3, #0
 80035c8:	dde1      	ble.n	800358e <RNGgenBytes+0x1e>
 80035ca:	4824      	ldr	r0, [pc, #144]	; (800365c <RNGgenBytes+0xec>)
 80035cc:	e7e4      	b.n	8003598 <RNGgenBytes+0x28>
 80035ce:	4640      	mov	r0, r8
 80035d0:	1c39      	adds	r1, r7, #0
 80035d2:	f7ff fb77 	bl	8002cc4 <crl_DRBG_AES128_Generate.part.25.constprop.36>
 80035d6:	2800      	cmp	r0, #0
 80035d8:	d1de      	bne.n	8003598 <RNGgenBytes+0x28>
 80035da:	2280      	movs	r2, #128	; 0x80
 80035dc:	0252      	lsls	r2, r2, #9
 80035de:	3401      	adds	r4, #1
 80035e0:	18bf      	adds	r7, r7, r2
 80035e2:	454c      	cmp	r4, r9
 80035e4:	d1e9      	bne.n	80035ba <RNGgenBytes+0x4a>
 80035e6:	0421      	lsls	r1, r4, #16
 80035e8:	1b0c      	subs	r4, r1, r4
 80035ea:	0424      	lsls	r4, r4, #16
 80035ec:	46a1      	mov	r9, r4
 80035ee:	2d00      	cmp	r5, #0
 80035f0:	d021      	beq.n	8003636 <RNGgenBytes+0xc6>
 80035f2:	cd0c      	ldmia	r5!, {r2, r3}
 80035f4:	2b20      	cmp	r3, #32
 80035f6:	dce4      	bgt.n	80035c2 <RNGgenBytes+0x52>
 80035f8:	4658      	mov	r0, fp
 80035fa:	2480      	movs	r4, #128	; 0x80
 80035fc:	4448      	add	r0, r9
 80035fe:	0264      	lsls	r4, r4, #9
 8003600:	42a0      	cmp	r0, r4
 8003602:	dd12      	ble.n	800362a <RNGgenBytes+0xba>
 8003604:	4816      	ldr	r0, [pc, #88]	; (8003660 <RNGgenBytes+0xf0>)
 8003606:	e7c7      	b.n	8003598 <RNGgenBytes+0x28>
 8003608:	4656      	mov	r6, sl
 800360a:	2400      	movs	r4, #0
 800360c:	4640      	mov	r0, r8
 800360e:	1c31      	adds	r1, r6, #0
 8003610:	2200      	movs	r2, #0
 8003612:	2300      	movs	r3, #0
 8003614:	f7ff fb56 	bl	8002cc4 <crl_DRBG_AES128_Generate.part.25.constprop.36>
 8003618:	2800      	cmp	r0, #0
 800361a:	d1bd      	bne.n	8003598 <RNGgenBytes+0x28>
 800361c:	2380      	movs	r3, #128	; 0x80
 800361e:	025b      	lsls	r3, r3, #9
 8003620:	3401      	adds	r4, #1
 8003622:	18f6      	adds	r6, r6, r3
 8003624:	454c      	cmp	r4, r9
 8003626:	d1f1      	bne.n	800360c <RNGgenBytes+0x9c>
 8003628:	e7dd      	b.n	80035e6 <RNGgenBytes+0x76>
 800362a:	9000      	str	r0, [sp, #0]
 800362c:	4451      	add	r1, sl
 800362e:	4640      	mov	r0, r8
 8003630:	f7ff fc44 	bl	8002ebc <crl_DRBG_AES128_Generate.part.25>
 8003634:	e7b0      	b.n	8003598 <RNGgenBytes+0x28>
 8003636:	465b      	mov	r3, fp
 8003638:	2280      	movs	r2, #128	; 0x80
 800363a:	444b      	add	r3, r9
 800363c:	0252      	lsls	r2, r2, #9
 800363e:	4293      	cmp	r3, r2
 8003640:	dce0      	bgt.n	8003604 <RNGgenBytes+0x94>
 8003642:	9300      	str	r3, [sp, #0]
 8003644:	4451      	add	r1, sl
 8003646:	4640      	mov	r0, r8
 8003648:	2200      	movs	r2, #0
 800364a:	2300      	movs	r3, #0
 800364c:	f7ff fc36 	bl	8002ebc <crl_DRBG_AES128_Generate.part.25>
 8003650:	e7a2      	b.n	8003598 <RNGgenBytes+0x28>
 8003652:	46c0      	nop			; (mov r8, r8)
 8003654:	00001771 	.word	0x00001771
 8003658:	00001778 	.word	0x00001778
 800365c:	00001774 	.word	0x00001774
 8003660:	00001779 	.word	0x00001779

08003664 <fe25519_mul>:
 8003664:	b5f0      	push	{r4, r5, r6, r7, lr}
 8003666:	465f      	mov	r7, fp
 8003668:	4656      	mov	r6, sl
 800366a:	4644      	mov	r4, r8
 800366c:	464d      	mov	r5, r9
 800366e:	b4f0      	push	{r4, r5, r6, r7}
 8003670:	b0c5      	sub	sp, #276	; 0x114
 8003672:	1c15      	adds	r5, r2, #0
 8003674:	4682      	mov	sl, r0
 8003676:	1c0c      	adds	r4, r1, #0
 8003678:	2240      	movs	r2, #64	; 0x40
 800367a:	2100      	movs	r1, #0
 800367c:	a834      	add	r0, sp, #208	; 0xd0
 800367e:	f003 fb2f 	bl	8006ce0 <memset>
 8003682:	6869      	ldr	r1, [r5, #4]
 8003684:	6828      	ldr	r0, [r5, #0]
 8003686:	68aa      	ldr	r2, [r5, #8]
 8003688:	68eb      	ldr	r3, [r5, #12]
 800368a:	912c      	str	r1, [sp, #176]	; 0xb0
 800368c:	6969      	ldr	r1, [r5, #20]
 800368e:	902b      	str	r0, [sp, #172]	; 0xac
 8003690:	922d      	str	r2, [sp, #180]	; 0xb4
 8003692:	6928      	ldr	r0, [r5, #16]
 8003694:	69aa      	ldr	r2, [r5, #24]
 8003696:	932e      	str	r3, [sp, #184]	; 0xb8
 8003698:	9130      	str	r1, [sp, #192]	; 0xc0
 800369a:	ab34      	add	r3, sp, #208	; 0xd0
 800369c:	9939      	ldr	r1, [sp, #228]	; 0xe4
 800369e:	69ed      	ldr	r5, [r5, #28]
 80036a0:	902f      	str	r0, [sp, #188]	; 0xbc
 80036a2:	9231      	str	r2, [sp, #196]	; 0xc4
 80036a4:	4698      	mov	r8, r3
 80036a6:	9f34      	ldr	r7, [sp, #208]	; 0xd0
 80036a8:	9838      	ldr	r0, [sp, #224]	; 0xe0
 80036aa:	9a3a      	ldr	r2, [sp, #232]	; 0xe8
 80036ac:	9b3b      	ldr	r3, [sp, #236]	; 0xec
 80036ae:	46a3      	mov	fp, r4
 80036b0:	9129      	str	r1, [sp, #164]	; 0xa4
 80036b2:	ac3c      	add	r4, sp, #240	; 0xf0
 80036b4:	4651      	mov	r1, sl
 80036b6:	9532      	str	r5, [sp, #200]	; 0xc8
 80036b8:	9426      	str	r4, [sp, #152]	; 0x98
 80036ba:	46da      	mov	sl, fp
 80036bc:	9d35      	ldr	r5, [sp, #212]	; 0xd4
 80036be:	9c36      	ldr	r4, [sp, #216]	; 0xd8
 80036c0:	9e37      	ldr	r6, [sp, #220]	; 0xdc
 80036c2:	902a      	str	r0, [sp, #168]	; 0xa8
 80036c4:	9228      	str	r2, [sp, #160]	; 0xa0
 80036c6:	9327      	str	r3, [sp, #156]	; 0x9c
 80036c8:	9133      	str	r1, [sp, #204]	; 0xcc
 80036ca:	46bb      	mov	fp, r7
 80036cc:	e008      	b.n	80036e0 <fe25519_mul+0x7c>
 80036ce:	9028      	str	r0, [sp, #160]	; 0xa0
 80036d0:	9800      	ldr	r0, [sp, #0]
 80036d2:	9429      	str	r4, [sp, #164]	; 0xa4
 80036d4:	962a      	str	r6, [sp, #168]	; 0xa8
 80036d6:	9c04      	ldr	r4, [sp, #16]
 80036d8:	9e06      	ldr	r6, [sp, #24]
 80036da:	9d02      	ldr	r5, [sp, #8]
 80036dc:	9127      	str	r1, [sp, #156]	; 0x9c
 80036de:	4683      	mov	fp, r0
 80036e0:	4653      	mov	r3, sl
 80036e2:	3304      	adds	r3, #4
 80036e4:	469a      	mov	sl, r3
 80036e6:	3b04      	subs	r3, #4
 80036e8:	cb04      	ldmia	r3!, {r2}
 80036ea:	2100      	movs	r1, #0
 80036ec:	4691      	mov	r9, r2
 80036ee:	1c10      	adds	r0, r2, #0
 80036f0:	2300      	movs	r3, #0
 80036f2:	9a2b      	ldr	r2, [sp, #172]	; 0xac
 80036f4:	f7fc fd94 	bl	8000220 <__aeabi_lmul>
 80036f8:	465a      	mov	r2, fp
 80036fa:	2300      	movs	r3, #0
 80036fc:	9216      	str	r2, [sp, #88]	; 0x58
 80036fe:	9317      	str	r3, [sp, #92]	; 0x5c
 8003700:	9a16      	ldr	r2, [sp, #88]	; 0x58
 8003702:	9b17      	ldr	r3, [sp, #92]	; 0x5c
 8003704:	1812      	adds	r2, r2, r0
 8003706:	414b      	adcs	r3, r1
 8003708:	4640      	mov	r0, r8
 800370a:	6002      	str	r2, [r0, #0]
 800370c:	9308      	str	r3, [sp, #32]
 800370e:	9a2c      	ldr	r2, [sp, #176]	; 0xb0
 8003710:	2100      	movs	r1, #0
 8003712:	2300      	movs	r3, #0
 8003714:	4648      	mov	r0, r9
 8003716:	9109      	str	r1, [sp, #36]	; 0x24
 8003718:	f7fc fd82 	bl	8000220 <__aeabi_lmul>
 800371c:	2200      	movs	r2, #0
 800371e:	9518      	str	r5, [sp, #96]	; 0x60
 8003720:	9219      	str	r2, [sp, #100]	; 0x64
 8003722:	9a18      	ldr	r2, [sp, #96]	; 0x60
 8003724:	9b19      	ldr	r3, [sp, #100]	; 0x64
 8003726:	1812      	adds	r2, r2, r0
 8003728:	414b      	adcs	r3, r1
 800372a:	9808      	ldr	r0, [sp, #32]
 800372c:	9909      	ldr	r1, [sp, #36]	; 0x24
 800372e:	1880      	adds	r0, r0, r2
 8003730:	4159      	adcs	r1, r3
 8003732:	9000      	str	r0, [sp, #0]
 8003734:	9101      	str	r1, [sp, #4]
 8003736:	9a01      	ldr	r2, [sp, #4]
 8003738:	4641      	mov	r1, r8
 800373a:	6048      	str	r0, [r1, #4]
 800373c:	2300      	movs	r3, #0
 800373e:	920a      	str	r2, [sp, #40]	; 0x28
 8003740:	4648      	mov	r0, r9
 8003742:	9a2d      	ldr	r2, [sp, #180]	; 0xb4
 8003744:	2100      	movs	r1, #0
 8003746:	930b      	str	r3, [sp, #44]	; 0x2c
 8003748:	f7fc fd6a 	bl	8000220 <__aeabi_lmul>
 800374c:	941a      	str	r4, [sp, #104]	; 0x68
 800374e:	2400      	movs	r4, #0
 8003750:	941b      	str	r4, [sp, #108]	; 0x6c
 8003752:	9a1a      	ldr	r2, [sp, #104]	; 0x68
 8003754:	9b1b      	ldr	r3, [sp, #108]	; 0x6c
 8003756:	1812      	adds	r2, r2, r0
 8003758:	414b      	adcs	r3, r1
 800375a:	9c0a      	ldr	r4, [sp, #40]	; 0x28
 800375c:	9d0b      	ldr	r5, [sp, #44]	; 0x2c
 800375e:	18a4      	adds	r4, r4, r2
 8003760:	415d      	adcs	r5, r3
 8003762:	9402      	str	r4, [sp, #8]
 8003764:	9503      	str	r5, [sp, #12]
 8003766:	9803      	ldr	r0, [sp, #12]
 8003768:	4645      	mov	r5, r8
 800376a:	9a2e      	ldr	r2, [sp, #184]	; 0xb8
 800376c:	60ac      	str	r4, [r5, #8]
 800376e:	900c      	str	r0, [sp, #48]	; 0x30
 8003770:	2100      	movs	r1, #0
 8003772:	2300      	movs	r3, #0
 8003774:	4648      	mov	r0, r9
 8003776:	910d      	str	r1, [sp, #52]	; 0x34
 8003778:	f7fc fd52 	bl	8000220 <__aeabi_lmul>
 800377c:	2200      	movs	r2, #0
 800377e:	961c      	str	r6, [sp, #112]	; 0x70
 8003780:	921d      	str	r2, [sp, #116]	; 0x74
 8003782:	9c1c      	ldr	r4, [sp, #112]	; 0x70
 8003784:	9d1d      	ldr	r5, [sp, #116]	; 0x74
 8003786:	1900      	adds	r0, r0, r4
 8003788:	4169      	adcs	r1, r5
 800378a:	9c0c      	ldr	r4, [sp, #48]	; 0x30
 800378c:	9d0d      	ldr	r5, [sp, #52]	; 0x34
 800378e:	1824      	adds	r4, r4, r0
 8003790:	414d      	adcs	r5, r1
 8003792:	9404      	str	r4, [sp, #16]
 8003794:	9505      	str	r5, [sp, #20]
 8003796:	9805      	ldr	r0, [sp, #20]
 8003798:	4645      	mov	r5, r8
 800379a:	60ec      	str	r4, [r5, #12]
 800379c:	900e      	str	r0, [sp, #56]	; 0x38
 800379e:	920f      	str	r2, [sp, #60]	; 0x3c
 80037a0:	2300      	movs	r3, #0
 80037a2:	9a2f      	ldr	r2, [sp, #188]	; 0xbc
 80037a4:	4648      	mov	r0, r9
 80037a6:	2100      	movs	r1, #0
 80037a8:	f7fc fd3a 	bl	8000220 <__aeabi_lmul>
 80037ac:	9c2a      	ldr	r4, [sp, #168]	; 0xa8
 80037ae:	2500      	movs	r5, #0
 80037b0:	941e      	str	r4, [sp, #120]	; 0x78
 80037b2:	951f      	str	r5, [sp, #124]	; 0x7c
 80037b4:	9c1e      	ldr	r4, [sp, #120]	; 0x78
 80037b6:	9d1f      	ldr	r5, [sp, #124]	; 0x7c
 80037b8:	1900      	adds	r0, r0, r4
 80037ba:	4169      	adcs	r1, r5
 80037bc:	9c0e      	ldr	r4, [sp, #56]	; 0x38
 80037be:	9d0f      	ldr	r5, [sp, #60]	; 0x3c
 80037c0:	1824      	adds	r4, r4, r0
 80037c2:	414d      	adcs	r5, r1
 80037c4:	9406      	str	r4, [sp, #24]
 80037c6:	9507      	str	r5, [sp, #28]
 80037c8:	9807      	ldr	r0, [sp, #28]
 80037ca:	4645      	mov	r5, r8
 80037cc:	612c      	str	r4, [r5, #16]
 80037ce:	9a30      	ldr	r2, [sp, #192]	; 0xc0
 80037d0:	9010      	str	r0, [sp, #64]	; 0x40
 80037d2:	2100      	movs	r1, #0
 80037d4:	2300      	movs	r3, #0
 80037d6:	4648      	mov	r0, r9
 80037d8:	9111      	str	r1, [sp, #68]	; 0x44
 80037da:	f7fc fd21 	bl	8000220 <__aeabi_lmul>
 80037de:	9c29      	ldr	r4, [sp, #164]	; 0xa4
 80037e0:	2500      	movs	r5, #0
 80037e2:	9420      	str	r4, [sp, #128]	; 0x80
 80037e4:	9521      	str	r5, [sp, #132]	; 0x84
 80037e6:	9e20      	ldr	r6, [sp, #128]	; 0x80
 80037e8:	9f21      	ldr	r7, [sp, #132]	; 0x84
 80037ea:	1836      	adds	r6, r6, r0
 80037ec:	414f      	adcs	r7, r1
 80037ee:	9c10      	ldr	r4, [sp, #64]	; 0x40
 80037f0:	9d11      	ldr	r5, [sp, #68]	; 0x44
 80037f2:	2000      	movs	r0, #0
 80037f4:	1936      	adds	r6, r6, r4
 80037f6:	416f      	adcs	r7, r5
 80037f8:	4645      	mov	r5, r8
 80037fa:	616e      	str	r6, [r5, #20]
 80037fc:	2300      	movs	r3, #0
 80037fe:	9712      	str	r7, [sp, #72]	; 0x48
 8003800:	2100      	movs	r1, #0
 8003802:	9013      	str	r0, [sp, #76]	; 0x4c
 8003804:	9a31      	ldr	r2, [sp, #196]	; 0xc4
 8003806:	4648      	mov	r0, r9
 8003808:	f7fc fd0a 	bl	8000220 <__aeabi_lmul>
 800380c:	9c28      	ldr	r4, [sp, #160]	; 0xa0
 800380e:	2500      	movs	r5, #0
 8003810:	9422      	str	r4, [sp, #136]	; 0x88
 8003812:	9523      	str	r5, [sp, #140]	; 0x8c
 8003814:	9c22      	ldr	r4, [sp, #136]	; 0x88
 8003816:	9d23      	ldr	r5, [sp, #140]	; 0x8c
 8003818:	1824      	adds	r4, r4, r0
 800381a:	414d      	adcs	r5, r1
 800381c:	2200      	movs	r2, #0
 800381e:	9812      	ldr	r0, [sp, #72]	; 0x48
 8003820:	9913      	ldr	r1, [sp, #76]	; 0x4c
 8003822:	1824      	adds	r4, r4, r0
 8003824:	414d      	adcs	r5, r1
 8003826:	4641      	mov	r1, r8
 8003828:	618c      	str	r4, [r1, #24]
 800382a:	9215      	str	r2, [sp, #84]	; 0x54
 800382c:	2300      	movs	r3, #0
 800382e:	9a32      	ldr	r2, [sp, #200]	; 0xc8
 8003830:	4648      	mov	r0, r9
 8003832:	2100      	movs	r1, #0
 8003834:	9514      	str	r5, [sp, #80]	; 0x50
 8003836:	f7fc fcf3 	bl	8000220 <__aeabi_lmul>
 800383a:	9b27      	ldr	r3, [sp, #156]	; 0x9c
 800383c:	2200      	movs	r2, #0
 800383e:	9324      	str	r3, [sp, #144]	; 0x90
 8003840:	9225      	str	r2, [sp, #148]	; 0x94
 8003842:	9a24      	ldr	r2, [sp, #144]	; 0x90
 8003844:	9b25      	ldr	r3, [sp, #148]	; 0x94
 8003846:	1880      	adds	r0, r0, r2
 8003848:	4159      	adcs	r1, r3
 800384a:	9a14      	ldr	r2, [sp, #80]	; 0x50
 800384c:	9b15      	ldr	r3, [sp, #84]	; 0x54
 800384e:	1880      	adds	r0, r0, r2
 8003850:	4159      	adcs	r1, r3
 8003852:	4643      	mov	r3, r8
 8003854:	61d8      	str	r0, [r3, #28]
 8003856:	6219      	str	r1, [r3, #32]
 8003858:	2204      	movs	r2, #4
 800385a:	9b26      	ldr	r3, [sp, #152]	; 0x98
 800385c:	4490      	add	r8, r2
 800385e:	4598      	cmp	r8, r3
 8003860:	d000      	beq.n	8003864 <fe25519_mul+0x200>
 8003862:	e734      	b.n	80036ce <fe25519_mul+0x6a>
 8003864:	9933      	ldr	r1, [sp, #204]	; 0xcc
 8003866:	983c      	ldr	r0, [sp, #240]	; 0xf0
 8003868:	468a      	mov	sl, r1
 800386a:	2226      	movs	r2, #38	; 0x26
 800386c:	2300      	movs	r3, #0
 800386e:	2100      	movs	r1, #0
 8003870:	f7fc fcd6 	bl	8000220 <__aeabi_lmul>
 8003874:	9a34      	ldr	r2, [sp, #208]	; 0xd0
 8003876:	2300      	movs	r3, #0
 8003878:	1c04      	adds	r4, r0, #0
 800387a:	1c0d      	adds	r5, r1, #0
 800387c:	18a4      	adds	r4, r4, r2
 800387e:	415d      	adcs	r5, r3
 8003880:	983d      	ldr	r0, [sp, #244]	; 0xf4
 8003882:	2226      	movs	r2, #38	; 0x26
 8003884:	2300      	movs	r3, #0
 8003886:	2100      	movs	r1, #0
 8003888:	9400      	str	r4, [sp, #0]
 800388a:	9501      	str	r5, [sp, #4]
 800388c:	f7fc fcc8 	bl	8000220 <__aeabi_lmul>
 8003890:	9a35      	ldr	r2, [sp, #212]	; 0xd4
 8003892:	2300      	movs	r3, #0
 8003894:	9c01      	ldr	r4, [sp, #4]
 8003896:	1812      	adds	r2, r2, r0
 8003898:	414b      	adcs	r3, r1
 800389a:	2500      	movs	r5, #0
 800389c:	1c10      	adds	r0, r2, #0
 800389e:	1c19      	adds	r1, r3, #0
 80038a0:	1900      	adds	r0, r0, r4
 80038a2:	4169      	adcs	r1, r5
 80038a4:	9002      	str	r0, [sp, #8]
 80038a6:	9103      	str	r1, [sp, #12]
 80038a8:	2226      	movs	r2, #38	; 0x26
 80038aa:	2300      	movs	r3, #0
 80038ac:	983e      	ldr	r0, [sp, #248]	; 0xf8
 80038ae:	2100      	movs	r1, #0
 80038b0:	f7fc fcb6 	bl	8000220 <__aeabi_lmul>
 80038b4:	9a36      	ldr	r2, [sp, #216]	; 0xd8
 80038b6:	2300      	movs	r3, #0
 80038b8:	9c03      	ldr	r4, [sp, #12]
 80038ba:	1812      	adds	r2, r2, r0
 80038bc:	414b      	adcs	r3, r1
 80038be:	1c10      	adds	r0, r2, #0
 80038c0:	1c19      	adds	r1, r3, #0
 80038c2:	1900      	adds	r0, r0, r4
 80038c4:	4169      	adcs	r1, r5
 80038c6:	9004      	str	r0, [sp, #16]
 80038c8:	9105      	str	r1, [sp, #20]
 80038ca:	2226      	movs	r2, #38	; 0x26
 80038cc:	2300      	movs	r3, #0
 80038ce:	983f      	ldr	r0, [sp, #252]	; 0xfc
 80038d0:	2100      	movs	r1, #0
 80038d2:	f7fc fca5 	bl	8000220 <__aeabi_lmul>
 80038d6:	9a37      	ldr	r2, [sp, #220]	; 0xdc
 80038d8:	2300      	movs	r3, #0
 80038da:	9c05      	ldr	r4, [sp, #20]
 80038dc:	1812      	adds	r2, r2, r0
 80038de:	414b      	adcs	r3, r1
 80038e0:	1c10      	adds	r0, r2, #0
 80038e2:	1c19      	adds	r1, r3, #0
 80038e4:	1900      	adds	r0, r0, r4
 80038e6:	4169      	adcs	r1, r5
 80038e8:	9006      	str	r0, [sp, #24]
 80038ea:	9107      	str	r1, [sp, #28]
 80038ec:	2226      	movs	r2, #38	; 0x26
 80038ee:	2300      	movs	r3, #0
 80038f0:	9840      	ldr	r0, [sp, #256]	; 0x100
 80038f2:	2100      	movs	r1, #0
 80038f4:	f7fc fc94 	bl	8000220 <__aeabi_lmul>
 80038f8:	9a38      	ldr	r2, [sp, #224]	; 0xe0
 80038fa:	2300      	movs	r3, #0
 80038fc:	9c07      	ldr	r4, [sp, #28]
 80038fe:	1812      	adds	r2, r2, r0
 8003900:	414b      	adcs	r3, r1
 8003902:	1c10      	adds	r0, r2, #0
 8003904:	1c19      	adds	r1, r3, #0
 8003906:	1900      	adds	r0, r0, r4
 8003908:	4169      	adcs	r1, r5
 800390a:	9008      	str	r0, [sp, #32]
 800390c:	9109      	str	r1, [sp, #36]	; 0x24
 800390e:	2226      	movs	r2, #38	; 0x26
 8003910:	2300      	movs	r3, #0
 8003912:	9841      	ldr	r0, [sp, #260]	; 0x104
 8003914:	2100      	movs	r1, #0
 8003916:	f7fc fc83 	bl	8000220 <__aeabi_lmul>
 800391a:	9a39      	ldr	r2, [sp, #228]	; 0xe4
 800391c:	2300      	movs	r3, #0
 800391e:	9c09      	ldr	r4, [sp, #36]	; 0x24
 8003920:	1812      	adds	r2, r2, r0
 8003922:	414b      	adcs	r3, r1
 8003924:	1c10      	adds	r0, r2, #0
 8003926:	1c19      	adds	r1, r3, #0
 8003928:	1900      	adds	r0, r0, r4
 800392a:	4169      	adcs	r1, r5
 800392c:	900a      	str	r0, [sp, #40]	; 0x28
 800392e:	910b      	str	r1, [sp, #44]	; 0x2c
 8003930:	2226      	movs	r2, #38	; 0x26
 8003932:	2300      	movs	r3, #0
 8003934:	9842      	ldr	r0, [sp, #264]	; 0x108
 8003936:	2100      	movs	r1, #0
 8003938:	f7fc fc72 	bl	8000220 <__aeabi_lmul>
 800393c:	9a3a      	ldr	r2, [sp, #232]	; 0xe8
 800393e:	2300      	movs	r3, #0
 8003940:	9c0b      	ldr	r4, [sp, #44]	; 0x2c
 8003942:	1812      	adds	r2, r2, r0
 8003944:	414b      	adcs	r3, r1
 8003946:	1c10      	adds	r0, r2, #0
 8003948:	1c19      	adds	r1, r3, #0
 800394a:	1900      	adds	r0, r0, r4
 800394c:	4169      	adcs	r1, r5
 800394e:	900c      	str	r0, [sp, #48]	; 0x30
 8003950:	910d      	str	r1, [sp, #52]	; 0x34
 8003952:	2226      	movs	r2, #38	; 0x26
 8003954:	2300      	movs	r3, #0
 8003956:	9843      	ldr	r0, [sp, #268]	; 0x10c
 8003958:	2100      	movs	r1, #0
 800395a:	f7fc fc61 	bl	8000220 <__aeabi_lmul>
 800395e:	9c3b      	ldr	r4, [sp, #236]	; 0xec
 8003960:	9e0d      	ldr	r6, [sp, #52]	; 0x34
 8003962:	1824      	adds	r4, r4, r0
 8003964:	414d      	adcs	r5, r1
 8003966:	2700      	movs	r7, #0
 8003968:	19a4      	adds	r4, r4, r6
 800396a:	417d      	adcs	r5, r7
 800396c:	2226      	movs	r2, #38	; 0x26
 800396e:	2300      	movs	r3, #0
 8003970:	1c28      	adds	r0, r5, #0
 8003972:	2100      	movs	r1, #0
 8003974:	f7fc fc54 	bl	8000220 <__aeabi_lmul>
 8003978:	9a00      	ldr	r2, [sp, #0]
 800397a:	2300      	movs	r3, #0
 800397c:	1c06      	adds	r6, r0, #0
 800397e:	1c0f      	adds	r7, r1, #0
 8003980:	18b6      	adds	r6, r6, r2
 8003982:	415f      	adcs	r7, r3
 8003984:	9a02      	ldr	r2, [sp, #8]
 8003986:	1c38      	adds	r0, r7, #0
 8003988:	2100      	movs	r1, #0
 800398a:	1812      	adds	r2, r2, r0
 800398c:	414b      	adcs	r3, r1
 800398e:	4651      	mov	r1, sl
 8003990:	604a      	str	r2, [r1, #4]
 8003992:	9a04      	ldr	r2, [sp, #16]
 8003994:	1c18      	adds	r0, r3, #0
 8003996:	2100      	movs	r1, #0
 8003998:	2300      	movs	r3, #0
 800399a:	1812      	adds	r2, r2, r0
 800399c:	414b      	adcs	r3, r1
 800399e:	4650      	mov	r0, sl
 80039a0:	6082      	str	r2, [r0, #8]
 80039a2:	9a06      	ldr	r2, [sp, #24]
 80039a4:	1c18      	adds	r0, r3, #0
 80039a6:	2300      	movs	r3, #0
 80039a8:	1812      	adds	r2, r2, r0
 80039aa:	414b      	adcs	r3, r1
 80039ac:	4651      	mov	r1, sl
 80039ae:	60ca      	str	r2, [r1, #12]
 80039b0:	9a08      	ldr	r2, [sp, #32]
 80039b2:	1c18      	adds	r0, r3, #0
 80039b4:	2100      	movs	r1, #0
 80039b6:	2300      	movs	r3, #0
 80039b8:	1812      	adds	r2, r2, r0
 80039ba:	414b      	adcs	r3, r1
 80039bc:	4650      	mov	r0, sl
 80039be:	6102      	str	r2, [r0, #16]
 80039c0:	9a0a      	ldr	r2, [sp, #40]	; 0x28
 80039c2:	1c18      	adds	r0, r3, #0
 80039c4:	2300      	movs	r3, #0
 80039c6:	1812      	adds	r2, r2, r0
 80039c8:	414b      	adcs	r3, r1
 80039ca:	4651      	mov	r1, sl
 80039cc:	614a      	str	r2, [r1, #20]
 80039ce:	9a0c      	ldr	r2, [sp, #48]	; 0x30
 80039d0:	1c18      	adds	r0, r3, #0
 80039d2:	2100      	movs	r1, #0
 80039d4:	2300      	movs	r3, #0
 80039d6:	1812      	adds	r2, r2, r0
 80039d8:	414b      	adcs	r3, r1
 80039da:	4650      	mov	r0, sl
 80039dc:	6182      	str	r2, [r0, #24]
 80039de:	1c18      	adds	r0, r3, #0
 80039e0:	1c22      	adds	r2, r4, #0
 80039e2:	2300      	movs	r3, #0
 80039e4:	1812      	adds	r2, r2, r0
 80039e6:	414b      	adcs	r3, r1
 80039e8:	4651      	mov	r1, sl
 80039ea:	61ca      	str	r2, [r1, #28]
 80039ec:	2226      	movs	r2, #38	; 0x26
 80039ee:	4353      	muls	r3, r2
 80039f0:	199e      	adds	r6, r3, r6
 80039f2:	600e      	str	r6, [r1, #0]
 80039f4:	b045      	add	sp, #276	; 0x114
 80039f6:	bc3c      	pop	{r2, r3, r4, r5}
 80039f8:	4690      	mov	r8, r2
 80039fa:	4699      	mov	r9, r3
 80039fc:	46a2      	mov	sl, r4
 80039fe:	46ab      	mov	fp, r5
 8003a00:	bdf0      	pop	{r4, r5, r6, r7, pc}
 8003a02:	46c0      	nop			; (mov r8, r8)

08003a04 <ed25519_double>:
 8003a04:	b5f0      	push	{r4, r5, r6, r7, lr}
 8003a06:	465f      	mov	r7, fp
 8003a08:	4656      	mov	r6, sl
 8003a0a:	464d      	mov	r5, r9
 8003a0c:	4644      	mov	r4, r8
 8003a0e:	b4f0      	push	{r4, r5, r6, r7}
 8003a10:	4688      	mov	r8, r1
 8003a12:	b0ed      	sub	sp, #436	; 0x1b4
 8003a14:	9018      	str	r0, [sp, #96]	; 0x60
 8003a16:	4642      	mov	r2, r8
 8003a18:	a824      	add	r0, sp, #144	; 0x90
 8003a1a:	4683      	mov	fp, r0
 8003a1c:	f7ff fe22 	bl	8003664 <fe25519_mul>
 8003a20:	4642      	mov	r2, r8
 8003a22:	3220      	adds	r2, #32
 8003a24:	a82c      	add	r0, sp, #176	; 0xb0
 8003a26:	1c11      	adds	r1, r2, #0
 8003a28:	f7ff fe1c 	bl	8003664 <fe25519_mul>
 8003a2c:	4642      	mov	r2, r8
 8003a2e:	3240      	adds	r2, #64	; 0x40
 8003a30:	a834      	add	r0, sp, #208	; 0xd0
 8003a32:	1c11      	adds	r1, r2, #0
 8003a34:	f7ff fe16 	bl	8003664 <fe25519_mul>
 8003a38:	9c34      	ldr	r4, [sp, #208]	; 0xd0
 8003a3a:	9835      	ldr	r0, [sp, #212]	; 0xd4
 8003a3c:	2500      	movs	r5, #0
 8003a3e:	1924      	adds	r4, r4, r4
 8003a40:	416d      	adcs	r5, r5
 8003a42:	2100      	movs	r1, #0
 8003a44:	2700      	movs	r7, #0
 8003a46:	1c2e      	adds	r6, r5, #0
 8003a48:	1800      	adds	r0, r0, r0
 8003a4a:	4149      	adcs	r1, r1
 8003a4c:	1980      	adds	r0, r0, r6
 8003a4e:	4179      	adcs	r1, r7
 8003a50:	9008      	str	r0, [sp, #32]
 8003a52:	9836      	ldr	r0, [sp, #216]	; 0xd8
 8003a54:	1c0e      	adds	r6, r1, #0
 8003a56:	2100      	movs	r1, #0
 8003a58:	1800      	adds	r0, r0, r0
 8003a5a:	4149      	adcs	r1, r1
 8003a5c:	1980      	adds	r0, r0, r6
 8003a5e:	4179      	adcs	r1, r7
 8003a60:	4682      	mov	sl, r0
 8003a62:	9837      	ldr	r0, [sp, #220]	; 0xdc
 8003a64:	1c0e      	adds	r6, r1, #0
 8003a66:	2100      	movs	r1, #0
 8003a68:	1800      	adds	r0, r0, r0
 8003a6a:	4149      	adcs	r1, r1
 8003a6c:	1980      	adds	r0, r0, r6
 8003a6e:	4179      	adcs	r1, r7
 8003a70:	9002      	str	r0, [sp, #8]
 8003a72:	9838      	ldr	r0, [sp, #224]	; 0xe0
 8003a74:	1c0e      	adds	r6, r1, #0
 8003a76:	2100      	movs	r1, #0
 8003a78:	1800      	adds	r0, r0, r0
 8003a7a:	4149      	adcs	r1, r1
 8003a7c:	1980      	adds	r0, r0, r6
 8003a7e:	4179      	adcs	r1, r7
 8003a80:	9004      	str	r0, [sp, #16]
 8003a82:	9839      	ldr	r0, [sp, #228]	; 0xe4
 8003a84:	1c0e      	adds	r6, r1, #0
 8003a86:	2100      	movs	r1, #0
 8003a88:	1800      	adds	r0, r0, r0
 8003a8a:	4149      	adcs	r1, r1
 8003a8c:	1980      	adds	r0, r0, r6
 8003a8e:	4179      	adcs	r1, r7
 8003a90:	9006      	str	r0, [sp, #24]
 8003a92:	983a      	ldr	r0, [sp, #232]	; 0xe8
 8003a94:	1c0e      	adds	r6, r1, #0
 8003a96:	2100      	movs	r1, #0
 8003a98:	1800      	adds	r0, r0, r0
 8003a9a:	4149      	adcs	r1, r1
 8003a9c:	1980      	adds	r0, r0, r6
 8003a9e:	4179      	adcs	r1, r7
 8003aa0:	900a      	str	r0, [sp, #40]	; 0x28
 8003aa2:	983b      	ldr	r0, [sp, #236]	; 0xec
 8003aa4:	1c0e      	adds	r6, r1, #0
 8003aa6:	2100      	movs	r1, #0
 8003aa8:	1800      	adds	r0, r0, r0
 8003aaa:	4149      	adcs	r1, r1
 8003aac:	1836      	adds	r6, r6, r0
 8003aae:	414f      	adcs	r7, r1
 8003ab0:	2226      	movs	r2, #38	; 0x26
 8003ab2:	2300      	movs	r3, #0
 8003ab4:	1c38      	adds	r0, r7, #0
 8003ab6:	2100      	movs	r1, #0
 8003ab8:	f7fc fbb2 	bl	8000220 <__aeabi_lmul>
 8003abc:	2700      	movs	r7, #0
 8003abe:	46b1      	mov	r9, r6
 8003ac0:	1c26      	adds	r6, r4, #0
 8003ac2:	1980      	adds	r0, r0, r6
 8003ac4:	4179      	adcs	r1, r7
 8003ac6:	9c08      	ldr	r4, [sp, #32]
 8003ac8:	1c0e      	adds	r6, r1, #0
 8003aca:	2500      	movs	r5, #0
 8003acc:	19a4      	adds	r4, r4, r6
 8003ace:	417d      	adcs	r5, r7
 8003ad0:	9435      	str	r4, [sp, #212]	; 0xd4
 8003ad2:	1c2e      	adds	r6, r5, #0
 8003ad4:	4654      	mov	r4, sl
 8003ad6:	2500      	movs	r5, #0
 8003ad8:	19a4      	adds	r4, r4, r6
 8003ada:	417d      	adcs	r5, r7
 8003adc:	9436      	str	r4, [sp, #216]	; 0xd8
 8003ade:	9c02      	ldr	r4, [sp, #8]
 8003ae0:	1c2e      	adds	r6, r5, #0
 8003ae2:	2500      	movs	r5, #0
 8003ae4:	19a4      	adds	r4, r4, r6
 8003ae6:	417d      	adcs	r5, r7
 8003ae8:	9437      	str	r4, [sp, #220]	; 0xdc
 8003aea:	9c04      	ldr	r4, [sp, #16]
 8003aec:	1c2e      	adds	r6, r5, #0
 8003aee:	2500      	movs	r5, #0
 8003af0:	19a4      	adds	r4, r4, r6
 8003af2:	417d      	adcs	r5, r7
 8003af4:	9438      	str	r4, [sp, #224]	; 0xe0
 8003af6:	9c06      	ldr	r4, [sp, #24]
 8003af8:	1c2e      	adds	r6, r5, #0
 8003afa:	2500      	movs	r5, #0
 8003afc:	19a4      	adds	r4, r4, r6
 8003afe:	417d      	adcs	r5, r7
 8003b00:	9439      	str	r4, [sp, #228]	; 0xe4
 8003b02:	9c0a      	ldr	r4, [sp, #40]	; 0x28
 8003b04:	1c2e      	adds	r6, r5, #0
 8003b06:	2500      	movs	r5, #0
 8003b08:	19a4      	adds	r4, r4, r6
 8003b0a:	417d      	adcs	r5, r7
 8003b0c:	943a      	str	r4, [sp, #232]	; 0xe8
 8003b0e:	1c2e      	adds	r6, r5, #0
 8003b10:	2226      	movs	r2, #38	; 0x26
 8003b12:	464c      	mov	r4, r9
 8003b14:	2500      	movs	r5, #0
 8003b16:	19a4      	adds	r4, r4, r6
 8003b18:	417d      	adcs	r5, r7
 8003b1a:	1c13      	adds	r3, r2, #0
 8003b1c:	436b      	muls	r3, r5
 8003b1e:	1818      	adds	r0, r3, r0
 8003b20:	4643      	mov	r3, r8
 8003b22:	9034      	str	r0, [sp, #208]	; 0xd0
 8003b24:	6a18      	ldr	r0, [r3, #32]
 8003b26:	4692      	mov	sl, r2
 8003b28:	2100      	movs	r1, #0
 8003b2a:	681a      	ldr	r2, [r3, #0]
 8003b2c:	1c05      	adds	r5, r0, #0
 8003b2e:	2300      	movs	r3, #0
 8003b30:	1c0e      	adds	r6, r1, #0
 8003b32:	18ad      	adds	r5, r5, r2
 8003b34:	415e      	adcs	r6, r3
 8003b36:	943b      	str	r4, [sp, #236]	; 0xec
 8003b38:	4644      	mov	r4, r8
 8003b3a:	9508      	str	r5, [sp, #32]
 8003b3c:	9609      	str	r6, [sp, #36]	; 0x24
 8003b3e:	6a66      	ldr	r6, [r4, #36]	; 0x24
 8003b40:	6864      	ldr	r4, [r4, #4]
 8003b42:	9809      	ldr	r0, [sp, #36]	; 0x24
 8003b44:	2500      	movs	r5, #0
 8003b46:	19a4      	adds	r4, r4, r6
 8003b48:	417d      	adcs	r5, r7
 8003b4a:	4642      	mov	r2, r8
 8003b4c:	1824      	adds	r4, r4, r0
 8003b4e:	414d      	adcs	r5, r1
 8003b50:	6a96      	ldr	r6, [r2, #40]	; 0x28
 8003b52:	9402      	str	r4, [sp, #8]
 8003b54:	6894      	ldr	r4, [r2, #8]
 8003b56:	1c28      	adds	r0, r5, #0
 8003b58:	2500      	movs	r5, #0
 8003b5a:	19a4      	adds	r4, r4, r6
 8003b5c:	417d      	adcs	r5, r7
 8003b5e:	1824      	adds	r4, r4, r0
 8003b60:	414d      	adcs	r5, r1
 8003b62:	6ad6      	ldr	r6, [r2, #44]	; 0x2c
 8003b64:	9404      	str	r4, [sp, #16]
 8003b66:	68d4      	ldr	r4, [r2, #12]
 8003b68:	1c28      	adds	r0, r5, #0
 8003b6a:	2500      	movs	r5, #0
 8003b6c:	19a4      	adds	r4, r4, r6
 8003b6e:	417d      	adcs	r5, r7
 8003b70:	1824      	adds	r4, r4, r0
 8003b72:	414d      	adcs	r5, r1
 8003b74:	9406      	str	r4, [sp, #24]
 8003b76:	6b16      	ldr	r6, [r2, #48]	; 0x30
 8003b78:	6914      	ldr	r4, [r2, #16]
 8003b7a:	1c28      	adds	r0, r5, #0
 8003b7c:	2500      	movs	r5, #0
 8003b7e:	19a4      	adds	r4, r4, r6
 8003b80:	417d      	adcs	r5, r7
 8003b82:	1824      	adds	r4, r4, r0
 8003b84:	414d      	adcs	r5, r1
 8003b86:	6b56      	ldr	r6, [r2, #52]	; 0x34
 8003b88:	940a      	str	r4, [sp, #40]	; 0x28
 8003b8a:	6954      	ldr	r4, [r2, #20]
 8003b8c:	1c28      	adds	r0, r5, #0
 8003b8e:	2500      	movs	r5, #0
 8003b90:	19a4      	adds	r4, r4, r6
 8003b92:	417d      	adcs	r5, r7
 8003b94:	1824      	adds	r4, r4, r0
 8003b96:	414d      	adcs	r5, r1
 8003b98:	6b96      	ldr	r6, [r2, #56]	; 0x38
 8003b9a:	940c      	str	r4, [sp, #48]	; 0x30
 8003b9c:	6994      	ldr	r4, [r2, #24]
 8003b9e:	1c28      	adds	r0, r5, #0
 8003ba0:	2500      	movs	r5, #0
 8003ba2:	19a4      	adds	r4, r4, r6
 8003ba4:	417d      	adcs	r5, r7
 8003ba6:	1824      	adds	r4, r4, r0
 8003ba8:	414d      	adcs	r5, r1
 8003baa:	6bd6      	ldr	r6, [r2, #60]	; 0x3c
 8003bac:	46a1      	mov	r9, r4
 8003bae:	69d4      	ldr	r4, [r2, #28]
 8003bb0:	1c28      	adds	r0, r5, #0
 8003bb2:	2500      	movs	r5, #0
 8003bb4:	19a4      	adds	r4, r4, r6
 8003bb6:	417d      	adcs	r5, r7
 8003bb8:	1900      	adds	r0, r0, r4
 8003bba:	4169      	adcs	r1, r5
 8003bbc:	1c06      	adds	r6, r0, #0
 8003bbe:	2226      	movs	r2, #38	; 0x26
 8003bc0:	2300      	movs	r3, #0
 8003bc2:	1c08      	adds	r0, r1, #0
 8003bc4:	2100      	movs	r1, #0
 8003bc6:	f7fc fb2b 	bl	8000220 <__aeabi_lmul>
 8003bca:	9a08      	ldr	r2, [sp, #32]
 8003bcc:	2300      	movs	r3, #0
 8003bce:	1880      	adds	r0, r0, r2
 8003bd0:	4159      	adcs	r1, r3
 8003bd2:	9a02      	ldr	r2, [sp, #8]
 8003bd4:	2500      	movs	r5, #0
 8003bd6:	1c0c      	adds	r4, r1, #0
 8003bd8:	1912      	adds	r2, r2, r4
 8003bda:	416b      	adcs	r3, r5
 8003bdc:	9245      	str	r2, [sp, #276]	; 0x114
 8003bde:	9a04      	ldr	r2, [sp, #16]
 8003be0:	1c1c      	adds	r4, r3, #0
 8003be2:	2300      	movs	r3, #0
 8003be4:	1912      	adds	r2, r2, r4
 8003be6:	416b      	adcs	r3, r5
 8003be8:	9246      	str	r2, [sp, #280]	; 0x118
 8003bea:	9a06      	ldr	r2, [sp, #24]
 8003bec:	1c1c      	adds	r4, r3, #0
 8003bee:	2300      	movs	r3, #0
 8003bf0:	1912      	adds	r2, r2, r4
 8003bf2:	416b      	adcs	r3, r5
 8003bf4:	9247      	str	r2, [sp, #284]	; 0x11c
 8003bf6:	9a0a      	ldr	r2, [sp, #40]	; 0x28
 8003bf8:	1c1c      	adds	r4, r3, #0
 8003bfa:	2300      	movs	r3, #0
 8003bfc:	1912      	adds	r2, r2, r4
 8003bfe:	416b      	adcs	r3, r5
 8003c00:	9248      	str	r2, [sp, #288]	; 0x120
 8003c02:	9a0c      	ldr	r2, [sp, #48]	; 0x30
 8003c04:	1c1c      	adds	r4, r3, #0
 8003c06:	2300      	movs	r3, #0
 8003c08:	1912      	adds	r2, r2, r4
 8003c0a:	416b      	adcs	r3, r5
 8003c0c:	9249      	str	r2, [sp, #292]	; 0x124
 8003c0e:	1c1c      	adds	r4, r3, #0
 8003c10:	464a      	mov	r2, r9
 8003c12:	2300      	movs	r3, #0
 8003c14:	1912      	adds	r2, r2, r4
 8003c16:	416b      	adcs	r3, r5
 8003c18:	924a      	str	r2, [sp, #296]	; 0x128
 8003c1a:	1c1c      	adds	r4, r3, #0
 8003c1c:	1c32      	adds	r2, r6, #0
 8003c1e:	2300      	movs	r3, #0
 8003c20:	1912      	adds	r2, r2, r4
 8003c22:	416b      	adcs	r3, r5
 8003c24:	4655      	mov	r5, sl
 8003c26:	436b      	muls	r3, r5
 8003c28:	ac44      	add	r4, sp, #272	; 0x110
 8003c2a:	1818      	adds	r0, r3, r0
 8003c2c:	924b      	str	r2, [sp, #300]	; 0x12c
 8003c2e:	9044      	str	r0, [sp, #272]	; 0x110
 8003c30:	1c21      	adds	r1, r4, #0
 8003c32:	a83c      	add	r0, sp, #240	; 0xf0
 8003c34:	1c22      	adds	r2, r4, #0
 8003c36:	f7ff fd15 	bl	8003664 <fe25519_mul>
 8003c3a:	9e24      	ldr	r6, [sp, #144]	; 0x90
 8003c3c:	983c      	ldr	r0, [sp, #240]	; 0xf0
 8003c3e:	2100      	movs	r1, #0
 8003c40:	46a1      	mov	r9, r4
 8003c42:	1c32      	adds	r2, r6, #0
 8003c44:	2300      	movs	r3, #0
 8003c46:	1c04      	adds	r4, r0, #0
 8003c48:	1c0d      	adds	r5, r1, #0
 8003c4a:	1aa4      	subs	r4, r4, r2
 8003c4c:	419d      	sbcs	r5, r3
 8003c4e:	9610      	str	r6, [sp, #64]	; 0x40
 8003c50:	465e      	mov	r6, fp
 8003c52:	9408      	str	r4, [sp, #32]
 8003c54:	9509      	str	r5, [sp, #36]	; 0x24
 8003c56:	6876      	ldr	r6, [r6, #4]
 8003c58:	9a09      	ldr	r2, [sp, #36]	; 0x24
 8003c5a:	9c3d      	ldr	r4, [sp, #244]	; 0xf4
 8003c5c:	17eb      	asrs	r3, r5, #31
 8003c5e:	1c30      	adds	r0, r6, #0
 8003c60:	2500      	movs	r5, #0
 8003c62:	1a24      	subs	r4, r4, r0
 8003c64:	418d      	sbcs	r5, r1
 8003c66:	9612      	str	r6, [sp, #72]	; 0x48
 8003c68:	1c1f      	adds	r7, r3, #0
 8003c6a:	1c16      	adds	r6, r2, #0
 8003c6c:	1936      	adds	r6, r6, r4
 8003c6e:	416f      	adcs	r7, r5
 8003c70:	9602      	str	r6, [sp, #8]
 8003c72:	9703      	str	r7, [sp, #12]
 8003c74:	17fb      	asrs	r3, r7, #31
 8003c76:	465f      	mov	r7, fp
 8003c78:	68bf      	ldr	r7, [r7, #8]
 8003c7a:	9a03      	ldr	r2, [sp, #12]
 8003c7c:	9c3e      	ldr	r4, [sp, #248]	; 0xf8
 8003c7e:	1c38      	adds	r0, r7, #0
 8003c80:	2500      	movs	r5, #0
 8003c82:	1a24      	subs	r4, r4, r0
 8003c84:	418d      	sbcs	r5, r1
 8003c86:	9714      	str	r7, [sp, #80]	; 0x50
 8003c88:	1c16      	adds	r6, r2, #0
 8003c8a:	1c1f      	adds	r7, r3, #0
 8003c8c:	1936      	adds	r6, r6, r4
 8003c8e:	416f      	adcs	r7, r5
 8003c90:	9604      	str	r6, [sp, #16]
 8003c92:	9705      	str	r7, [sp, #20]
 8003c94:	17fb      	asrs	r3, r7, #31
 8003c96:	465f      	mov	r7, fp
 8003c98:	68ff      	ldr	r7, [r7, #12]
 8003c9a:	9a05      	ldr	r2, [sp, #20]
 8003c9c:	9c3f      	ldr	r4, [sp, #252]	; 0xfc
 8003c9e:	1c38      	adds	r0, r7, #0
 8003ca0:	2500      	movs	r5, #0
 8003ca2:	1a24      	subs	r4, r4, r0
 8003ca4:	418d      	sbcs	r5, r1
 8003ca6:	9716      	str	r7, [sp, #88]	; 0x58
 8003ca8:	1c16      	adds	r6, r2, #0
 8003caa:	1c1f      	adds	r7, r3, #0
 8003cac:	1936      	adds	r6, r6, r4
 8003cae:	416f      	adcs	r7, r5
 8003cb0:	9606      	str	r6, [sp, #24]
 8003cb2:	9707      	str	r7, [sp, #28]
 8003cb4:	17fb      	asrs	r3, r7, #31
 8003cb6:	465f      	mov	r7, fp
 8003cb8:	693f      	ldr	r7, [r7, #16]
 8003cba:	9a07      	ldr	r2, [sp, #28]
 8003cbc:	9c40      	ldr	r4, [sp, #256]	; 0x100
 8003cbe:	1c38      	adds	r0, r7, #0
 8003cc0:	2500      	movs	r5, #0
 8003cc2:	1a24      	subs	r4, r4, r0
 8003cc4:	418d      	sbcs	r5, r1
 8003cc6:	9719      	str	r7, [sp, #100]	; 0x64
 8003cc8:	1c16      	adds	r6, r2, #0
 8003cca:	1c1f      	adds	r7, r3, #0
 8003ccc:	1936      	adds	r6, r6, r4
 8003cce:	416f      	adcs	r7, r5
 8003cd0:	960a      	str	r6, [sp, #40]	; 0x28
 8003cd2:	970b      	str	r7, [sp, #44]	; 0x2c
 8003cd4:	17fb      	asrs	r3, r7, #31
 8003cd6:	465f      	mov	r7, fp
 8003cd8:	697f      	ldr	r7, [r7, #20]
 8003cda:	9a0b      	ldr	r2, [sp, #44]	; 0x2c
 8003cdc:	9c41      	ldr	r4, [sp, #260]	; 0x104
 8003cde:	1c38      	adds	r0, r7, #0
 8003ce0:	2500      	movs	r5, #0
 8003ce2:	1a24      	subs	r4, r4, r0
 8003ce4:	418d      	sbcs	r5, r1
 8003ce6:	971a      	str	r7, [sp, #104]	; 0x68
 8003ce8:	1c16      	adds	r6, r2, #0
 8003cea:	1c1f      	adds	r7, r3, #0
 8003cec:	1936      	adds	r6, r6, r4
 8003cee:	416f      	adcs	r7, r5
 8003cf0:	960c      	str	r6, [sp, #48]	; 0x30
 8003cf2:	970d      	str	r7, [sp, #52]	; 0x34
 8003cf4:	17fb      	asrs	r3, r7, #31
 8003cf6:	465f      	mov	r7, fp
 8003cf8:	69bf      	ldr	r7, [r7, #24]
 8003cfa:	9a0d      	ldr	r2, [sp, #52]	; 0x34
 8003cfc:	9c42      	ldr	r4, [sp, #264]	; 0x108
 8003cfe:	1c38      	adds	r0, r7, #0
 8003d00:	2500      	movs	r5, #0
 8003d02:	1a24      	subs	r4, r4, r0
 8003d04:	418d      	sbcs	r5, r1
 8003d06:	971b      	str	r7, [sp, #108]	; 0x6c
 8003d08:	1c16      	adds	r6, r2, #0
 8003d0a:	1c1f      	adds	r7, r3, #0
 8003d0c:	1936      	adds	r6, r6, r4
 8003d0e:	416f      	adcs	r7, r5
 8003d10:	960e      	str	r6, [sp, #56]	; 0x38
 8003d12:	970f      	str	r7, [sp, #60]	; 0x3c
 8003d14:	17fb      	asrs	r3, r7, #31
 8003d16:	465f      	mov	r7, fp
 8003d18:	69ff      	ldr	r7, [r7, #28]
 8003d1a:	9c43      	ldr	r4, [sp, #268]	; 0x10c
 8003d1c:	1c38      	adds	r0, r7, #0
 8003d1e:	2500      	movs	r5, #0
 8003d20:	1a24      	subs	r4, r4, r0
 8003d22:	418d      	sbcs	r5, r1
 8003d24:	9a0f      	ldr	r2, [sp, #60]	; 0x3c
 8003d26:	971c      	str	r7, [sp, #112]	; 0x70
 8003d28:	1c26      	adds	r6, r4, #0
 8003d2a:	1c2f      	adds	r7, r5, #0
 8003d2c:	18b6      	adds	r6, r6, r2
 8003d2e:	415f      	adcs	r7, r3
 8003d30:	17f9      	asrs	r1, r7, #31
 8003d32:	2226      	movs	r2, #38	; 0x26
 8003d34:	2300      	movs	r3, #0
 8003d36:	1c38      	adds	r0, r7, #0
 8003d38:	f7fc fa72 	bl	8000220 <__aeabi_lmul>
 8003d3c:	9a08      	ldr	r2, [sp, #32]
 8003d3e:	2300      	movs	r3, #0
 8003d40:	1880      	adds	r0, r0, r2
 8003d42:	4159      	adcs	r1, r3
 8003d44:	17cb      	asrs	r3, r1, #31
 8003d46:	9a02      	ldr	r2, [sp, #8]
 8003d48:	9108      	str	r1, [sp, #32]
 8003d4a:	9309      	str	r3, [sp, #36]	; 0x24
 8003d4c:	2300      	movs	r3, #0
 8003d4e:	9c08      	ldr	r4, [sp, #32]
 8003d50:	9d09      	ldr	r5, [sp, #36]	; 0x24
 8003d52:	18a4      	adds	r4, r4, r2
 8003d54:	415d      	adcs	r5, r3
 8003d56:	9402      	str	r4, [sp, #8]
 8003d58:	9503      	str	r5, [sp, #12]
 8003d5a:	9b03      	ldr	r3, [sp, #12]
 8003d5c:	9a04      	ldr	r2, [sp, #16]
 8003d5e:	17db      	asrs	r3, r3, #31
 8003d60:	9309      	str	r3, [sp, #36]	; 0x24
 8003d62:	9508      	str	r5, [sp, #32]
 8003d64:	2300      	movs	r3, #0
 8003d66:	9c08      	ldr	r4, [sp, #32]
 8003d68:	9d09      	ldr	r5, [sp, #36]	; 0x24
 8003d6a:	18a4      	adds	r4, r4, r2
 8003d6c:	415d      	adcs	r5, r3
 8003d6e:	9404      	str	r4, [sp, #16]
 8003d70:	9505      	str	r5, [sp, #20]
 8003d72:	9b05      	ldr	r3, [sp, #20]
 8003d74:	9a06      	ldr	r2, [sp, #24]
 8003d76:	17db      	asrs	r3, r3, #31
 8003d78:	9309      	str	r3, [sp, #36]	; 0x24
 8003d7a:	9508      	str	r5, [sp, #32]
 8003d7c:	2300      	movs	r3, #0
 8003d7e:	9c08      	ldr	r4, [sp, #32]
 8003d80:	9d09      	ldr	r5, [sp, #36]	; 0x24
 8003d82:	18a4      	adds	r4, r4, r2
 8003d84:	415d      	adcs	r5, r3
 8003d86:	9406      	str	r4, [sp, #24]
 8003d88:	9507      	str	r5, [sp, #28]
 8003d8a:	9b07      	ldr	r3, [sp, #28]
 8003d8c:	9a0a      	ldr	r2, [sp, #40]	; 0x28
 8003d8e:	17db      	asrs	r3, r3, #31
 8003d90:	9309      	str	r3, [sp, #36]	; 0x24
 8003d92:	9508      	str	r5, [sp, #32]
 8003d94:	2300      	movs	r3, #0
 8003d96:	9c08      	ldr	r4, [sp, #32]
 8003d98:	9d09      	ldr	r5, [sp, #36]	; 0x24
 8003d9a:	18a4      	adds	r4, r4, r2
 8003d9c:	415d      	adcs	r5, r3
 8003d9e:	940a      	str	r4, [sp, #40]	; 0x28
 8003da0:	950b      	str	r5, [sp, #44]	; 0x2c
 8003da2:	9b0b      	ldr	r3, [sp, #44]	; 0x2c
 8003da4:	9a0c      	ldr	r2, [sp, #48]	; 0x30
 8003da6:	17db      	asrs	r3, r3, #31
 8003da8:	9309      	str	r3, [sp, #36]	; 0x24
 8003daa:	9508      	str	r5, [sp, #32]
 8003dac:	2300      	movs	r3, #0
 8003dae:	9c08      	ldr	r4, [sp, #32]
 8003db0:	9d09      	ldr	r5, [sp, #36]	; 0x24
 8003db2:	18a4      	adds	r4, r4, r2
 8003db4:	415d      	adcs	r5, r3
 8003db6:	940c      	str	r4, [sp, #48]	; 0x30
 8003db8:	950d      	str	r5, [sp, #52]	; 0x34
 8003dba:	9b0d      	ldr	r3, [sp, #52]	; 0x34
 8003dbc:	9a0e      	ldr	r2, [sp, #56]	; 0x38
 8003dbe:	17db      	asrs	r3, r3, #31
 8003dc0:	9309      	str	r3, [sp, #36]	; 0x24
 8003dc2:	9508      	str	r5, [sp, #32]
 8003dc4:	2300      	movs	r3, #0
 8003dc6:	9c08      	ldr	r4, [sp, #32]
 8003dc8:	9d09      	ldr	r5, [sp, #36]	; 0x24
 8003dca:	18a4      	adds	r4, r4, r2
 8003dcc:	415d      	adcs	r5, r3
 8003dce:	940e      	str	r4, [sp, #56]	; 0x38
 8003dd0:	950f      	str	r5, [sp, #60]	; 0x3c
 8003dd2:	9a0f      	ldr	r2, [sp, #60]	; 0x3c
 8003dd4:	17eb      	asrs	r3, r5, #31
 8003dd6:	2500      	movs	r5, #0
 8003dd8:	1c2f      	adds	r7, r5, #0
 8003dda:	18b6      	adds	r6, r6, r2
 8003ddc:	415f      	adcs	r7, r3
 8003dde:	4651      	mov	r1, sl
 8003de0:	4379      	muls	r1, r7
 8003de2:	9d2c      	ldr	r5, [sp, #176]	; 0xb0
 8003de4:	180a      	adds	r2, r1, r0
 8003de6:	2300      	movs	r3, #0
 8003de8:	951d      	str	r5, [sp, #116]	; 0x74
 8003dea:	1c28      	adds	r0, r5, #0
 8003dec:	2100      	movs	r1, #0
 8003dee:	1c14      	adds	r4, r2, #0
 8003df0:	1c1d      	adds	r5, r3, #0
 8003df2:	1a24      	subs	r4, r4, r0
 8003df4:	418d      	sbcs	r5, r1
 8003df6:	9408      	str	r4, [sp, #32]
 8003df8:	9509      	str	r5, [sp, #36]	; 0x24
 8003dfa:	982d      	ldr	r0, [sp, #180]	; 0xb4
 8003dfc:	9a09      	ldr	r2, [sp, #36]	; 0x24
 8003dfe:	9c02      	ldr	r4, [sp, #8]
 8003e00:	17eb      	asrs	r3, r5, #31
 8003e02:	2500      	movs	r5, #0
 8003e04:	1a24      	subs	r4, r4, r0
 8003e06:	418d      	sbcs	r5, r1
 8003e08:	901e      	str	r0, [sp, #120]	; 0x78
 8003e0a:	1c19      	adds	r1, r3, #0
 8003e0c:	1c10      	adds	r0, r2, #0
 8003e0e:	1900      	adds	r0, r0, r4
 8003e10:	4169      	adcs	r1, r5
 8003e12:	9002      	str	r0, [sp, #8]
 8003e14:	9103      	str	r1, [sp, #12]
 8003e16:	17cb      	asrs	r3, r1, #31
 8003e18:	992e      	ldr	r1, [sp, #184]	; 0xb8
 8003e1a:	9a03      	ldr	r2, [sp, #12]
 8003e1c:	9c04      	ldr	r4, [sp, #16]
 8003e1e:	4688      	mov	r8, r1
 8003e20:	1c08      	adds	r0, r1, #0
 8003e22:	2500      	movs	r5, #0
 8003e24:	2100      	movs	r1, #0
 8003e26:	1a24      	subs	r4, r4, r0
 8003e28:	418d      	sbcs	r5, r1
 8003e2a:	1c10      	adds	r0, r2, #0
 8003e2c:	1c19      	adds	r1, r3, #0
 8003e2e:	1900      	adds	r0, r0, r4
 8003e30:	4169      	adcs	r1, r5
 8003e32:	9004      	str	r0, [sp, #16]
 8003e34:	9105      	str	r1, [sp, #20]
 8003e36:	17cb      	asrs	r3, r1, #31
 8003e38:	992f      	ldr	r1, [sp, #188]	; 0xbc
 8003e3a:	9a05      	ldr	r2, [sp, #20]
 8003e3c:	9c06      	ldr	r4, [sp, #24]
 8003e3e:	911f      	str	r1, [sp, #124]	; 0x7c
 8003e40:	1c08      	adds	r0, r1, #0
 8003e42:	2500      	movs	r5, #0
 8003e44:	2100      	movs	r1, #0
 8003e46:	1a24      	subs	r4, r4, r0
 8003e48:	418d      	sbcs	r5, r1
 8003e4a:	1c10      	adds	r0, r2, #0
 8003e4c:	1c19      	adds	r1, r3, #0
 8003e4e:	1900      	adds	r0, r0, r4
 8003e50:	4169      	adcs	r1, r5
 8003e52:	9006      	str	r0, [sp, #24]
 8003e54:	9107      	str	r1, [sp, #28]
 8003e56:	17cb      	asrs	r3, r1, #31
 8003e58:	9930      	ldr	r1, [sp, #192]	; 0xc0
 8003e5a:	9a07      	ldr	r2, [sp, #28]
 8003e5c:	9c0a      	ldr	r4, [sp, #40]	; 0x28
 8003e5e:	9120      	str	r1, [sp, #128]	; 0x80
 8003e60:	1c08      	adds	r0, r1, #0
 8003e62:	2500      	movs	r5, #0
 8003e64:	2100      	movs	r1, #0
 8003e66:	1a24      	subs	r4, r4, r0
 8003e68:	418d      	sbcs	r5, r1
 8003e6a:	1c10      	adds	r0, r2, #0
 8003e6c:	1c19      	adds	r1, r3, #0
 8003e6e:	1900      	adds	r0, r0, r4
 8003e70:	4169      	adcs	r1, r5
 8003e72:	900a      	str	r0, [sp, #40]	; 0x28
 8003e74:	910b      	str	r1, [sp, #44]	; 0x2c
 8003e76:	17cb      	asrs	r3, r1, #31
 8003e78:	9931      	ldr	r1, [sp, #196]	; 0xc4
 8003e7a:	9a0b      	ldr	r2, [sp, #44]	; 0x2c
 8003e7c:	9c0c      	ldr	r4, [sp, #48]	; 0x30
 8003e7e:	9121      	str	r1, [sp, #132]	; 0x84
 8003e80:	1c08      	adds	r0, r1, #0
 8003e82:	2500      	movs	r5, #0
 8003e84:	2100      	movs	r1, #0
 8003e86:	1a24      	subs	r4, r4, r0
 8003e88:	418d      	sbcs	r5, r1
 8003e8a:	1c10      	adds	r0, r2, #0
 8003e8c:	1c19      	adds	r1, r3, #0
 8003e8e:	1900      	adds	r0, r0, r4
 8003e90:	4169      	adcs	r1, r5
 8003e92:	900c      	str	r0, [sp, #48]	; 0x30
 8003e94:	910d      	str	r1, [sp, #52]	; 0x34
 8003e96:	17cb      	asrs	r3, r1, #31
 8003e98:	9932      	ldr	r1, [sp, #200]	; 0xc8
 8003e9a:	9a0d      	ldr	r2, [sp, #52]	; 0x34
 8003e9c:	9c0e      	ldr	r4, [sp, #56]	; 0x38
 8003e9e:	9122      	str	r1, [sp, #136]	; 0x88
 8003ea0:	1c08      	adds	r0, r1, #0
 8003ea2:	2500      	movs	r5, #0
 8003ea4:	2100      	movs	r1, #0
 8003ea6:	1a24      	subs	r4, r4, r0
 8003ea8:	418d      	sbcs	r5, r1
 8003eaa:	1c10      	adds	r0, r2, #0
 8003eac:	1c19      	adds	r1, r3, #0
 8003eae:	1900      	adds	r0, r0, r4
 8003eb0:	4169      	adcs	r1, r5
 8003eb2:	1c34      	adds	r4, r6, #0
 8003eb4:	9e33      	ldr	r6, [sp, #204]	; 0xcc
 8003eb6:	900e      	str	r0, [sp, #56]	; 0x38
 8003eb8:	910f      	str	r1, [sp, #60]	; 0x3c
 8003eba:	17cb      	asrs	r3, r1, #31
 8003ebc:	1c30      	adds	r0, r6, #0
 8003ebe:	2100      	movs	r1, #0
 8003ec0:	2500      	movs	r5, #0
 8003ec2:	1a24      	subs	r4, r4, r0
 8003ec4:	418d      	sbcs	r5, r1
 8003ec6:	9a0f      	ldr	r2, [sp, #60]	; 0x3c
 8003ec8:	9623      	str	r6, [sp, #140]	; 0x8c
 8003eca:	1c2f      	adds	r7, r5, #0
 8003ecc:	1c26      	adds	r6, r4, #0
 8003ece:	18b6      	adds	r6, r6, r2
 8003ed0:	415f      	adcs	r7, r3
 8003ed2:	17f9      	asrs	r1, r7, #31
 8003ed4:	2226      	movs	r2, #38	; 0x26
 8003ed6:	2300      	movs	r3, #0
 8003ed8:	1c38      	adds	r0, r7, #0
 8003eda:	f7fc f9a1 	bl	8000220 <__aeabi_lmul>
 8003ede:	9a08      	ldr	r2, [sp, #32]
 8003ee0:	2300      	movs	r3, #0
 8003ee2:	1c14      	adds	r4, r2, #0
 8003ee4:	1c1d      	adds	r5, r3, #0
 8003ee6:	1824      	adds	r4, r4, r0
 8003ee8:	414d      	adcs	r5, r1
 8003eea:	9a02      	ldr	r2, [sp, #8]
 8003eec:	1c28      	adds	r0, r5, #0
 8003eee:	17e9      	asrs	r1, r5, #31
 8003ef0:	1812      	adds	r2, r2, r0
 8003ef2:	414b      	adcs	r3, r1
 8003ef4:	923d      	str	r2, [sp, #244]	; 0xf4
 8003ef6:	9a04      	ldr	r2, [sp, #16]
 8003ef8:	1c18      	adds	r0, r3, #0
 8003efa:	17d9      	asrs	r1, r3, #31
 8003efc:	2300      	movs	r3, #0
 8003efe:	1812      	adds	r2, r2, r0
 8003f00:	414b      	adcs	r3, r1
 8003f02:	923e      	str	r2, [sp, #248]	; 0xf8
 8003f04:	9a06      	ldr	r2, [sp, #24]
 8003f06:	1c18      	adds	r0, r3, #0
 8003f08:	17d9      	asrs	r1, r3, #31
 8003f0a:	2300      	movs	r3, #0
 8003f0c:	1812      	adds	r2, r2, r0
 8003f0e:	414b      	adcs	r3, r1
 8003f10:	923f      	str	r2, [sp, #252]	; 0xfc
 8003f12:	9a0a      	ldr	r2, [sp, #40]	; 0x28
 8003f14:	1c18      	adds	r0, r3, #0
 8003f16:	17d9      	asrs	r1, r3, #31
 8003f18:	2300      	movs	r3, #0
 8003f1a:	1812      	adds	r2, r2, r0
 8003f1c:	414b      	adcs	r3, r1
 8003f1e:	9240      	str	r2, [sp, #256]	; 0x100
 8003f20:	9a0c      	ldr	r2, [sp, #48]	; 0x30
 8003f22:	1c18      	adds	r0, r3, #0
 8003f24:	17d9      	asrs	r1, r3, #31
 8003f26:	2300      	movs	r3, #0
 8003f28:	1812      	adds	r2, r2, r0
 8003f2a:	414b      	adcs	r3, r1
 8003f2c:	9241      	str	r2, [sp, #260]	; 0x104
 8003f2e:	9a0e      	ldr	r2, [sp, #56]	; 0x38
 8003f30:	1c18      	adds	r0, r3, #0
 8003f32:	17d9      	asrs	r1, r3, #31
 8003f34:	2300      	movs	r3, #0
 8003f36:	1880      	adds	r0, r0, r2
 8003f38:	4159      	adcs	r1, r3
 8003f3a:	9042      	str	r0, [sp, #264]	; 0x108
 8003f3c:	1c0a      	adds	r2, r1, #0
 8003f3e:	1c30      	adds	r0, r6, #0
 8003f40:	17cb      	asrs	r3, r1, #31
 8003f42:	2100      	movs	r1, #0
 8003f44:	1812      	adds	r2, r2, r0
 8003f46:	414b      	adcs	r3, r1
 8003f48:	4657      	mov	r7, sl
 8003f4a:	437b      	muls	r3, r7
 8003f4c:	981d      	ldr	r0, [sp, #116]	; 0x74
 8003f4e:	9243      	str	r2, [sp, #268]	; 0x10c
 8003f50:	191c      	adds	r4, r3, r4
 8003f52:	9a10      	ldr	r2, [sp, #64]	; 0x40
 8003f54:	943c      	str	r4, [sp, #240]	; 0xf0
 8003f56:	2300      	movs	r3, #0
 8003f58:	1c04      	adds	r4, r0, #0
 8003f5a:	1c0d      	adds	r5, r1, #0
 8003f5c:	1aa4      	subs	r4, r4, r2
 8003f5e:	419d      	sbcs	r5, r3
 8003f60:	9408      	str	r4, [sp, #32]
 8003f62:	9509      	str	r5, [sp, #36]	; 0x24
 8003f64:	9a09      	ldr	r2, [sp, #36]	; 0x24
 8003f66:	9812      	ldr	r0, [sp, #72]	; 0x48
 8003f68:	9c1e      	ldr	r4, [sp, #120]	; 0x78
 8003f6a:	17eb      	asrs	r3, r5, #31
 8003f6c:	2500      	movs	r5, #0
 8003f6e:	1a24      	subs	r4, r4, r0
 8003f70:	418d      	sbcs	r5, r1
 8003f72:	1c16      	adds	r6, r2, #0
 8003f74:	1c1f      	adds	r7, r3, #0
 8003f76:	1936      	adds	r6, r6, r4
 8003f78:	416f      	adcs	r7, r5
 8003f7a:	9814      	ldr	r0, [sp, #80]	; 0x50
 8003f7c:	17fb      	asrs	r3, r7, #31
 8003f7e:	4644      	mov	r4, r8
 8003f80:	2500      	movs	r5, #0
 8003f82:	1a24      	subs	r4, r4, r0
 8003f84:	418d      	sbcs	r5, r1
 8003f86:	1c38      	adds	r0, r7, #0
 8003f88:	1c19      	adds	r1, r3, #0
 8003f8a:	1900      	adds	r0, r0, r4
 8003f8c:	4169      	adcs	r1, r5
 8003f8e:	9002      	str	r0, [sp, #8]
 8003f90:	9103      	str	r1, [sp, #12]
 8003f92:	9a03      	ldr	r2, [sp, #12]
 8003f94:	9816      	ldr	r0, [sp, #88]	; 0x58
 8003f96:	9c1f      	ldr	r4, [sp, #124]	; 0x7c
 8003f98:	17cb      	asrs	r3, r1, #31
 8003f9a:	2500      	movs	r5, #0
 8003f9c:	2100      	movs	r1, #0
 8003f9e:	1a24      	subs	r4, r4, r0
 8003fa0:	418d      	sbcs	r5, r1
 8003fa2:	1c10      	adds	r0, r2, #0
 8003fa4:	1c19      	adds	r1, r3, #0
 8003fa6:	1900      	adds	r0, r0, r4
 8003fa8:	4169      	adcs	r1, r5
 8003faa:	9004      	str	r0, [sp, #16]
 8003fac:	9105      	str	r1, [sp, #20]
 8003fae:	9a05      	ldr	r2, [sp, #20]
 8003fb0:	9819      	ldr	r0, [sp, #100]	; 0x64
 8003fb2:	9c20      	ldr	r4, [sp, #128]	; 0x80
 8003fb4:	17cb      	asrs	r3, r1, #31
 8003fb6:	2500      	movs	r5, #0
 8003fb8:	2100      	movs	r1, #0
 8003fba:	1a24      	subs	r4, r4, r0
 8003fbc:	418d      	sbcs	r5, r1
 8003fbe:	1c10      	adds	r0, r2, #0
 8003fc0:	1c19      	adds	r1, r3, #0
 8003fc2:	1900      	adds	r0, r0, r4
 8003fc4:	4169      	adcs	r1, r5
 8003fc6:	9006      	str	r0, [sp, #24]
 8003fc8:	9107      	str	r1, [sp, #28]
 8003fca:	9a07      	ldr	r2, [sp, #28]
 8003fcc:	9c1a      	ldr	r4, [sp, #104]	; 0x68
 8003fce:	9821      	ldr	r0, [sp, #132]	; 0x84
 8003fd0:	17cb      	asrs	r3, r1, #31
 8003fd2:	2500      	movs	r5, #0
 8003fd4:	2100      	movs	r1, #0
 8003fd6:	1b00      	subs	r0, r0, r4
 8003fd8:	41a9      	sbcs	r1, r5
 8003fda:	1c14      	adds	r4, r2, #0
 8003fdc:	1c1d      	adds	r5, r3, #0
 8003fde:	1824      	adds	r4, r4, r0
 8003fe0:	414d      	adcs	r5, r1
 8003fe2:	940e      	str	r4, [sp, #56]	; 0x38
 8003fe4:	950f      	str	r5, [sp, #60]	; 0x3c
 8003fe6:	9a0f      	ldr	r2, [sp, #60]	; 0x3c
 8003fe8:	981b      	ldr	r0, [sp, #108]	; 0x6c
 8003fea:	9c22      	ldr	r4, [sp, #136]	; 0x88
 8003fec:	17eb      	asrs	r3, r5, #31
 8003fee:	2100      	movs	r1, #0
 8003ff0:	2500      	movs	r5, #0
 8003ff2:	1a24      	subs	r4, r4, r0
 8003ff4:	418d      	sbcs	r5, r1
 8003ff6:	1c10      	adds	r0, r2, #0
 8003ff8:	1c19      	adds	r1, r3, #0
 8003ffa:	1900      	adds	r0, r0, r4
 8003ffc:	4169      	adcs	r1, r5
 8003ffe:	9010      	str	r0, [sp, #64]	; 0x40
 8004000:	9111      	str	r1, [sp, #68]	; 0x44
 8004002:	9c23      	ldr	r4, [sp, #140]	; 0x8c
 8004004:	981c      	ldr	r0, [sp, #112]	; 0x70
 8004006:	17cb      	asrs	r3, r1, #31
 8004008:	2500      	movs	r5, #0
 800400a:	2100      	movs	r1, #0
 800400c:	1a24      	subs	r4, r4, r0
 800400e:	418d      	sbcs	r5, r1
 8004010:	9a11      	ldr	r2, [sp, #68]	; 0x44
 8004012:	1c20      	adds	r0, r4, #0
 8004014:	1c29      	adds	r1, r5, #0
 8004016:	1880      	adds	r0, r0, r2
 8004018:	4159      	adcs	r1, r3
 800401a:	900a      	str	r0, [sp, #40]	; 0x28
 800401c:	910b      	str	r1, [sp, #44]	; 0x2c
 800401e:	9a0b      	ldr	r2, [sp, #44]	; 0x2c
 8004020:	17d1      	asrs	r1, r2, #31
 8004022:	1c10      	adds	r0, r2, #0
 8004024:	2226      	movs	r2, #38	; 0x26
 8004026:	2300      	movs	r3, #0
 8004028:	f7fc f8fa 	bl	8000220 <__aeabi_lmul>
 800402c:	9a08      	ldr	r2, [sp, #32]
 800402e:	2300      	movs	r3, #0
 8004030:	1c14      	adds	r4, r2, #0
 8004032:	1c1d      	adds	r5, r3, #0
 8004034:	1824      	adds	r4, r4, r0
 8004036:	414d      	adcs	r5, r1
 8004038:	940c      	str	r4, [sp, #48]	; 0x30
 800403a:	950d      	str	r5, [sp, #52]	; 0x34
 800403c:	980d      	ldr	r0, [sp, #52]	; 0x34
 800403e:	17e9      	asrs	r1, r5, #31
 8004040:	1c32      	adds	r2, r6, #0
 8004042:	1812      	adds	r2, r2, r0
 8004044:	414b      	adcs	r3, r1
 8004046:	9802      	ldr	r0, [sp, #8]
 8004048:	1c1e      	adds	r6, r3, #0
 800404a:	17df      	asrs	r7, r3, #31
 800404c:	2100      	movs	r1, #0
 800404e:	1836      	adds	r6, r6, r0
 8004050:	414f      	adcs	r7, r1
 8004052:	17f9      	asrs	r1, r7, #31
 8004054:	9804      	ldr	r0, [sp, #16]
 8004056:	9103      	str	r1, [sp, #12]
 8004058:	9702      	str	r7, [sp, #8]
 800405a:	2100      	movs	r1, #0
 800405c:	9c02      	ldr	r4, [sp, #8]
 800405e:	9d03      	ldr	r5, [sp, #12]
 8004060:	1824      	adds	r4, r4, r0
 8004062:	414d      	adcs	r5, r1
 8004064:	9408      	str	r4, [sp, #32]
 8004066:	9509      	str	r5, [sp, #36]	; 0x24
 8004068:	9909      	ldr	r1, [sp, #36]	; 0x24
 800406a:	9806      	ldr	r0, [sp, #24]
 800406c:	17c9      	asrs	r1, r1, #31
 800406e:	9103      	str	r1, [sp, #12]
 8004070:	9502      	str	r5, [sp, #8]
 8004072:	2100      	movs	r1, #0
 8004074:	944f      	str	r4, [sp, #316]	; 0x13c
 8004076:	9c02      	ldr	r4, [sp, #8]
 8004078:	9d03      	ldr	r5, [sp, #12]
 800407a:	1824      	adds	r4, r4, r0
 800407c:	414d      	adcs	r5, r1
 800407e:	9402      	str	r4, [sp, #8]
 8004080:	9503      	str	r5, [sp, #12]
 8004082:	9903      	ldr	r1, [sp, #12]
 8004084:	980e      	ldr	r0, [sp, #56]	; 0x38
 8004086:	17c9      	asrs	r1, r1, #31
 8004088:	9105      	str	r1, [sp, #20]
 800408a:	9504      	str	r5, [sp, #16]
 800408c:	2100      	movs	r1, #0
 800408e:	9450      	str	r4, [sp, #320]	; 0x140
 8004090:	9c04      	ldr	r4, [sp, #16]
 8004092:	9d05      	ldr	r5, [sp, #20]
 8004094:	1824      	adds	r4, r4, r0
 8004096:	414d      	adcs	r5, r1
 8004098:	924d      	str	r2, [sp, #308]	; 0x134
 800409a:	964e      	str	r6, [sp, #312]	; 0x138
 800409c:	9404      	str	r4, [sp, #16]
 800409e:	9505      	str	r5, [sp, #20]
 80040a0:	9905      	ldr	r1, [sp, #20]
 80040a2:	9810      	ldr	r0, [sp, #64]	; 0x40
 80040a4:	17c9      	asrs	r1, r1, #31
 80040a6:	9107      	str	r1, [sp, #28]
 80040a8:	9506      	str	r5, [sp, #24]
 80040aa:	2100      	movs	r1, #0
 80040ac:	9451      	str	r4, [sp, #324]	; 0x144
 80040ae:	9c06      	ldr	r4, [sp, #24]
 80040b0:	9d07      	ldr	r5, [sp, #28]
 80040b2:	1824      	adds	r4, r4, r0
 80040b4:	414d      	adcs	r5, r1
 80040b6:	9406      	str	r4, [sp, #24]
 80040b8:	9507      	str	r5, [sp, #28]
 80040ba:	17e9      	asrs	r1, r5, #31
 80040bc:	9d0a      	ldr	r5, [sp, #40]	; 0x28
 80040be:	9807      	ldr	r0, [sp, #28]
 80040c0:	9452      	str	r4, [sp, #328]	; 0x148
 80040c2:	2400      	movs	r4, #0
 80040c4:	940f      	str	r4, [sp, #60]	; 0x3c
 80040c6:	950e      	str	r5, [sp, #56]	; 0x38
 80040c8:	9c0e      	ldr	r4, [sp, #56]	; 0x38
 80040ca:	9d0f      	ldr	r5, [sp, #60]	; 0x3c
 80040cc:	4653      	mov	r3, sl
 80040ce:	1824      	adds	r4, r4, r0
 80040d0:	414d      	adcs	r5, r1
 80040d2:	436b      	muls	r3, r5
 80040d4:	940a      	str	r4, [sp, #40]	; 0x28
 80040d6:	950b      	str	r5, [sp, #44]	; 0x2c
 80040d8:	9d0c      	ldr	r5, [sp, #48]	; 0x30
 80040da:	9834      	ldr	r0, [sp, #208]	; 0xd0
 80040dc:	195b      	adds	r3, r3, r5
 80040de:	2100      	movs	r1, #0
 80040e0:	910d      	str	r1, [sp, #52]	; 0x34
 80040e2:	930c      	str	r3, [sp, #48]	; 0x30
 80040e4:	9453      	str	r4, [sp, #332]	; 0x14c
 80040e6:	9c0c      	ldr	r4, [sp, #48]	; 0x30
 80040e8:	9d0d      	ldr	r5, [sp, #52]	; 0x34
 80040ea:	1a24      	subs	r4, r4, r0
 80040ec:	418d      	sbcs	r5, r1
 80040ee:	940c      	str	r4, [sp, #48]	; 0x30
 80040f0:	950d      	str	r5, [sp, #52]	; 0x34
 80040f2:	980d      	ldr	r0, [sp, #52]	; 0x34
 80040f4:	1c14      	adds	r4, r2, #0
 80040f6:	9a35      	ldr	r2, [sp, #212]	; 0xd4
 80040f8:	934c      	str	r3, [sp, #304]	; 0x130
 80040fa:	17e9      	asrs	r1, r5, #31
 80040fc:	2300      	movs	r3, #0
 80040fe:	2500      	movs	r5, #0
 8004100:	1aa4      	subs	r4, r4, r2
 8004102:	419d      	sbcs	r5, r3
 8004104:	1c02      	adds	r2, r0, #0
 8004106:	1c0b      	adds	r3, r1, #0
 8004108:	1912      	adds	r2, r2, r4
 800410a:	416b      	adcs	r3, r5
 800410c:	920e      	str	r2, [sp, #56]	; 0x38
 800410e:	930f      	str	r3, [sp, #60]	; 0x3c
 8004110:	9a0f      	ldr	r2, [sp, #60]	; 0x3c
 8004112:	9c36      	ldr	r4, [sp, #216]	; 0xd8
 8004114:	17d3      	asrs	r3, r2, #31
 8004116:	1c30      	adds	r0, r6, #0
 8004118:	2500      	movs	r5, #0
 800411a:	2100      	movs	r1, #0
 800411c:	1b00      	subs	r0, r0, r4
 800411e:	41a9      	sbcs	r1, r5
 8004120:	1c1e      	adds	r6, r3, #0
 8004122:	1c15      	adds	r5, r2, #0
 8004124:	182d      	adds	r5, r5, r0
 8004126:	414e      	adcs	r6, r1
 8004128:	9510      	str	r5, [sp, #64]	; 0x40
 800412a:	9611      	str	r6, [sp, #68]	; 0x44
 800412c:	9a11      	ldr	r2, [sp, #68]	; 0x44
 800412e:	9c37      	ldr	r4, [sp, #220]	; 0xdc
 8004130:	9808      	ldr	r0, [sp, #32]
 8004132:	17f3      	asrs	r3, r6, #31
 8004134:	2500      	movs	r5, #0
 8004136:	2100      	movs	r1, #0
 8004138:	1b00      	subs	r0, r0, r4
 800413a:	41a9      	sbcs	r1, r5
 800413c:	1c16      	adds	r6, r2, #0
 800413e:	1c1f      	adds	r7, r3, #0
 8004140:	1836      	adds	r6, r6, r0
 8004142:	414f      	adcs	r7, r1
 8004144:	9612      	str	r6, [sp, #72]	; 0x48
 8004146:	9713      	str	r7, [sp, #76]	; 0x4c
 8004148:	9a13      	ldr	r2, [sp, #76]	; 0x4c
 800414a:	9c38      	ldr	r4, [sp, #224]	; 0xe0
 800414c:	9802      	ldr	r0, [sp, #8]
 800414e:	17fb      	asrs	r3, r7, #31
 8004150:	2100      	movs	r1, #0
 8004152:	1b00      	subs	r0, r0, r4
 8004154:	41a9      	sbcs	r1, r5
 8004156:	1c14      	adds	r4, r2, #0
 8004158:	1c1d      	adds	r5, r3, #0
 800415a:	1824      	adds	r4, r4, r0
 800415c:	414d      	adcs	r5, r1
 800415e:	9402      	str	r4, [sp, #8]
 8004160:	9503      	str	r5, [sp, #12]
 8004162:	9a03      	ldr	r2, [sp, #12]
 8004164:	9804      	ldr	r0, [sp, #16]
 8004166:	9c39      	ldr	r4, [sp, #228]	; 0xe4
 8004168:	17eb      	asrs	r3, r5, #31
 800416a:	2100      	movs	r1, #0
 800416c:	2500      	movs	r5, #0
 800416e:	1b00      	subs	r0, r0, r4
 8004170:	41a9      	sbcs	r1, r5
 8004172:	1c1e      	adds	r6, r3, #0
 8004174:	1c15      	adds	r5, r2, #0
 8004176:	182d      	adds	r5, r5, r0
 8004178:	414e      	adcs	r6, r1
 800417a:	9504      	str	r5, [sp, #16]
 800417c:	9605      	str	r6, [sp, #20]
 800417e:	9a05      	ldr	r2, [sp, #20]
 8004180:	9c06      	ldr	r4, [sp, #24]
 8004182:	983a      	ldr	r0, [sp, #232]	; 0xe8
 8004184:	17f3      	asrs	r3, r6, #31
 8004186:	2100      	movs	r1, #0
 8004188:	2500      	movs	r5, #0
 800418a:	1a24      	subs	r4, r4, r0
 800418c:	418d      	sbcs	r5, r1
 800418e:	1c16      	adds	r6, r2, #0
 8004190:	1c1f      	adds	r7, r3, #0
 8004192:	1936      	adds	r6, r6, r4
 8004194:	416f      	adcs	r7, r5
 8004196:	983b      	ldr	r0, [sp, #236]	; 0xec
 8004198:	9c0a      	ldr	r4, [sp, #40]	; 0x28
 800419a:	9606      	str	r6, [sp, #24]
 800419c:	9707      	str	r7, [sp, #28]
 800419e:	2500      	movs	r5, #0
 80041a0:	1a24      	subs	r4, r4, r0
 80041a2:	418d      	sbcs	r5, r1
 80041a4:	9a07      	ldr	r2, [sp, #28]
 80041a6:	17fb      	asrs	r3, r7, #31
 80041a8:	1c26      	adds	r6, r4, #0
 80041aa:	1c2f      	adds	r7, r5, #0
 80041ac:	18b6      	adds	r6, r6, r2
 80041ae:	415f      	adcs	r7, r3
 80041b0:	9608      	str	r6, [sp, #32]
 80041b2:	9709      	str	r7, [sp, #36]	; 0x24
 80041b4:	9809      	ldr	r0, [sp, #36]	; 0x24
 80041b6:	2226      	movs	r2, #38	; 0x26
 80041b8:	2300      	movs	r3, #0
 80041ba:	17f9      	asrs	r1, r7, #31
 80041bc:	f7fc f830 	bl	8000220 <__aeabi_lmul>
 80041c0:	9a0c      	ldr	r2, [sp, #48]	; 0x30
 80041c2:	2300      	movs	r3, #0
 80041c4:	1880      	adds	r0, r0, r2
 80041c6:	4159      	adcs	r1, r3
 80041c8:	9c0e      	ldr	r4, [sp, #56]	; 0x38
 80041ca:	1c0e      	adds	r6, r1, #0
 80041cc:	17cf      	asrs	r7, r1, #31
 80041ce:	2500      	movs	r5, #0
 80041d0:	19a4      	adds	r4, r4, r6
 80041d2:	417d      	adcs	r5, r7
 80041d4:	464f      	mov	r7, r9
 80041d6:	607c      	str	r4, [r7, #4]
 80041d8:	9c10      	ldr	r4, [sp, #64]	; 0x40
 80041da:	1c2e      	adds	r6, r5, #0
 80041dc:	17ef      	asrs	r7, r5, #31
 80041de:	2500      	movs	r5, #0
 80041e0:	464a      	mov	r2, r9
 80041e2:	19a4      	adds	r4, r4, r6
 80041e4:	417d      	adcs	r5, r7
 80041e6:	6094      	str	r4, [r2, #8]
 80041e8:	9c12      	ldr	r4, [sp, #72]	; 0x48
 80041ea:	1c2e      	adds	r6, r5, #0
 80041ec:	17ef      	asrs	r7, r5, #31
 80041ee:	2500      	movs	r5, #0
 80041f0:	19a4      	adds	r4, r4, r6
 80041f2:	417d      	adcs	r5, r7
 80041f4:	60d4      	str	r4, [r2, #12]
 80041f6:	9c02      	ldr	r4, [sp, #8]
 80041f8:	1c2e      	adds	r6, r5, #0
 80041fa:	17ef      	asrs	r7, r5, #31
 80041fc:	2500      	movs	r5, #0
 80041fe:	19a4      	adds	r4, r4, r6
 8004200:	417d      	adcs	r5, r7
 8004202:	6114      	str	r4, [r2, #16]
 8004204:	9c04      	ldr	r4, [sp, #16]
 8004206:	1c2e      	adds	r6, r5, #0
 8004208:	17ef      	asrs	r7, r5, #31
 800420a:	2500      	movs	r5, #0
 800420c:	19a4      	adds	r4, r4, r6
 800420e:	417d      	adcs	r5, r7
 8004210:	6154      	str	r4, [r2, #20]
 8004212:	9c06      	ldr	r4, [sp, #24]
 8004214:	1c2e      	adds	r6, r5, #0
 8004216:	17ef      	asrs	r7, r5, #31
 8004218:	2500      	movs	r5, #0
 800421a:	1936      	adds	r6, r6, r4
 800421c:	416f      	adcs	r7, r5
 800421e:	6196      	str	r6, [r2, #24]
 8004220:	9e08      	ldr	r6, [sp, #32]
 8004222:	1c3c      	adds	r4, r7, #0
 8004224:	17fd      	asrs	r5, r7, #31
 8004226:	2700      	movs	r7, #0
 8004228:	19a4      	adds	r4, r4, r6
 800422a:	417d      	adcs	r5, r7
 800422c:	4653      	mov	r3, sl
 800422e:	436b      	muls	r3, r5
 8004230:	1818      	adds	r0, r3, r0
 8004232:	61d4      	str	r4, [r2, #28]
 8004234:	9044      	str	r0, [sp, #272]	; 0x110
 8004236:	a92c      	add	r1, sp, #176	; 0xb0
 8004238:	a85c      	add	r0, sp, #368	; 0x170
 800423a:	2220      	movs	r2, #32
 800423c:	f002 fd34 	bl	8006ca8 <memcpy>
 8004240:	985c      	ldr	r0, [sp, #368]	; 0x170
 8004242:	2100      	movs	r1, #0
 8004244:	2500      	movs	r5, #0
 8004246:	4244      	negs	r4, r0
 8004248:	418d      	sbcs	r5, r1
 800424a:	17ef      	asrs	r7, r5, #31
 800424c:	985d      	ldr	r0, [sp, #372]	; 0x174
 800424e:	1c2a      	adds	r2, r5, #0
 8004250:	1c3b      	adds	r3, r7, #0
 8004252:	1a12      	subs	r2, r2, r0
 8004254:	418b      	sbcs	r3, r1
 8004256:	9202      	str	r2, [sp, #8]
 8004258:	9303      	str	r3, [sp, #12]
 800425a:	9e03      	ldr	r6, [sp, #12]
 800425c:	985e      	ldr	r0, [sp, #376]	; 0x178
 800425e:	17df      	asrs	r7, r3, #31
 8004260:	1c32      	adds	r2, r6, #0
 8004262:	1c3b      	adds	r3, r7, #0
 8004264:	1a12      	subs	r2, r2, r0
 8004266:	418b      	sbcs	r3, r1
 8004268:	9204      	str	r2, [sp, #16]
 800426a:	9305      	str	r3, [sp, #20]
 800426c:	9e05      	ldr	r6, [sp, #20]
 800426e:	985f      	ldr	r0, [sp, #380]	; 0x17c
 8004270:	17df      	asrs	r7, r3, #31
 8004272:	1c32      	adds	r2, r6, #0
 8004274:	1c3b      	adds	r3, r7, #0
 8004276:	1a12      	subs	r2, r2, r0
 8004278:	418b      	sbcs	r3, r1
 800427a:	9206      	str	r2, [sp, #24]
 800427c:	9307      	str	r3, [sp, #28]
 800427e:	9e07      	ldr	r6, [sp, #28]
 8004280:	9860      	ldr	r0, [sp, #384]	; 0x180
 8004282:	17df      	asrs	r7, r3, #31
 8004284:	1c32      	adds	r2, r6, #0
 8004286:	1c3b      	adds	r3, r7, #0
 8004288:	1a12      	subs	r2, r2, r0
 800428a:	418b      	sbcs	r3, r1
 800428c:	920a      	str	r2, [sp, #40]	; 0x28
 800428e:	930b      	str	r3, [sp, #44]	; 0x2c
 8004290:	9e0b      	ldr	r6, [sp, #44]	; 0x2c
 8004292:	9861      	ldr	r0, [sp, #388]	; 0x184
 8004294:	17df      	asrs	r7, r3, #31
 8004296:	1c32      	adds	r2, r6, #0
 8004298:	1c3b      	adds	r3, r7, #0
 800429a:	1a12      	subs	r2, r2, r0
 800429c:	418b      	sbcs	r3, r1
 800429e:	920c      	str	r2, [sp, #48]	; 0x30
 80042a0:	930d      	str	r3, [sp, #52]	; 0x34
 80042a2:	9e0d      	ldr	r6, [sp, #52]	; 0x34
 80042a4:	9862      	ldr	r0, [sp, #392]	; 0x188
 80042a6:	17df      	asrs	r7, r3, #31
 80042a8:	1c32      	adds	r2, r6, #0
 80042aa:	1c3b      	adds	r3, r7, #0
 80042ac:	1a12      	subs	r2, r2, r0
 80042ae:	418b      	sbcs	r3, r1
 80042b0:	920e      	str	r2, [sp, #56]	; 0x38
 80042b2:	930f      	str	r3, [sp, #60]	; 0x3c
 80042b4:	9e0f      	ldr	r6, [sp, #60]	; 0x3c
 80042b6:	9863      	ldr	r0, [sp, #396]	; 0x18c
 80042b8:	17df      	asrs	r7, r3, #31
 80042ba:	1c32      	adds	r2, r6, #0
 80042bc:	1c3b      	adds	r3, r7, #0
 80042be:	1a12      	subs	r2, r2, r0
 80042c0:	418b      	sbcs	r3, r1
 80042c2:	9208      	str	r2, [sp, #32]
 80042c4:	9309      	str	r3, [sp, #36]	; 0x24
 80042c6:	9809      	ldr	r0, [sp, #36]	; 0x24
 80042c8:	17d9      	asrs	r1, r3, #31
 80042ca:	2226      	movs	r2, #38	; 0x26
 80042cc:	2300      	movs	r3, #0
 80042ce:	f7fb ffa7 	bl	8000220 <__aeabi_lmul>
 80042d2:	1c26      	adds	r6, r4, #0
 80042d4:	2700      	movs	r7, #0
 80042d6:	9c02      	ldr	r4, [sp, #8]
 80042d8:	1836      	adds	r6, r6, r0
 80042da:	414f      	adcs	r7, r1
 80042dc:	2500      	movs	r5, #0
 80042de:	1c38      	adds	r0, r7, #0
 80042e0:	17f9      	asrs	r1, r7, #31
 80042e2:	1c22      	adds	r2, r4, #0
 80042e4:	1c2b      	adds	r3, r5, #0
 80042e6:	1812      	adds	r2, r2, r0
 80042e8:	414b      	adcs	r3, r1
 80042ea:	17dd      	asrs	r5, r3, #31
 80042ec:	9804      	ldr	r0, [sp, #16]
 80042ee:	9302      	str	r3, [sp, #8]
 80042f0:	9503      	str	r5, [sp, #12]
 80042f2:	2100      	movs	r1, #0
 80042f4:	9c02      	ldr	r4, [sp, #8]
 80042f6:	9d03      	ldr	r5, [sp, #12]
 80042f8:	1824      	adds	r4, r4, r0
 80042fa:	414d      	adcs	r5, r1
 80042fc:	9400      	str	r4, [sp, #0]
 80042fe:	9501      	str	r5, [sp, #4]
 8004300:	17e9      	asrs	r1, r5, #31
 8004302:	9d06      	ldr	r5, [sp, #24]
 8004304:	9801      	ldr	r0, [sp, #4]
 8004306:	2400      	movs	r4, #0
 8004308:	9403      	str	r4, [sp, #12]
 800430a:	9502      	str	r5, [sp, #8]
 800430c:	9c02      	ldr	r4, [sp, #8]
 800430e:	9d03      	ldr	r5, [sp, #12]
 8004310:	1824      	adds	r4, r4, r0
 8004312:	414d      	adcs	r5, r1
 8004314:	9402      	str	r4, [sp, #8]
 8004316:	9503      	str	r5, [sp, #12]
 8004318:	9903      	ldr	r1, [sp, #12]
 800431a:	980a      	ldr	r0, [sp, #40]	; 0x28
 800431c:	17c9      	asrs	r1, r1, #31
 800431e:	9105      	str	r1, [sp, #20]
 8004320:	9504      	str	r5, [sp, #16]
 8004322:	2100      	movs	r1, #0
 8004324:	9c04      	ldr	r4, [sp, #16]
 8004326:	9d05      	ldr	r5, [sp, #20]
 8004328:	1824      	adds	r4, r4, r0
 800432a:	414d      	adcs	r5, r1
 800432c:	9404      	str	r4, [sp, #16]
 800432e:	9505      	str	r5, [sp, #20]
 8004330:	9905      	ldr	r1, [sp, #20]
 8004332:	980c      	ldr	r0, [sp, #48]	; 0x30
 8004334:	17c9      	asrs	r1, r1, #31
 8004336:	9107      	str	r1, [sp, #28]
 8004338:	9506      	str	r5, [sp, #24]
 800433a:	2100      	movs	r1, #0
 800433c:	9c06      	ldr	r4, [sp, #24]
 800433e:	9d07      	ldr	r5, [sp, #28]
 8004340:	1824      	adds	r4, r4, r0
 8004342:	414d      	adcs	r5, r1
 8004344:	9412      	str	r4, [sp, #72]	; 0x48
 8004346:	9513      	str	r5, [sp, #76]	; 0x4c
 8004348:	9913      	ldr	r1, [sp, #76]	; 0x4c
 800434a:	980e      	ldr	r0, [sp, #56]	; 0x38
 800434c:	17c9      	asrs	r1, r1, #31
 800434e:	9107      	str	r1, [sp, #28]
 8004350:	9506      	str	r5, [sp, #24]
 8004352:	2100      	movs	r1, #0
 8004354:	9c06      	ldr	r4, [sp, #24]
 8004356:	9d07      	ldr	r5, [sp, #28]
 8004358:	1824      	adds	r4, r4, r0
 800435a:	414d      	adcs	r5, r1
 800435c:	9414      	str	r4, [sp, #80]	; 0x50
 800435e:	9515      	str	r5, [sp, #84]	; 0x54
 8004360:	17e9      	asrs	r1, r5, #31
 8004362:	9d08      	ldr	r5, [sp, #32]
 8004364:	9815      	ldr	r0, [sp, #84]	; 0x54
 8004366:	2400      	movs	r4, #0
 8004368:	9506      	str	r5, [sp, #24]
 800436a:	9407      	str	r4, [sp, #28]
 800436c:	9c06      	ldr	r4, [sp, #24]
 800436e:	9d07      	ldr	r5, [sp, #28]
 8004370:	1824      	adds	r4, r4, r0
 8004372:	414d      	adcs	r5, r1
 8004374:	9416      	str	r4, [sp, #88]	; 0x58
 8004376:	9517      	str	r5, [sp, #92]	; 0x5c
 8004378:	4654      	mov	r4, sl
 800437a:	436c      	muls	r4, r5
 800437c:	2100      	movs	r1, #0
 800437e:	19a0      	adds	r0, r4, r6
 8004380:	9c24      	ldr	r4, [sp, #144]	; 0x90
 8004382:	2500      	movs	r5, #0
 8004384:	1c06      	adds	r6, r0, #0
 8004386:	1c0f      	adds	r7, r1, #0
 8004388:	1b36      	subs	r6, r6, r4
 800438a:	41af      	sbcs	r7, r5
 800438c:	1c14      	adds	r4, r2, #0
 800438e:	465a      	mov	r2, fp
 8004390:	9610      	str	r6, [sp, #64]	; 0x40
 8004392:	9711      	str	r7, [sp, #68]	; 0x44
 8004394:	6856      	ldr	r6, [r2, #4]
 8004396:	17f9      	asrs	r1, r7, #31
 8004398:	2700      	movs	r7, #0
 800439a:	1ba4      	subs	r4, r4, r6
 800439c:	41bd      	sbcs	r5, r7
 800439e:	9811      	ldr	r0, [sp, #68]	; 0x44
 80043a0:	1c26      	adds	r6, r4, #0
 80043a2:	1c2f      	adds	r7, r5, #0
 80043a4:	1836      	adds	r6, r6, r0
 80043a6:	414f      	adcs	r7, r1
 80043a8:	960e      	str	r6, [sp, #56]	; 0x38
 80043aa:	970f      	str	r7, [sp, #60]	; 0x3c
 80043ac:	9c00      	ldr	r4, [sp, #0]
 80043ae:	6896      	ldr	r6, [r2, #8]
 80043b0:	17f9      	asrs	r1, r7, #31
 80043b2:	2500      	movs	r5, #0
 80043b4:	2700      	movs	r7, #0
 80043b6:	1ba4      	subs	r4, r4, r6
 80043b8:	41bd      	sbcs	r5, r7
 80043ba:	980f      	ldr	r0, [sp, #60]	; 0x3c
 80043bc:	1c26      	adds	r6, r4, #0
 80043be:	1c2f      	adds	r7, r5, #0
 80043c0:	1836      	adds	r6, r6, r0
 80043c2:	414f      	adcs	r7, r1
 80043c4:	960c      	str	r6, [sp, #48]	; 0x30
 80043c6:	970d      	str	r7, [sp, #52]	; 0x34
 80043c8:	68d4      	ldr	r4, [r2, #12]
 80043ca:	9e02      	ldr	r6, [sp, #8]
 80043cc:	17f9      	asrs	r1, r7, #31
 80043ce:	2500      	movs	r5, #0
 80043d0:	2700      	movs	r7, #0
 80043d2:	1b36      	subs	r6, r6, r4
 80043d4:	41af      	sbcs	r7, r5
 80043d6:	980d      	ldr	r0, [sp, #52]	; 0x34
 80043d8:	1c34      	adds	r4, r6, #0
 80043da:	1c3d      	adds	r5, r7, #0
 80043dc:	1824      	adds	r4, r4, r0
 80043de:	414d      	adcs	r5, r1
 80043e0:	940a      	str	r4, [sp, #40]	; 0x28
 80043e2:	950b      	str	r5, [sp, #44]	; 0x2c
 80043e4:	9e04      	ldr	r6, [sp, #16]
 80043e6:	6914      	ldr	r4, [r2, #16]
 80043e8:	17e9      	asrs	r1, r5, #31
 80043ea:	2700      	movs	r7, #0
 80043ec:	2500      	movs	r5, #0
 80043ee:	1b36      	subs	r6, r6, r4
 80043f0:	41af      	sbcs	r7, r5
 80043f2:	980b      	ldr	r0, [sp, #44]	; 0x2c
 80043f4:	1c34      	adds	r4, r6, #0
 80043f6:	1c3d      	adds	r5, r7, #0
 80043f8:	1824      	adds	r4, r4, r0
 80043fa:	414d      	adcs	r5, r1
 80043fc:	9406      	str	r4, [sp, #24]
 80043fe:	9507      	str	r5, [sp, #28]
 8004400:	6954      	ldr	r4, [r2, #20]
 8004402:	9e12      	ldr	r6, [sp, #72]	; 0x48
 8004404:	17e9      	asrs	r1, r5, #31
 8004406:	2700      	movs	r7, #0
 8004408:	2500      	movs	r5, #0
 800440a:	1b36      	subs	r6, r6, r4
 800440c:	41af      	sbcs	r7, r5
 800440e:	9807      	ldr	r0, [sp, #28]
 8004410:	1c34      	adds	r4, r6, #0
 8004412:	1c3d      	adds	r5, r7, #0
 8004414:	1824      	adds	r4, r4, r0
 8004416:	414d      	adcs	r5, r1
 8004418:	9402      	str	r4, [sp, #8]
 800441a:	9503      	str	r5, [sp, #12]
 800441c:	9e14      	ldr	r6, [sp, #80]	; 0x50
 800441e:	6994      	ldr	r4, [r2, #24]
 8004420:	17e9      	asrs	r1, r5, #31
 8004422:	2700      	movs	r7, #0
 8004424:	2500      	movs	r5, #0
 8004426:	1b36      	subs	r6, r6, r4
 8004428:	41af      	sbcs	r7, r5
 800442a:	9803      	ldr	r0, [sp, #12]
 800442c:	1c34      	adds	r4, r6, #0
 800442e:	1c3d      	adds	r5, r7, #0
 8004430:	1824      	adds	r4, r4, r0
 8004432:	414d      	adcs	r5, r1
 8004434:	9408      	str	r4, [sp, #32]
 8004436:	9509      	str	r5, [sp, #36]	; 0x24
 8004438:	9e09      	ldr	r6, [sp, #36]	; 0x24
 800443a:	69d0      	ldr	r0, [r2, #28]
 800443c:	9c16      	ldr	r4, [sp, #88]	; 0x58
 800443e:	17ef      	asrs	r7, r5, #31
 8004440:	2100      	movs	r1, #0
 8004442:	2500      	movs	r5, #0
 8004444:	1a24      	subs	r4, r4, r0
 8004446:	418d      	sbcs	r5, r1
 8004448:	1c30      	adds	r0, r6, #0
 800444a:	1c39      	adds	r1, r7, #0
 800444c:	1900      	adds	r0, r0, r4
 800444e:	4169      	adcs	r1, r5
 8004450:	9004      	str	r0, [sp, #16]
 8004452:	9105      	str	r1, [sp, #20]
 8004454:	9a05      	ldr	r2, [sp, #20]
 8004456:	2500      	movs	r5, #0
 8004458:	17d1      	asrs	r1, r2, #31
 800445a:	1c10      	adds	r0, r2, #0
 800445c:	2226      	movs	r2, #38	; 0x26
 800445e:	2300      	movs	r3, #0
 8004460:	f7fb fede 	bl	8000220 <__aeabi_lmul>
 8004464:	9c10      	ldr	r4, [sp, #64]	; 0x40
 8004466:	2326      	movs	r3, #38	; 0x26
 8004468:	1900      	adds	r0, r0, r4
 800446a:	4169      	adcs	r1, r5
 800446c:	9c0e      	ldr	r4, [sp, #56]	; 0x38
 800446e:	1c0e      	adds	r6, r1, #0
 8004470:	17cf      	asrs	r7, r1, #31
 8004472:	1936      	adds	r6, r6, r4
 8004474:	416f      	adcs	r7, r5
 8004476:	9655      	str	r6, [sp, #340]	; 0x154
 8004478:	9e0c      	ldr	r6, [sp, #48]	; 0x30
 800447a:	1c3c      	adds	r4, r7, #0
 800447c:	17fd      	asrs	r5, r7, #31
 800447e:	2700      	movs	r7, #0
 8004480:	1936      	adds	r6, r6, r4
 8004482:	416f      	adcs	r7, r5
 8004484:	9656      	str	r6, [sp, #344]	; 0x158
 8004486:	9e0a      	ldr	r6, [sp, #40]	; 0x28
 8004488:	1c3c      	adds	r4, r7, #0
 800448a:	17fd      	asrs	r5, r7, #31
 800448c:	2700      	movs	r7, #0
 800448e:	1936      	adds	r6, r6, r4
 8004490:	416f      	adcs	r7, r5
 8004492:	9657      	str	r6, [sp, #348]	; 0x15c
 8004494:	9e06      	ldr	r6, [sp, #24]
 8004496:	1c3c      	adds	r4, r7, #0
 8004498:	17fd      	asrs	r5, r7, #31
 800449a:	2700      	movs	r7, #0
 800449c:	1936      	adds	r6, r6, r4
 800449e:	416f      	adcs	r7, r5
 80044a0:	9658      	str	r6, [sp, #352]	; 0x160
 80044a2:	9e02      	ldr	r6, [sp, #8]
 80044a4:	1c3c      	adds	r4, r7, #0
 80044a6:	17fd      	asrs	r5, r7, #31
 80044a8:	2700      	movs	r7, #0
 80044aa:	1936      	adds	r6, r6, r4
 80044ac:	416f      	adcs	r7, r5
 80044ae:	9659      	str	r6, [sp, #356]	; 0x164
 80044b0:	9e08      	ldr	r6, [sp, #32]
 80044b2:	1c3c      	adds	r4, r7, #0
 80044b4:	17fd      	asrs	r5, r7, #31
 80044b6:	2700      	movs	r7, #0
 80044b8:	1936      	adds	r6, r6, r4
 80044ba:	416f      	adcs	r7, r5
 80044bc:	965a      	str	r6, [sp, #360]	; 0x168
 80044be:	9e04      	ldr	r6, [sp, #16]
 80044c0:	1c3c      	adds	r4, r7, #0
 80044c2:	17fd      	asrs	r5, r7, #31
 80044c4:	2700      	movs	r7, #0
 80044c6:	19a4      	adds	r4, r4, r6
 80044c8:	417d      	adcs	r5, r7
 80044ca:	436b      	muls	r3, r5
 80044cc:	1818      	adds	r0, r3, r0
 80044ce:	9054      	str	r0, [sp, #336]	; 0x150
 80044d0:	a93c      	add	r1, sp, #240	; 0xf0
 80044d2:	9818      	ldr	r0, [sp, #96]	; 0x60
 80044d4:	464a      	mov	r2, r9
 80044d6:	945b      	str	r4, [sp, #364]	; 0x16c
 80044d8:	f7ff f8c4 	bl	8003664 <fe25519_mul>
 80044dc:	9818      	ldr	r0, [sp, #96]	; 0x60
 80044de:	a94c      	add	r1, sp, #304	; 0x130
 80044e0:	aa54      	add	r2, sp, #336	; 0x150
 80044e2:	3020      	adds	r0, #32
 80044e4:	f7ff f8be 	bl	8003664 <fe25519_mul>
 80044e8:	9818      	ldr	r0, [sp, #96]	; 0x60
 80044ea:	a93c      	add	r1, sp, #240	; 0xf0
 80044ec:	aa54      	add	r2, sp, #336	; 0x150
 80044ee:	3060      	adds	r0, #96	; 0x60
 80044f0:	f7ff f8b8 	bl	8003664 <fe25519_mul>
 80044f4:	9818      	ldr	r0, [sp, #96]	; 0x60
 80044f6:	4649      	mov	r1, r9
 80044f8:	3040      	adds	r0, #64	; 0x40
 80044fa:	aa4c      	add	r2, sp, #304	; 0x130
 80044fc:	f7ff f8b2 	bl	8003664 <fe25519_mul>
 8004500:	b06d      	add	sp, #436	; 0x1b4
 8004502:	bc3c      	pop	{r2, r3, r4, r5}
 8004504:	4690      	mov	r8, r2
 8004506:	4699      	mov	r9, r3
 8004508:	46a2      	mov	sl, r4
 800450a:	46ab      	mov	fp, r5
 800450c:	bdf0      	pop	{r4, r5, r6, r7, pc}
 800450e:	46c0      	nop			; (mov r8, r8)

08004510 <ge25519_scalarmult_base>:
 8004510:	b5f0      	push	{r4, r5, r6, r7, lr}
 8004512:	465f      	mov	r7, fp
 8004514:	4656      	mov	r6, sl
 8004516:	464d      	mov	r5, r9
 8004518:	4644      	mov	r4, r8
 800451a:	b4f0      	push	{r4, r5, r6, r7}
 800451c:	4cf1      	ldr	r4, [pc, #964]	; (80048e4 <ge25519_scalarmult_base+0x3d4>)
 800451e:	1c06      	adds	r6, r0, #0
 8004520:	48f1      	ldr	r0, [pc, #964]	; (80048e8 <ge25519_scalarmult_base+0x3d8>)
 8004522:	44a5      	add	sp, r4
 8004524:	4468      	add	r0, sp
 8004526:	6001      	str	r1, [r0, #0]
 8004528:	2220      	movs	r2, #32
 800452a:	2100      	movs	r1, #0
 800452c:	1c30      	adds	r0, r6, #0
 800452e:	f002 fbd7 	bl	8006ce0 <memset>
 8004532:	2401      	movs	r4, #1
 8004534:	1c30      	adds	r0, r6, #0
 8004536:	6234      	str	r4, [r6, #32]
 8004538:	2100      	movs	r1, #0
 800453a:	221c      	movs	r2, #28
 800453c:	3024      	adds	r0, #36	; 0x24
 800453e:	f002 fbcf 	bl	8006ce0 <memset>
 8004542:	1c30      	adds	r0, r6, #0
 8004544:	6434      	str	r4, [r6, #64]	; 0x40
 8004546:	2100      	movs	r1, #0
 8004548:	221c      	movs	r2, #28
 800454a:	3044      	adds	r0, #68	; 0x44
 800454c:	f002 fbc8 	bl	8006ce0 <memset>
 8004550:	4ae6      	ldr	r2, [pc, #920]	; (80048ec <ge25519_scalarmult_base+0x3dc>)
 8004552:	1c31      	adds	r1, r6, #0
 8004554:	3160      	adds	r1, #96	; 0x60
 8004556:	446a      	add	r2, sp
 8004558:	6011      	str	r1, [r2, #0]
 800455a:	1c08      	adds	r0, r1, #0
 800455c:	2220      	movs	r2, #32
 800455e:	2100      	movs	r1, #0
 8004560:	f002 fbbe 	bl	8006ce0 <memset>
 8004564:	4ce2      	ldr	r4, [pc, #904]	; (80048f0 <ge25519_scalarmult_base+0x3e0>)
 8004566:	278f      	movs	r7, #143	; 0x8f
 8004568:	208b      	movs	r0, #139	; 0x8b
 800456a:	218d      	movs	r1, #141	; 0x8d
 800456c:	2293      	movs	r2, #147	; 0x93
 800456e:	1c33      	adds	r3, r6, #0
 8004570:	013f      	lsls	r7, r7, #4
 8004572:	0100      	lsls	r0, r0, #4
 8004574:	0109      	lsls	r1, r1, #4
 8004576:	0112      	lsls	r2, r2, #4
 8004578:	3340      	adds	r3, #64	; 0x40
 800457a:	446c      	add	r4, sp
 800457c:	25ff      	movs	r5, #255	; 0xff
 800457e:	446f      	add	r7, sp
 8004580:	4468      	add	r0, sp
 8004582:	4469      	add	r1, sp
 8004584:	446a      	add	r2, sp
 8004586:	6023      	str	r3, [r4, #0]
 8004588:	951f      	str	r5, [sp, #124]	; 0x7c
 800458a:	46ba      	mov	sl, r7
 800458c:	4691      	mov	r9, r2
 800458e:	910e      	str	r1, [sp, #56]	; 0x38
 8004590:	4683      	mov	fp, r0
 8004592:	46b0      	mov	r8, r6
 8004594:	4ed4      	ldr	r6, [pc, #848]	; (80048e8 <ge25519_scalarmult_base+0x3d8>)
 8004596:	9d1f      	ldr	r5, [sp, #124]	; 0x7c
 8004598:	446e      	add	r6, sp
 800459a:	6836      	ldr	r6, [r6, #0]
 800459c:	116a      	asrs	r2, r5, #5
 800459e:	0092      	lsls	r2, r2, #2
 80045a0:	5992      	ldr	r2, [r2, r6]
 80045a2:	231f      	movs	r3, #31
 80045a4:	402b      	ands	r3, r5
 80045a6:	208a      	movs	r0, #138	; 0x8a
 80045a8:	40da      	lsrs	r2, r3
 80045aa:	2701      	movs	r7, #1
 80045ac:	0100      	lsls	r0, r0, #4
 80045ae:	4017      	ands	r7, r2
 80045b0:	4468      	add	r0, sp
 80045b2:	6007      	str	r7, [r0, #0]
 80045b4:	4641      	mov	r1, r8
 80045b6:	4640      	mov	r0, r8
 80045b8:	4644      	mov	r4, r8
 80045ba:	25a0      	movs	r5, #160	; 0xa0
 80045bc:	f7ff fa22 	bl	8003a04 <ed25519_double>
 80045c0:	00ed      	lsls	r5, r5, #3
 80045c2:	6824      	ldr	r4, [r4, #0]
 80045c4:	446d      	add	r5, sp
 80045c6:	4641      	mov	r1, r8
 80045c8:	602c      	str	r4, [r5, #0]
 80045ca:	6a09      	ldr	r1, [r1, #32]
 80045cc:	aaff      	add	r2, sp, #1020	; 0x3fc
 80045ce:	4bc9      	ldr	r3, [pc, #804]	; (80048f4 <ge25519_scalarmult_base+0x3e4>)
 80045d0:	4dc9      	ldr	r5, [pc, #804]	; (80048f8 <ge25519_scalarmult_base+0x3e8>)
 80045d2:	32fc      	adds	r2, #252	; 0xfc
 80045d4:	20a0      	movs	r0, #160	; 0xa0
 80045d6:	6011      	str	r1, [r2, #0]
 80045d8:	446b      	add	r3, sp
 80045da:	2200      	movs	r2, #0
 80045dc:	446d      	add	r5, sp
 80045de:	a9ff      	add	r1, sp, #1020	; 0x3fc
 80045e0:	00c0      	lsls	r0, r0, #3
 80045e2:	602a      	str	r2, [r5, #0]
 80045e4:	601a      	str	r2, [r3, #0]
 80045e6:	31fc      	adds	r1, #252	; 0xfc
 80045e8:	4468      	add	r0, sp
 80045ea:	680e      	ldr	r6, [r1, #0]
 80045ec:	684f      	ldr	r7, [r1, #4]
 80045ee:	6841      	ldr	r1, [r0, #4]
 80045f0:	6800      	ldr	r0, [r0, #0]
 80045f2:	1a36      	subs	r6, r6, r0
 80045f4:	418f      	sbcs	r7, r1
 80045f6:	a9ff      	add	r1, sp, #1020	; 0x3fc
 80045f8:	31c4      	adds	r1, #196	; 0xc4
 80045fa:	600f      	str	r7, [r1, #0]
 80045fc:	9602      	str	r6, [sp, #8]
 80045fe:	9703      	str	r7, [sp, #12]
 8004600:	20a2      	movs	r0, #162	; 0xa2
 8004602:	4647      	mov	r7, r8
 8004604:	687f      	ldr	r7, [r7, #4]
 8004606:	00c0      	lsls	r0, r0, #3
 8004608:	4468      	add	r0, sp
 800460a:	4644      	mov	r4, r8
 800460c:	25a1      	movs	r5, #161	; 0xa1
 800460e:	6007      	str	r7, [r0, #0]
 8004610:	6a64      	ldr	r4, [r4, #36]	; 0x24
 8004612:	00ed      	lsls	r5, r5, #3
 8004614:	4eb9      	ldr	r6, [pc, #740]	; (80048fc <ge25519_scalarmult_base+0x3ec>)
 8004616:	48ba      	ldr	r0, [pc, #744]	; (8004900 <ge25519_scalarmult_base+0x3f0>)
 8004618:	446d      	add	r5, sp
 800461a:	602c      	str	r4, [r5, #0]
 800461c:	446e      	add	r6, sp
 800461e:	2500      	movs	r5, #0
 8004620:	4468      	add	r0, sp
 8004622:	6005      	str	r5, [r0, #0]
 8004624:	6035      	str	r5, [r6, #0]
 8004626:	9a03      	ldr	r2, [sp, #12]
 8004628:	25a1      	movs	r5, #161	; 0xa1
 800462a:	24a2      	movs	r4, #162	; 0xa2
 800462c:	abff      	add	r3, sp, #1020	; 0x3fc
 800462e:	00ed      	lsls	r5, r5, #3
 8004630:	00e4      	lsls	r4, r4, #3
 8004632:	17d2      	asrs	r2, r2, #31
 8004634:	33c8      	adds	r3, #200	; 0xc8
 8004636:	446d      	add	r5, sp
 8004638:	446c      	add	r4, sp
 800463a:	601a      	str	r2, [r3, #0]
 800463c:	a8ff      	add	r0, sp, #1020	; 0x3fc
 800463e:	682a      	ldr	r2, [r5, #0]
 8004640:	686b      	ldr	r3, [r5, #4]
 8004642:	6865      	ldr	r5, [r4, #4]
 8004644:	6824      	ldr	r4, [r4, #0]
 8004646:	1b12      	subs	r2, r2, r4
 8004648:	41ab      	sbcs	r3, r5
 800464a:	30cc      	adds	r0, #204	; 0xcc
 800464c:	680d      	ldr	r5, [r1, #0]
 800464e:	684e      	ldr	r6, [r1, #4]
 8004650:	18ad      	adds	r5, r5, r2
 8004652:	415e      	adcs	r6, r3
 8004654:	6006      	str	r6, [r0, #0]
 8004656:	950c      	str	r5, [sp, #48]	; 0x30
 8004658:	960d      	str	r6, [sp, #52]	; 0x34
 800465a:	27a4      	movs	r7, #164	; 0xa4
 800465c:	4646      	mov	r6, r8
 800465e:	68b6      	ldr	r6, [r6, #8]
 8004660:	990d      	ldr	r1, [sp, #52]	; 0x34
 8004662:	00ff      	lsls	r7, r7, #3
 8004664:	446f      	add	r7, sp
 8004666:	aaff      	add	r2, sp, #1020	; 0x3fc
 8004668:	4643      	mov	r3, r8
 800466a:	24a3      	movs	r4, #163	; 0xa3
 800466c:	603e      	str	r6, [r7, #0]
 800466e:	6a9b      	ldr	r3, [r3, #40]	; 0x28
 8004670:	17c9      	asrs	r1, r1, #31
 8004672:	32d0      	adds	r2, #208	; 0xd0
 8004674:	00e4      	lsls	r4, r4, #3
 8004676:	4da3      	ldr	r5, [pc, #652]	; (8004904 <ge25519_scalarmult_base+0x3f4>)
 8004678:	4fa3      	ldr	r7, [pc, #652]	; (8004908 <ge25519_scalarmult_base+0x3f8>)
 800467a:	6011      	str	r1, [r2, #0]
 800467c:	446c      	add	r4, sp
 800467e:	21a3      	movs	r1, #163	; 0xa3
 8004680:	20a4      	movs	r0, #164	; 0xa4
 8004682:	6023      	str	r3, [r4, #0]
 8004684:	446d      	add	r5, sp
 8004686:	2400      	movs	r4, #0
 8004688:	446f      	add	r7, sp
 800468a:	00c9      	lsls	r1, r1, #3
 800468c:	00c0      	lsls	r0, r0, #3
 800468e:	603c      	str	r4, [r7, #0]
 8004690:	602c      	str	r4, [r5, #0]
 8004692:	4469      	add	r1, sp
 8004694:	4468      	add	r0, sp
 8004696:	aeff      	add	r6, sp, #1020	; 0x3fc
 8004698:	680a      	ldr	r2, [r1, #0]
 800469a:	684b      	ldr	r3, [r1, #4]
 800469c:	36cc      	adds	r6, #204	; 0xcc
 800469e:	6841      	ldr	r1, [r0, #4]
 80046a0:	6800      	ldr	r0, [r0, #0]
 80046a2:	afff      	add	r7, sp, #1020	; 0x3fc
 80046a4:	1a12      	subs	r2, r2, r0
 80046a6:	418b      	sbcs	r3, r1
 80046a8:	6834      	ldr	r4, [r6, #0]
 80046aa:	6875      	ldr	r5, [r6, #4]
 80046ac:	37d4      	adds	r7, #212	; 0xd4
 80046ae:	18a4      	adds	r4, r4, r2
 80046b0:	415d      	adcs	r5, r3
 80046b2:	9404      	str	r4, [sp, #16]
 80046b4:	9505      	str	r5, [sp, #20]
 80046b6:	26a6      	movs	r6, #166	; 0xa6
 80046b8:	603d      	str	r5, [r7, #0]
 80046ba:	4645      	mov	r5, r8
 80046bc:	68ed      	ldr	r5, [r5, #12]
 80046be:	9805      	ldr	r0, [sp, #20]
 80046c0:	00f6      	lsls	r6, r6, #3
 80046c2:	446e      	add	r6, sp
 80046c4:	a9ff      	add	r1, sp, #1020	; 0x3fc
 80046c6:	4642      	mov	r2, r8
 80046c8:	23a5      	movs	r3, #165	; 0xa5
 80046ca:	6035      	str	r5, [r6, #0]
 80046cc:	6ad2      	ldr	r2, [r2, #44]	; 0x2c
 80046ce:	17c0      	asrs	r0, r0, #31
 80046d0:	31d8      	adds	r1, #216	; 0xd8
 80046d2:	00db      	lsls	r3, r3, #3
 80046d4:	4c8d      	ldr	r4, [pc, #564]	; (800490c <ge25519_scalarmult_base+0x3fc>)
 80046d6:	4e8e      	ldr	r6, [pc, #568]	; (8004910 <ge25519_scalarmult_base+0x400>)
 80046d8:	6008      	str	r0, [r1, #0]
 80046da:	446b      	add	r3, sp
 80046dc:	21a5      	movs	r1, #165	; 0xa5
 80046de:	20a6      	movs	r0, #166	; 0xa6
 80046e0:	601a      	str	r2, [r3, #0]
 80046e2:	446c      	add	r4, sp
 80046e4:	2300      	movs	r3, #0
 80046e6:	446e      	add	r6, sp
 80046e8:	00c9      	lsls	r1, r1, #3
 80046ea:	00c0      	lsls	r0, r0, #3
 80046ec:	6033      	str	r3, [r6, #0]
 80046ee:	6023      	str	r3, [r4, #0]
 80046f0:	4469      	add	r1, sp
 80046f2:	4468      	add	r0, sp
 80046f4:	680a      	ldr	r2, [r1, #0]
 80046f6:	684b      	ldr	r3, [r1, #4]
 80046f8:	683c      	ldr	r4, [r7, #0]
 80046fa:	687d      	ldr	r5, [r7, #4]
 80046fc:	6841      	ldr	r1, [r0, #4]
 80046fe:	6800      	ldr	r0, [r0, #0]
 8004700:	afff      	add	r7, sp, #1020	; 0x3fc
 8004702:	1a12      	subs	r2, r2, r0
 8004704:	418b      	sbcs	r3, r1
 8004706:	18a4      	adds	r4, r4, r2
 8004708:	415d      	adcs	r5, r3
 800470a:	37dc      	adds	r7, #220	; 0xdc
 800470c:	603d      	str	r5, [r7, #0]
 800470e:	9406      	str	r4, [sp, #24]
 8004710:	9507      	str	r5, [sp, #28]
 8004712:	26a8      	movs	r6, #168	; 0xa8
 8004714:	4645      	mov	r5, r8
 8004716:	692d      	ldr	r5, [r5, #16]
 8004718:	9807      	ldr	r0, [sp, #28]
 800471a:	00f6      	lsls	r6, r6, #3
 800471c:	446e      	add	r6, sp
 800471e:	a9ff      	add	r1, sp, #1020	; 0x3fc
 8004720:	4642      	mov	r2, r8
 8004722:	23a7      	movs	r3, #167	; 0xa7
 8004724:	6035      	str	r5, [r6, #0]
 8004726:	6b12      	ldr	r2, [r2, #48]	; 0x30
 8004728:	17c0      	asrs	r0, r0, #31
 800472a:	31e0      	adds	r1, #224	; 0xe0
 800472c:	00db      	lsls	r3, r3, #3
 800472e:	4c79      	ldr	r4, [pc, #484]	; (8004914 <ge25519_scalarmult_base+0x404>)
 8004730:	4e79      	ldr	r6, [pc, #484]	; (8004918 <ge25519_scalarmult_base+0x408>)
 8004732:	6008      	str	r0, [r1, #0]
 8004734:	446b      	add	r3, sp
 8004736:	21a7      	movs	r1, #167	; 0xa7
 8004738:	20a8      	movs	r0, #168	; 0xa8
 800473a:	601a      	str	r2, [r3, #0]
 800473c:	446c      	add	r4, sp
 800473e:	2300      	movs	r3, #0
 8004740:	446e      	add	r6, sp
 8004742:	00c9      	lsls	r1, r1, #3
 8004744:	00c0      	lsls	r0, r0, #3
 8004746:	6023      	str	r3, [r4, #0]
 8004748:	6033      	str	r3, [r6, #0]
 800474a:	4469      	add	r1, sp
 800474c:	4468      	add	r0, sp
 800474e:	680a      	ldr	r2, [r1, #0]
 8004750:	684b      	ldr	r3, [r1, #4]
 8004752:	6841      	ldr	r1, [r0, #4]
 8004754:	6800      	ldr	r0, [r0, #0]
 8004756:	1a12      	subs	r2, r2, r0
 8004758:	418b      	sbcs	r3, r1
 800475a:	683c      	ldr	r4, [r7, #0]
 800475c:	687d      	ldr	r5, [r7, #4]
 800475e:	afff      	add	r7, sp, #1020	; 0x3fc
 8004760:	18a4      	adds	r4, r4, r2
 8004762:	415d      	adcs	r5, r3
 8004764:	9408      	str	r4, [sp, #32]
 8004766:	9509      	str	r5, [sp, #36]	; 0x24
 8004768:	37e4      	adds	r7, #228	; 0xe4
 800476a:	4642      	mov	r2, r8
 800476c:	23a9      	movs	r3, #169	; 0xa9
 800476e:	603d      	str	r5, [r7, #0]
 8004770:	6b52      	ldr	r2, [r2, #52]	; 0x34
 8004772:	9809      	ldr	r0, [sp, #36]	; 0x24
 8004774:	00db      	lsls	r3, r3, #3
 8004776:	4c69      	ldr	r4, [pc, #420]	; (800491c <ge25519_scalarmult_base+0x40c>)
 8004778:	4645      	mov	r5, r8
 800477a:	26aa      	movs	r6, #170	; 0xaa
 800477c:	446b      	add	r3, sp
 800477e:	696d      	ldr	r5, [r5, #20]
 8004780:	a9ff      	add	r1, sp, #1020	; 0x3fc
 8004782:	00f6      	lsls	r6, r6, #3
 8004784:	601a      	str	r2, [r3, #0]
 8004786:	17c0      	asrs	r0, r0, #31
 8004788:	2300      	movs	r3, #0
 800478a:	31e8      	adds	r1, #232	; 0xe8
 800478c:	446c      	add	r4, sp
 800478e:	446e      	add	r6, sp
 8004790:	6008      	str	r0, [r1, #0]
 8004792:	6023      	str	r3, [r4, #0]
 8004794:	6035      	str	r5, [r6, #0]
 8004796:	4e62      	ldr	r6, [pc, #392]	; (8004920 <ge25519_scalarmult_base+0x410>)
 8004798:	21a9      	movs	r1, #169	; 0xa9
 800479a:	20aa      	movs	r0, #170	; 0xaa
 800479c:	446e      	add	r6, sp
 800479e:	00c9      	lsls	r1, r1, #3
 80047a0:	00c0      	lsls	r0, r0, #3
 80047a2:	6033      	str	r3, [r6, #0]
 80047a4:	4469      	add	r1, sp
 80047a6:	4468      	add	r0, sp
 80047a8:	680a      	ldr	r2, [r1, #0]
 80047aa:	684b      	ldr	r3, [r1, #4]
 80047ac:	683c      	ldr	r4, [r7, #0]
 80047ae:	687d      	ldr	r5, [r7, #4]
 80047b0:	6841      	ldr	r1, [r0, #4]
 80047b2:	6800      	ldr	r0, [r0, #0]
 80047b4:	afff      	add	r7, sp, #1020	; 0x3fc
 80047b6:	1a12      	subs	r2, r2, r0
 80047b8:	418b      	sbcs	r3, r1
 80047ba:	18a4      	adds	r4, r4, r2
 80047bc:	415d      	adcs	r5, r3
 80047be:	37ec      	adds	r7, #236	; 0xec
 80047c0:	940a      	str	r4, [sp, #40]	; 0x28
 80047c2:	950b      	str	r5, [sp, #44]	; 0x2c
 80047c4:	603d      	str	r5, [r7, #0]
 80047c6:	26ac      	movs	r6, #172	; 0xac
 80047c8:	4645      	mov	r5, r8
 80047ca:	69ad      	ldr	r5, [r5, #24]
 80047cc:	980b      	ldr	r0, [sp, #44]	; 0x2c
 80047ce:	00f6      	lsls	r6, r6, #3
 80047d0:	446e      	add	r6, sp
 80047d2:	a9ff      	add	r1, sp, #1020	; 0x3fc
 80047d4:	4642      	mov	r2, r8
 80047d6:	23ab      	movs	r3, #171	; 0xab
 80047d8:	6035      	str	r5, [r6, #0]
 80047da:	6b92      	ldr	r2, [r2, #56]	; 0x38
 80047dc:	17c0      	asrs	r0, r0, #31
 80047de:	31f0      	adds	r1, #240	; 0xf0
 80047e0:	00db      	lsls	r3, r3, #3
 80047e2:	4c50      	ldr	r4, [pc, #320]	; (8004924 <ge25519_scalarmult_base+0x414>)
 80047e4:	4e50      	ldr	r6, [pc, #320]	; (8004928 <ge25519_scalarmult_base+0x418>)
 80047e6:	6008      	str	r0, [r1, #0]
 80047e8:	446b      	add	r3, sp
 80047ea:	21ab      	movs	r1, #171	; 0xab
 80047ec:	20ac      	movs	r0, #172	; 0xac
 80047ee:	601a      	str	r2, [r3, #0]
 80047f0:	446c      	add	r4, sp
 80047f2:	2300      	movs	r3, #0
 80047f4:	446e      	add	r6, sp
 80047f6:	00c9      	lsls	r1, r1, #3
 80047f8:	00c0      	lsls	r0, r0, #3
 80047fa:	6033      	str	r3, [r6, #0]
 80047fc:	6023      	str	r3, [r4, #0]
 80047fe:	4469      	add	r1, sp
 8004800:	4468      	add	r0, sp
 8004802:	680e      	ldr	r6, [r1, #0]
 8004804:	684f      	ldr	r7, [r1, #4]
 8004806:	6841      	ldr	r1, [r0, #4]
 8004808:	6800      	ldr	r0, [r0, #0]
 800480a:	1a36      	subs	r6, r6, r0
 800480c:	418f      	sbcs	r7, r1
 800480e:	a8ff      	add	r0, sp, #1020	; 0x3fc
 8004810:	30ec      	adds	r0, #236	; 0xec
 8004812:	6804      	ldr	r4, [r0, #0]
 8004814:	6845      	ldr	r5, [r0, #4]
 8004816:	19a4      	adds	r4, r4, r6
 8004818:	417d      	adcs	r5, r7
 800481a:	9410      	str	r4, [sp, #64]	; 0x40
 800481c:	9511      	str	r5, [sp, #68]	; 0x44
 800481e:	a9ff      	add	r1, sp, #1020	; 0x3fc
 8004820:	4647      	mov	r7, r8
 8004822:	20ae      	movs	r0, #174	; 0xae
 8004824:	69ff      	ldr	r7, [r7, #28]
 8004826:	31f4      	adds	r1, #244	; 0xf4
 8004828:	9a11      	ldr	r2, [sp, #68]	; 0x44
 800482a:	00c0      	lsls	r0, r0, #3
 800482c:	600d      	str	r5, [r1, #0]
 800482e:	4468      	add	r0, sp
 8004830:	abff      	add	r3, sp, #1020	; 0x3fc
 8004832:	4644      	mov	r4, r8
 8004834:	25ad      	movs	r5, #173	; 0xad
 8004836:	6007      	str	r7, [r0, #0]
 8004838:	6be4      	ldr	r4, [r4, #60]	; 0x3c
 800483a:	17d2      	asrs	r2, r2, #31
 800483c:	33f8      	adds	r3, #248	; 0xf8
 800483e:	00ed      	lsls	r5, r5, #3
 8004840:	4e3a      	ldr	r6, [pc, #232]	; (800492c <ge25519_scalarmult_base+0x41c>)
 8004842:	483b      	ldr	r0, [pc, #236]	; (8004930 <ge25519_scalarmult_base+0x420>)
 8004844:	601a      	str	r2, [r3, #0]
 8004846:	446d      	add	r5, sp
 8004848:	22ad      	movs	r2, #173	; 0xad
 800484a:	21ae      	movs	r1, #174	; 0xae
 800484c:	602c      	str	r4, [r5, #0]
 800484e:	446e      	add	r6, sp
 8004850:	2500      	movs	r5, #0
 8004852:	4468      	add	r0, sp
 8004854:	00d2      	lsls	r2, r2, #3
 8004856:	00c9      	lsls	r1, r1, #3
 8004858:	6005      	str	r5, [r0, #0]
 800485a:	6035      	str	r5, [r6, #0]
 800485c:	446a      	add	r2, sp
 800485e:	4469      	add	r1, sp
 8004860:	abff      	add	r3, sp, #1020	; 0x3fc
 8004862:	6814      	ldr	r4, [r2, #0]
 8004864:	6855      	ldr	r5, [r2, #4]
 8004866:	33f4      	adds	r3, #244	; 0xf4
 8004868:	684a      	ldr	r2, [r1, #4]
 800486a:	6809      	ldr	r1, [r1, #0]
 800486c:	1a64      	subs	r4, r4, r1
 800486e:	4195      	sbcs	r5, r2
 8004870:	681a      	ldr	r2, [r3, #0]
 8004872:	685b      	ldr	r3, [r3, #4]
 8004874:	18a4      	adds	r4, r4, r2
 8004876:	415d      	adcs	r5, r3
 8004878:	17e9      	asrs	r1, r5, #31
 800487a:	2226      	movs	r2, #38	; 0x26
 800487c:	2300      	movs	r3, #0
 800487e:	1c28      	adds	r0, r5, #0
 8004880:	f7fb fcce 	bl	8000220 <__aeabi_lmul>
 8004884:	4b2b      	ldr	r3, [pc, #172]	; (8004934 <ge25519_scalarmult_base+0x424>)
 8004886:	1c0f      	adds	r7, r1, #0
 8004888:	21af      	movs	r1, #175	; 0xaf
 800488a:	1c06      	adds	r6, r0, #0
 800488c:	00c9      	lsls	r1, r1, #3
 800488e:	9802      	ldr	r0, [sp, #8]
 8004890:	4469      	add	r1, sp
 8004892:	2200      	movs	r2, #0
 8004894:	446b      	add	r3, sp
 8004896:	6008      	str	r0, [r1, #0]
 8004898:	601a      	str	r2, [r3, #0]
 800489a:	680a      	ldr	r2, [r1, #0]
 800489c:	684b      	ldr	r3, [r1, #4]
 800489e:	1992      	adds	r2, r2, r6
 80048a0:	417b      	adcs	r3, r7
 80048a2:	17d9      	asrs	r1, r3, #31
 80048a4:	913f      	str	r1, [sp, #252]	; 0xfc
 80048a6:	9e0c      	ldr	r6, [sp, #48]	; 0x30
 80048a8:	afff      	add	r7, sp, #1020	; 0x3fc
 80048aa:	a9ff      	add	r1, sp, #1020	; 0x3fc
 80048ac:	375c      	adds	r7, #92	; 0x5c
 80048ae:	2000      	movs	r0, #0
 80048b0:	3160      	adds	r1, #96	; 0x60
 80048b2:	603e      	str	r6, [r7, #0]
 80048b4:	6008      	str	r0, [r1, #0]
 80048b6:	933e      	str	r3, [sp, #248]	; 0xf8
 80048b8:	683e      	ldr	r6, [r7, #0]
 80048ba:	687f      	ldr	r7, [r7, #4]
 80048bc:	983e      	ldr	r0, [sp, #248]	; 0xf8
 80048be:	993f      	ldr	r1, [sp, #252]	; 0xfc
 80048c0:	1980      	adds	r0, r0, r6
 80048c2:	4179      	adcs	r1, r7
 80048c4:	afff      	add	r7, sp, #1020	; 0x3fc
 80048c6:	3764      	adds	r7, #100	; 0x64
 80048c8:	6039      	str	r1, [r7, #0]
 80048ca:	4656      	mov	r6, sl
 80048cc:	afff      	add	r7, sp, #1020	; 0x3fc
 80048ce:	6070      	str	r0, [r6, #4]
 80048d0:	3768      	adds	r7, #104	; 0x68
 80048d2:	17ce      	asrs	r6, r1, #31
 80048d4:	603e      	str	r6, [r7, #0]
 80048d6:	afff      	add	r7, sp, #1020	; 0x3fc
 80048d8:	9804      	ldr	r0, [sp, #16]
 80048da:	a9ff      	add	r1, sp, #1020	; 0x3fc
 80048dc:	2600      	movs	r6, #0
 80048de:	3770      	adds	r7, #112	; 0x70
 80048e0:	e02a      	b.n	8004938 <ge25519_scalarmult_base+0x428>
 80048e2:	46c0      	nop			; (mov r8, r8)
 80048e4:	fffff5cc 	.word	0xfffff5cc
 80048e8:	000008ac 	.word	0x000008ac
 80048ec:	000008a4 	.word	0x000008a4
 80048f0:	000008a8 	.word	0x000008a8
 80048f4:	000004fc 	.word	0x000004fc
 80048f8:	00000504 	.word	0x00000504
 80048fc:	0000050c 	.word	0x0000050c
 8004900:	00000514 	.word	0x00000514
 8004904:	0000051c 	.word	0x0000051c
 8004908:	00000524 	.word	0x00000524
 800490c:	0000052c 	.word	0x0000052c
 8004910:	00000534 	.word	0x00000534
 8004914:	0000053c 	.word	0x0000053c
 8004918:	00000544 	.word	0x00000544
 800491c:	0000054c 	.word	0x0000054c
 8004920:	00000554 	.word	0x00000554
 8004924:	0000055c 	.word	0x0000055c
 8004928:	00000564 	.word	0x00000564
 800492c:	0000056c 	.word	0x0000056c
 8004930:	00000574 	.word	0x00000574
 8004934:	0000057c 	.word	0x0000057c
 8004938:	603e      	str	r6, [r7, #0]
 800493a:	316c      	adds	r1, #108	; 0x6c
 800493c:	afff      	add	r7, sp, #1020	; 0x3fc
 800493e:	aeff      	add	r6, sp, #1020	; 0x3fc
 8004940:	6008      	str	r0, [r1, #0]
 8004942:	3764      	adds	r7, #100	; 0x64
 8004944:	366c      	adds	r6, #108	; 0x6c
 8004946:	6838      	ldr	r0, [r7, #0]
 8004948:	6879      	ldr	r1, [r7, #4]
 800494a:	6877      	ldr	r7, [r6, #4]
 800494c:	6836      	ldr	r6, [r6, #0]
 800494e:	1980      	adds	r0, r0, r6
 8004950:	4179      	adcs	r1, r7
 8004952:	aeff      	add	r6, sp, #1020	; 0x3fc
 8004954:	4657      	mov	r7, sl
 8004956:	3674      	adds	r6, #116	; 0x74
 8004958:	60b8      	str	r0, [r7, #8]
 800495a:	6031      	str	r1, [r6, #0]
 800495c:	aeff      	add	r6, sp, #1020	; 0x3fc
 800495e:	17cf      	asrs	r7, r1, #31
 8004960:	3678      	adds	r6, #120	; 0x78
 8004962:	6037      	str	r7, [r6, #0]
 8004964:	a8ff      	add	r0, sp, #1020	; 0x3fc
 8004966:	9f06      	ldr	r7, [sp, #24]
 8004968:	aeff      	add	r6, sp, #1020	; 0x3fc
 800496a:	307c      	adds	r0, #124	; 0x7c
 800496c:	2100      	movs	r1, #0
 800496e:	3680      	adds	r6, #128	; 0x80
 8004970:	6031      	str	r1, [r6, #0]
 8004972:	6007      	str	r7, [r0, #0]
 8004974:	aeff      	add	r6, sp, #1020	; 0x3fc
 8004976:	afff      	add	r7, sp, #1020	; 0x3fc
 8004978:	3774      	adds	r7, #116	; 0x74
 800497a:	367c      	adds	r6, #124	; 0x7c
 800497c:	6838      	ldr	r0, [r7, #0]
 800497e:	6879      	ldr	r1, [r7, #4]
 8004980:	6877      	ldr	r7, [r6, #4]
 8004982:	6836      	ldr	r6, [r6, #0]
 8004984:	1980      	adds	r0, r0, r6
 8004986:	4179      	adcs	r1, r7
 8004988:	aeff      	add	r6, sp, #1020	; 0x3fc
 800498a:	3684      	adds	r6, #132	; 0x84
 800498c:	6031      	str	r1, [r6, #0]
 800498e:	4657      	mov	r7, sl
 8004990:	aeff      	add	r6, sp, #1020	; 0x3fc
 8004992:	60f8      	str	r0, [r7, #12]
 8004994:	3688      	adds	r6, #136	; 0x88
 8004996:	17cf      	asrs	r7, r1, #31
 8004998:	6037      	str	r7, [r6, #0]
 800499a:	a8ff      	add	r0, sp, #1020	; 0x3fc
 800499c:	9f08      	ldr	r7, [sp, #32]
 800499e:	aeff      	add	r6, sp, #1020	; 0x3fc
 80049a0:	308c      	adds	r0, #140	; 0x8c
 80049a2:	2100      	movs	r1, #0
 80049a4:	3690      	adds	r6, #144	; 0x90
 80049a6:	6031      	str	r1, [r6, #0]
 80049a8:	6007      	str	r7, [r0, #0]
 80049aa:	aeff      	add	r6, sp, #1020	; 0x3fc
 80049ac:	afff      	add	r7, sp, #1020	; 0x3fc
 80049ae:	3784      	adds	r7, #132	; 0x84
 80049b0:	368c      	adds	r6, #140	; 0x8c
 80049b2:	6838      	ldr	r0, [r7, #0]
 80049b4:	6879      	ldr	r1, [r7, #4]
 80049b6:	6877      	ldr	r7, [r6, #4]
 80049b8:	6836      	ldr	r6, [r6, #0]
 80049ba:	1980      	adds	r0, r0, r6
 80049bc:	4179      	adcs	r1, r7
 80049be:	aeff      	add	r6, sp, #1020	; 0x3fc
 80049c0:	3694      	adds	r6, #148	; 0x94
 80049c2:	6031      	str	r1, [r6, #0]
 80049c4:	4657      	mov	r7, sl
 80049c6:	aeff      	add	r6, sp, #1020	; 0x3fc
 80049c8:	6138      	str	r0, [r7, #16]
 80049ca:	3698      	adds	r6, #152	; 0x98
 80049cc:	17cf      	asrs	r7, r1, #31
 80049ce:	6037      	str	r7, [r6, #0]
 80049d0:	a8ff      	add	r0, sp, #1020	; 0x3fc
 80049d2:	9f0a      	ldr	r7, [sp, #40]	; 0x28
 80049d4:	aeff      	add	r6, sp, #1020	; 0x3fc
 80049d6:	309c      	adds	r0, #156	; 0x9c
 80049d8:	2100      	movs	r1, #0
 80049da:	36a0      	adds	r6, #160	; 0xa0
 80049dc:	6007      	str	r7, [r0, #0]
 80049de:	6031      	str	r1, [r6, #0]
 80049e0:	afff      	add	r7, sp, #1020	; 0x3fc
 80049e2:	aeff      	add	r6, sp, #1020	; 0x3fc
 80049e4:	3794      	adds	r7, #148	; 0x94
 80049e6:	369c      	adds	r6, #156	; 0x9c
 80049e8:	6838      	ldr	r0, [r7, #0]
 80049ea:	6879      	ldr	r1, [r7, #4]
 80049ec:	6877      	ldr	r7, [r6, #4]
 80049ee:	6836      	ldr	r6, [r6, #0]
 80049f0:	1980      	adds	r0, r0, r6
 80049f2:	4179      	adcs	r1, r7
 80049f4:	aeff      	add	r6, sp, #1020	; 0x3fc
 80049f6:	36a4      	adds	r6, #164	; 0xa4
 80049f8:	6031      	str	r1, [r6, #0]
 80049fa:	4657      	mov	r7, sl
 80049fc:	aeff      	add	r6, sp, #1020	; 0x3fc
 80049fe:	6178      	str	r0, [r7, #20]
 8004a00:	36a8      	adds	r6, #168	; 0xa8
 8004a02:	17cf      	asrs	r7, r1, #31
 8004a04:	6037      	str	r7, [r6, #0]
 8004a06:	aeff      	add	r6, sp, #1020	; 0x3fc
 8004a08:	9f10      	ldr	r7, [sp, #64]	; 0x40
 8004a0a:	2100      	movs	r1, #0
 8004a0c:	36b0      	adds	r6, #176	; 0xb0
 8004a0e:	a8ff      	add	r0, sp, #1020	; 0x3fc
 8004a10:	6031      	str	r1, [r6, #0]
 8004a12:	30ac      	adds	r0, #172	; 0xac
 8004a14:	a9ff      	add	r1, sp, #1020	; 0x3fc
 8004a16:	6007      	str	r7, [r0, #0]
 8004a18:	31a4      	adds	r1, #164	; 0xa4
 8004a1a:	680e      	ldr	r6, [r1, #0]
 8004a1c:	684f      	ldr	r7, [r1, #4]
 8004a1e:	6841      	ldr	r1, [r0, #4]
 8004a20:	6800      	ldr	r0, [r0, #0]
 8004a22:	1836      	adds	r6, r6, r0
 8004a24:	414f      	adcs	r7, r1
 8004a26:	a8ff      	add	r0, sp, #1020	; 0x3fc
 8004a28:	30b4      	adds	r0, #180	; 0xb4
 8004a2a:	4651      	mov	r1, sl
 8004a2c:	6007      	str	r7, [r0, #0]
 8004a2e:	a8ff      	add	r0, sp, #1020	; 0x3fc
 8004a30:	618e      	str	r6, [r1, #24]
 8004a32:	30b8      	adds	r0, #184	; 0xb8
 8004a34:	17f9      	asrs	r1, r7, #31
 8004a36:	6001      	str	r1, [r0, #0]
 8004a38:	a9ff      	add	r1, sp, #1020	; 0x3fc
 8004a3a:	31bc      	adds	r1, #188	; 0xbc
 8004a3c:	adff      	add	r5, sp, #1020	; 0x3fc
 8004a3e:	600c      	str	r4, [r1, #0]
 8004a40:	35c0      	adds	r5, #192	; 0xc0
 8004a42:	2400      	movs	r4, #0
 8004a44:	afff      	add	r7, sp, #1020	; 0x3fc
 8004a46:	aeff      	add	r6, sp, #1020	; 0x3fc
 8004a48:	602c      	str	r4, [r5, #0]
 8004a4a:	37b4      	adds	r7, #180	; 0xb4
 8004a4c:	36bc      	adds	r6, #188	; 0xbc
 8004a4e:	6838      	ldr	r0, [r7, #0]
 8004a50:	6879      	ldr	r1, [r7, #4]
 8004a52:	2326      	movs	r3, #38	; 0x26
 8004a54:	6877      	ldr	r7, [r6, #4]
 8004a56:	6836      	ldr	r6, [r6, #0]
 8004a58:	1980      	adds	r0, r0, r6
 8004a5a:	4179      	adcs	r1, r7
 8004a5c:	434b      	muls	r3, r1
 8004a5e:	4657      	mov	r7, sl
 8004a60:	61f8      	str	r0, [r7, #28]
 8004a62:	2091      	movs	r0, #145	; 0x91
 8004a64:	189a      	adds	r2, r3, r2
 8004a66:	0100      	lsls	r0, r0, #4
 8004a68:	4bef      	ldr	r3, [pc, #956]	; (8004e28 <ge25519_scalarmult_base+0x918>)
 8004a6a:	4468      	add	r0, sp
 8004a6c:	49ef      	ldr	r1, [pc, #956]	; (8004e2c <ge25519_scalarmult_base+0x91c>)
 8004a6e:	6003      	str	r3, [r0, #0]
 8004a70:	4bef      	ldr	r3, [pc, #956]	; (8004e30 <ge25519_scalarmult_base+0x920>)
 8004a72:	603a      	str	r2, [r7, #0]
 8004a74:	4469      	add	r1, sp
 8004a76:	4aef      	ldr	r2, [pc, #956]	; (8004e34 <ge25519_scalarmult_base+0x924>)
 8004a78:	600b      	str	r3, [r1, #0]
 8004a7a:	4bef      	ldr	r3, [pc, #956]	; (8004e38 <ge25519_scalarmult_base+0x928>)
 8004a7c:	446a      	add	r2, sp
 8004a7e:	4cef      	ldr	r4, [pc, #956]	; (8004e3c <ge25519_scalarmult_base+0x92c>)
 8004a80:	6013      	str	r3, [r2, #0]
 8004a82:	4bef      	ldr	r3, [pc, #956]	; (8004e40 <ge25519_scalarmult_base+0x930>)
 8004a84:	446c      	add	r4, sp
 8004a86:	2592      	movs	r5, #146	; 0x92
 8004a88:	6023      	str	r3, [r4, #0]
 8004a8a:	012d      	lsls	r5, r5, #4
 8004a8c:	4bed      	ldr	r3, [pc, #948]	; (8004e44 <ge25519_scalarmult_base+0x934>)
 8004a8e:	446d      	add	r5, sp
 8004a90:	4eed      	ldr	r6, [pc, #948]	; (8004e48 <ge25519_scalarmult_base+0x938>)
 8004a92:	602b      	str	r3, [r5, #0]
 8004a94:	4bed      	ldr	r3, [pc, #948]	; (8004e4c <ge25519_scalarmult_base+0x93c>)
 8004a96:	446e      	add	r6, sp
 8004a98:	4fed      	ldr	r7, [pc, #948]	; (8004e50 <ge25519_scalarmult_base+0x940>)
 8004a9a:	6033      	str	r3, [r6, #0]
 8004a9c:	4bed      	ldr	r3, [pc, #948]	; (8004e54 <ge25519_scalarmult_base+0x944>)
 8004a9e:	446f      	add	r7, sp
 8004aa0:	48ed      	ldr	r0, [pc, #948]	; (8004e58 <ge25519_scalarmult_base+0x948>)
 8004aa2:	603b      	str	r3, [r7, #0]
 8004aa4:	2291      	movs	r2, #145	; 0x91
 8004aa6:	4bed      	ldr	r3, [pc, #948]	; (8004e5c <ge25519_scalarmult_base+0x94c>)
 8004aa8:	4468      	add	r0, sp
 8004aaa:	0112      	lsls	r2, r2, #4
 8004aac:	6003      	str	r3, [r0, #0]
 8004aae:	4651      	mov	r1, sl
 8004ab0:	4658      	mov	r0, fp
 8004ab2:	446a      	add	r2, sp
 8004ab4:	4644      	mov	r4, r8
 8004ab6:	25b1      	movs	r5, #177	; 0xb1
 8004ab8:	f7fe fdd4 	bl	8003664 <fe25519_mul>
 8004abc:	00ed      	lsls	r5, r5, #3
 8004abe:	6a24      	ldr	r4, [r4, #32]
 8004ac0:	4641      	mov	r1, r8
 8004ac2:	22b0      	movs	r2, #176	; 0xb0
 8004ac4:	6809      	ldr	r1, [r1, #0]
 8004ac6:	446d      	add	r5, sp
 8004ac8:	00d2      	lsls	r2, r2, #3
 8004aca:	602c      	str	r4, [r5, #0]
 8004acc:	446a      	add	r2, sp
 8004ace:	4be4      	ldr	r3, [pc, #912]	; (8004e60 <ge25519_scalarmult_base+0x950>)
 8004ad0:	4de4      	ldr	r5, [pc, #912]	; (8004e64 <ge25519_scalarmult_base+0x954>)
 8004ad2:	6011      	str	r1, [r2, #0]
 8004ad4:	20b1      	movs	r0, #177	; 0xb1
 8004ad6:	21b0      	movs	r1, #176	; 0xb0
 8004ad8:	2200      	movs	r2, #0
 8004ada:	446b      	add	r3, sp
 8004adc:	446d      	add	r5, sp
 8004ade:	00c9      	lsls	r1, r1, #3
 8004ae0:	00c0      	lsls	r0, r0, #3
 8004ae2:	602a      	str	r2, [r5, #0]
 8004ae4:	601a      	str	r2, [r3, #0]
 8004ae6:	4469      	add	r1, sp
 8004ae8:	4468      	add	r0, sp
 8004aea:	680e      	ldr	r6, [r1, #0]
 8004aec:	684f      	ldr	r7, [r1, #4]
 8004aee:	6841      	ldr	r1, [r0, #4]
 8004af0:	6800      	ldr	r0, [r0, #0]
 8004af2:	1836      	adds	r6, r6, r0
 8004af4:	414f      	adcs	r7, r1
 8004af6:	a9ff      	add	r1, sp, #1020	; 0x3fc
 8004af8:	3124      	adds	r1, #36	; 0x24
 8004afa:	600f      	str	r7, [r1, #0]
 8004afc:	9602      	str	r6, [sp, #8]
 8004afe:	9703      	str	r7, [sp, #12]
 8004b00:	4644      	mov	r4, r8
 8004b02:	25b2      	movs	r5, #178	; 0xb2
 8004b04:	4646      	mov	r6, r8
 8004b06:	27b3      	movs	r7, #179	; 0xb3
 8004b08:	6864      	ldr	r4, [r4, #4]
 8004b0a:	6a76      	ldr	r6, [r6, #36]	; 0x24
 8004b0c:	00ed      	lsls	r5, r5, #3
 8004b0e:	00ff      	lsls	r7, r7, #3
 8004b10:	446d      	add	r5, sp
 8004b12:	446f      	add	r7, sp
 8004b14:	602c      	str	r4, [r5, #0]
 8004b16:	603e      	str	r6, [r7, #0]
 8004b18:	4dd3      	ldr	r5, [pc, #844]	; (8004e68 <ge25519_scalarmult_base+0x958>)
 8004b1a:	4fd4      	ldr	r7, [pc, #848]	; (8004e6c <ge25519_scalarmult_base+0x95c>)
 8004b1c:	21b2      	movs	r1, #178	; 0xb2
 8004b1e:	20b3      	movs	r0, #179	; 0xb3
 8004b20:	abff      	add	r3, sp, #1020	; 0x3fc
 8004b22:	446d      	add	r5, sp
 8004b24:	446f      	add	r7, sp
 8004b26:	00c9      	lsls	r1, r1, #3
 8004b28:	00c0      	lsls	r0, r0, #3
 8004b2a:	603a      	str	r2, [r7, #0]
 8004b2c:	602a      	str	r2, [r5, #0]
 8004b2e:	3328      	adds	r3, #40	; 0x28
 8004b30:	4469      	add	r1, sp
 8004b32:	aeff      	add	r6, sp, #1020	; 0x3fc
 8004b34:	4468      	add	r0, sp
 8004b36:	601a      	str	r2, [r3, #0]
 8004b38:	3624      	adds	r6, #36	; 0x24
 8004b3a:	680a      	ldr	r2, [r1, #0]
 8004b3c:	684b      	ldr	r3, [r1, #4]
 8004b3e:	afff      	add	r7, sp, #1020	; 0x3fc
 8004b40:	6841      	ldr	r1, [r0, #4]
 8004b42:	6800      	ldr	r0, [r0, #0]
 8004b44:	1812      	adds	r2, r2, r0
 8004b46:	414b      	adcs	r3, r1
 8004b48:	6834      	ldr	r4, [r6, #0]
 8004b4a:	6875      	ldr	r5, [r6, #4]
 8004b4c:	372c      	adds	r7, #44	; 0x2c
 8004b4e:	18a4      	adds	r4, r4, r2
 8004b50:	415d      	adcs	r5, r3
 8004b52:	603d      	str	r5, [r7, #0]
 8004b54:	940c      	str	r4, [sp, #48]	; 0x30
 8004b56:	950d      	str	r5, [sp, #52]	; 0x34
 8004b58:	4642      	mov	r2, r8
 8004b5a:	23b4      	movs	r3, #180	; 0xb4
 8004b5c:	4644      	mov	r4, r8
 8004b5e:	25b5      	movs	r5, #181	; 0xb5
 8004b60:	6892      	ldr	r2, [r2, #8]
 8004b62:	6aa4      	ldr	r4, [r4, #40]	; 0x28
 8004b64:	00db      	lsls	r3, r3, #3
 8004b66:	00ed      	lsls	r5, r5, #3
 8004b68:	446b      	add	r3, sp
 8004b6a:	446d      	add	r5, sp
 8004b6c:	602c      	str	r4, [r5, #0]
 8004b6e:	601a      	str	r2, [r3, #0]
 8004b70:	4dbf      	ldr	r5, [pc, #764]	; (8004e70 <ge25519_scalarmult_base+0x960>)
 8004b72:	4bc0      	ldr	r3, [pc, #768]	; (8004e74 <ge25519_scalarmult_base+0x964>)
 8004b74:	27b4      	movs	r7, #180	; 0xb4
 8004b76:	26b5      	movs	r6, #181	; 0xb5
 8004b78:	2000      	movs	r0, #0
 8004b7a:	446b      	add	r3, sp
 8004b7c:	446d      	add	r5, sp
 8004b7e:	00ff      	lsls	r7, r7, #3
 8004b80:	00f6      	lsls	r6, r6, #3
 8004b82:	6028      	str	r0, [r5, #0]
 8004b84:	6018      	str	r0, [r3, #0]
 8004b86:	a9ff      	add	r1, sp, #1020	; 0x3fc
 8004b88:	446f      	add	r7, sp
 8004b8a:	446e      	add	r6, sp
 8004b8c:	683a      	ldr	r2, [r7, #0]
 8004b8e:	687b      	ldr	r3, [r7, #4]
 8004b90:	3130      	adds	r1, #48	; 0x30
 8004b92:	6877      	ldr	r7, [r6, #4]
 8004b94:	6836      	ldr	r6, [r6, #0]
 8004b96:	1992      	adds	r2, r2, r6
 8004b98:	417b      	adcs	r3, r7
 8004b9a:	aeff      	add	r6, sp, #1020	; 0x3fc
 8004b9c:	6008      	str	r0, [r1, #0]
 8004b9e:	362c      	adds	r6, #44	; 0x2c
 8004ba0:	afff      	add	r7, sp, #1020	; 0x3fc
 8004ba2:	6834      	ldr	r4, [r6, #0]
 8004ba4:	6875      	ldr	r5, [r6, #4]
 8004ba6:	3734      	adds	r7, #52	; 0x34
 8004ba8:	18a4      	adds	r4, r4, r2
 8004baa:	415d      	adcs	r5, r3
 8004bac:	9404      	str	r4, [sp, #16]
 8004bae:	9505      	str	r5, [sp, #20]
 8004bb0:	4642      	mov	r2, r8
 8004bb2:	603d      	str	r5, [r7, #0]
 8004bb4:	23b6      	movs	r3, #182	; 0xb6
 8004bb6:	4644      	mov	r4, r8
 8004bb8:	25b7      	movs	r5, #183	; 0xb7
 8004bba:	68d2      	ldr	r2, [r2, #12]
 8004bbc:	6ae4      	ldr	r4, [r4, #44]	; 0x2c
 8004bbe:	00db      	lsls	r3, r3, #3
 8004bc0:	00ed      	lsls	r5, r5, #3
 8004bc2:	446b      	add	r3, sp
 8004bc4:	446d      	add	r5, sp
 8004bc6:	601a      	str	r2, [r3, #0]
 8004bc8:	602c      	str	r4, [r5, #0]
 8004bca:	4bab      	ldr	r3, [pc, #684]	; (8004e78 <ge25519_scalarmult_base+0x968>)
 8004bcc:	4dab      	ldr	r5, [pc, #684]	; (8004e7c <ge25519_scalarmult_base+0x96c>)
 8004bce:	27b6      	movs	r7, #182	; 0xb6
 8004bd0:	26b7      	movs	r6, #183	; 0xb7
 8004bd2:	446b      	add	r3, sp
 8004bd4:	446d      	add	r5, sp
 8004bd6:	00ff      	lsls	r7, r7, #3
 8004bd8:	00f6      	lsls	r6, r6, #3
 8004bda:	6018      	str	r0, [r3, #0]
 8004bdc:	6028      	str	r0, [r5, #0]
 8004bde:	a9ff      	add	r1, sp, #1020	; 0x3fc
 8004be0:	446f      	add	r7, sp
 8004be2:	446e      	add	r6, sp
 8004be4:	683a      	ldr	r2, [r7, #0]
 8004be6:	687b      	ldr	r3, [r7, #4]
 8004be8:	3138      	adds	r1, #56	; 0x38
 8004bea:	6877      	ldr	r7, [r6, #4]
 8004bec:	6836      	ldr	r6, [r6, #0]
 8004bee:	1992      	adds	r2, r2, r6
 8004bf0:	417b      	adcs	r3, r7
 8004bf2:	aeff      	add	r6, sp, #1020	; 0x3fc
 8004bf4:	6008      	str	r0, [r1, #0]
 8004bf6:	3634      	adds	r6, #52	; 0x34
 8004bf8:	6834      	ldr	r4, [r6, #0]
 8004bfa:	6875      	ldr	r5, [r6, #4]
 8004bfc:	18a4      	adds	r4, r4, r2
 8004bfe:	415d      	adcs	r5, r3
 8004c00:	4642      	mov	r2, r8
 8004c02:	23b8      	movs	r3, #184	; 0xb8
 8004c04:	6912      	ldr	r2, [r2, #16]
 8004c06:	00db      	lsls	r3, r3, #3
 8004c08:	afff      	add	r7, sp, #1020	; 0x3fc
 8004c0a:	446b      	add	r3, sp
 8004c0c:	601a      	str	r2, [r3, #0]
 8004c0e:	373c      	adds	r7, #60	; 0x3c
 8004c10:	4b9b      	ldr	r3, [pc, #620]	; (8004e80 <ge25519_scalarmult_base+0x970>)
 8004c12:	603d      	str	r5, [r7, #0]
 8004c14:	9406      	str	r4, [sp, #24]
 8004c16:	9507      	str	r5, [sp, #28]
 8004c18:	a9ff      	add	r1, sp, #1020	; 0x3fc
 8004c1a:	4644      	mov	r4, r8
 8004c1c:	25b9      	movs	r5, #185	; 0xb9
 8004c1e:	6b24      	ldr	r4, [r4, #48]	; 0x30
 8004c20:	3140      	adds	r1, #64	; 0x40
 8004c22:	446b      	add	r3, sp
 8004c24:	00ed      	lsls	r5, r5, #3
 8004c26:	4e97      	ldr	r6, [pc, #604]	; (8004e84 <ge25519_scalarmult_base+0x974>)
 8004c28:	6008      	str	r0, [r1, #0]
 8004c2a:	6018      	str	r0, [r3, #0]
 8004c2c:	446d      	add	r5, sp
 8004c2e:	21b8      	movs	r1, #184	; 0xb8
 8004c30:	20b9      	movs	r0, #185	; 0xb9
 8004c32:	602c      	str	r4, [r5, #0]
 8004c34:	446e      	add	r6, sp
 8004c36:	2500      	movs	r5, #0
 8004c38:	00c9      	lsls	r1, r1, #3
 8004c3a:	00c0      	lsls	r0, r0, #3
 8004c3c:	6035      	str	r5, [r6, #0]
 8004c3e:	4469      	add	r1, sp
 8004c40:	4468      	add	r0, sp
 8004c42:	680a      	ldr	r2, [r1, #0]
 8004c44:	684b      	ldr	r3, [r1, #4]
 8004c46:	683c      	ldr	r4, [r7, #0]
 8004c48:	687d      	ldr	r5, [r7, #4]
 8004c4a:	6841      	ldr	r1, [r0, #4]
 8004c4c:	6800      	ldr	r0, [r0, #0]
 8004c4e:	afff      	add	r7, sp, #1020	; 0x3fc
 8004c50:	1812      	adds	r2, r2, r0
 8004c52:	414b      	adcs	r3, r1
 8004c54:	18a4      	adds	r4, r4, r2
 8004c56:	415d      	adcs	r5, r3
 8004c58:	3744      	adds	r7, #68	; 0x44
 8004c5a:	603d      	str	r5, [r7, #0]
 8004c5c:	9408      	str	r4, [sp, #32]
 8004c5e:	9509      	str	r5, [sp, #36]	; 0x24
 8004c60:	4642      	mov	r2, r8
 8004c62:	23ba      	movs	r3, #186	; 0xba
 8004c64:	4644      	mov	r4, r8
 8004c66:	25bb      	movs	r5, #187	; 0xbb
 8004c68:	6952      	ldr	r2, [r2, #20]
 8004c6a:	6b64      	ldr	r4, [r4, #52]	; 0x34
 8004c6c:	00db      	lsls	r3, r3, #3
 8004c6e:	00ed      	lsls	r5, r5, #3
 8004c70:	446b      	add	r3, sp
 8004c72:	446d      	add	r5, sp
 8004c74:	602c      	str	r4, [r5, #0]
 8004c76:	601a      	str	r2, [r3, #0]
 8004c78:	4d83      	ldr	r5, [pc, #524]	; (8004e88 <ge25519_scalarmult_base+0x978>)
 8004c7a:	4b84      	ldr	r3, [pc, #528]	; (8004e8c <ge25519_scalarmult_base+0x97c>)
 8004c7c:	27ba      	movs	r7, #186	; 0xba
 8004c7e:	26bb      	movs	r6, #187	; 0xbb
 8004c80:	2000      	movs	r0, #0
 8004c82:	446b      	add	r3, sp
 8004c84:	446d      	add	r5, sp
 8004c86:	00ff      	lsls	r7, r7, #3
 8004c88:	00f6      	lsls	r6, r6, #3
 8004c8a:	6028      	str	r0, [r5, #0]
 8004c8c:	6018      	str	r0, [r3, #0]
 8004c8e:	a9ff      	add	r1, sp, #1020	; 0x3fc
 8004c90:	446f      	add	r7, sp
 8004c92:	446e      	add	r6, sp
 8004c94:	683a      	ldr	r2, [r7, #0]
 8004c96:	687b      	ldr	r3, [r7, #4]
 8004c98:	3148      	adds	r1, #72	; 0x48
 8004c9a:	6877      	ldr	r7, [r6, #4]
 8004c9c:	6836      	ldr	r6, [r6, #0]
 8004c9e:	1992      	adds	r2, r2, r6
 8004ca0:	417b      	adcs	r3, r7
 8004ca2:	aeff      	add	r6, sp, #1020	; 0x3fc
 8004ca4:	6008      	str	r0, [r1, #0]
 8004ca6:	3644      	adds	r6, #68	; 0x44
 8004ca8:	afff      	add	r7, sp, #1020	; 0x3fc
 8004caa:	6834      	ldr	r4, [r6, #0]
 8004cac:	6875      	ldr	r5, [r6, #4]
 8004cae:	374c      	adds	r7, #76	; 0x4c
 8004cb0:	18a4      	adds	r4, r4, r2
 8004cb2:	415d      	adcs	r5, r3
 8004cb4:	940a      	str	r4, [sp, #40]	; 0x28
 8004cb6:	950b      	str	r5, [sp, #44]	; 0x2c
 8004cb8:	4642      	mov	r2, r8
 8004cba:	603d      	str	r5, [r7, #0]
 8004cbc:	23bc      	movs	r3, #188	; 0xbc
 8004cbe:	4644      	mov	r4, r8
 8004cc0:	25bd      	movs	r5, #189	; 0xbd
 8004cc2:	6992      	ldr	r2, [r2, #24]
 8004cc4:	6ba4      	ldr	r4, [r4, #56]	; 0x38
 8004cc6:	00db      	lsls	r3, r3, #3
 8004cc8:	00ed      	lsls	r5, r5, #3
 8004cca:	446b      	add	r3, sp
 8004ccc:	446d      	add	r5, sp
 8004cce:	602c      	str	r4, [r5, #0]
 8004cd0:	601a      	str	r2, [r3, #0]
 8004cd2:	4d6f      	ldr	r5, [pc, #444]	; (8004e90 <ge25519_scalarmult_base+0x980>)
 8004cd4:	4b6f      	ldr	r3, [pc, #444]	; (8004e94 <ge25519_scalarmult_base+0x984>)
 8004cd6:	a9ff      	add	r1, sp, #1020	; 0x3fc
 8004cd8:	3150      	adds	r1, #80	; 0x50
 8004cda:	446b      	add	r3, sp
 8004cdc:	446d      	add	r5, sp
 8004cde:	6008      	str	r0, [r1, #0]
 8004ce0:	6028      	str	r0, [r5, #0]
 8004ce2:	6018      	str	r0, [r3, #0]
 8004ce4:	21bc      	movs	r1, #188	; 0xbc
 8004ce6:	20bd      	movs	r0, #189	; 0xbd
 8004ce8:	00c9      	lsls	r1, r1, #3
 8004cea:	00c0      	lsls	r0, r0, #3
 8004cec:	4469      	add	r1, sp
 8004cee:	4468      	add	r0, sp
 8004cf0:	680e      	ldr	r6, [r1, #0]
 8004cf2:	684f      	ldr	r7, [r1, #4]
 8004cf4:	6841      	ldr	r1, [r0, #4]
 8004cf6:	6800      	ldr	r0, [r0, #0]
 8004cf8:	1836      	adds	r6, r6, r0
 8004cfa:	414f      	adcs	r7, r1
 8004cfc:	a8ff      	add	r0, sp, #1020	; 0x3fc
 8004cfe:	304c      	adds	r0, #76	; 0x4c
 8004d00:	a9ff      	add	r1, sp, #1020	; 0x3fc
 8004d02:	6804      	ldr	r4, [r0, #0]
 8004d04:	6845      	ldr	r5, [r0, #4]
 8004d06:	3154      	adds	r1, #84	; 0x54
 8004d08:	19a4      	adds	r4, r4, r6
 8004d0a:	417d      	adcs	r5, r7
 8004d0c:	600d      	str	r5, [r1, #0]
 8004d0e:	9410      	str	r4, [sp, #64]	; 0x40
 8004d10:	9511      	str	r5, [sp, #68]	; 0x44
 8004d12:	4646      	mov	r6, r8
 8004d14:	4644      	mov	r4, r8
 8004d16:	25be      	movs	r5, #190	; 0xbe
 8004d18:	27bf      	movs	r7, #191	; 0xbf
 8004d1a:	69e4      	ldr	r4, [r4, #28]
 8004d1c:	6bf6      	ldr	r6, [r6, #60]	; 0x3c
 8004d1e:	00ed      	lsls	r5, r5, #3
 8004d20:	00ff      	lsls	r7, r7, #3
 8004d22:	446d      	add	r5, sp
 8004d24:	446f      	add	r7, sp
 8004d26:	603e      	str	r6, [r7, #0]
 8004d28:	602c      	str	r4, [r5, #0]
 8004d2a:	4f5b      	ldr	r7, [pc, #364]	; (8004e98 <ge25519_scalarmult_base+0x988>)
 8004d2c:	4d5b      	ldr	r5, [pc, #364]	; (8004e9c <ge25519_scalarmult_base+0x98c>)
 8004d2e:	abff      	add	r3, sp, #1020	; 0x3fc
 8004d30:	21be      	movs	r1, #190	; 0xbe
 8004d32:	20bf      	movs	r0, #191	; 0xbf
 8004d34:	2200      	movs	r2, #0
 8004d36:	3358      	adds	r3, #88	; 0x58
 8004d38:	446d      	add	r5, sp
 8004d3a:	446f      	add	r7, sp
 8004d3c:	00c9      	lsls	r1, r1, #3
 8004d3e:	00c0      	lsls	r0, r0, #3
 8004d40:	601a      	str	r2, [r3, #0]
 8004d42:	603a      	str	r2, [r7, #0]
 8004d44:	602a      	str	r2, [r5, #0]
 8004d46:	4469      	add	r1, sp
 8004d48:	4468      	add	r0, sp
 8004d4a:	aaff      	add	r2, sp, #1020	; 0x3fc
 8004d4c:	680c      	ldr	r4, [r1, #0]
 8004d4e:	684d      	ldr	r5, [r1, #4]
 8004d50:	3254      	adds	r2, #84	; 0x54
 8004d52:	6841      	ldr	r1, [r0, #4]
 8004d54:	6800      	ldr	r0, [r0, #0]
 8004d56:	1824      	adds	r4, r4, r0
 8004d58:	414d      	adcs	r5, r1
 8004d5a:	6811      	ldr	r1, [r2, #0]
 8004d5c:	6852      	ldr	r2, [r2, #4]
 8004d5e:	1864      	adds	r4, r4, r1
 8004d60:	4155      	adcs	r5, r2
 8004d62:	1c28      	adds	r0, r5, #0
 8004d64:	2226      	movs	r2, #38	; 0x26
 8004d66:	2300      	movs	r3, #0
 8004d68:	2100      	movs	r1, #0
 8004d6a:	f7fb fa59 	bl	8000220 <__aeabi_lmul>
 8004d6e:	26c0      	movs	r6, #192	; 0xc0
 8004d70:	9b02      	ldr	r3, [sp, #8]
 8004d72:	00f6      	lsls	r6, r6, #3
 8004d74:	446e      	add	r6, sp
 8004d76:	4a4a      	ldr	r2, [pc, #296]	; (8004ea0 <ge25519_scalarmult_base+0x990>)
 8004d78:	6033      	str	r3, [r6, #0]
 8004d7a:	26c0      	movs	r6, #192	; 0xc0
 8004d7c:	2700      	movs	r7, #0
 8004d7e:	446a      	add	r2, sp
 8004d80:	00f6      	lsls	r6, r6, #3
 8004d82:	6017      	str	r7, [r2, #0]
 8004d84:	446e      	add	r6, sp
 8004d86:	6832      	ldr	r2, [r6, #0]
 8004d88:	6873      	ldr	r3, [r6, #4]
 8004d8a:	1812      	adds	r2, r2, r0
 8004d8c:	414b      	adcs	r3, r1
 8004d8e:	20c1      	movs	r0, #193	; 0xc1
 8004d90:	9741      	str	r7, [sp, #260]	; 0x104
 8004d92:	00c0      	lsls	r0, r0, #3
 8004d94:	9f0c      	ldr	r7, [sp, #48]	; 0x30
 8004d96:	4468      	add	r0, sp
 8004d98:	4e42      	ldr	r6, [pc, #264]	; (8004ea4 <ge25519_scalarmult_base+0x994>)
 8004d9a:	6007      	str	r7, [r0, #0]
 8004d9c:	27c1      	movs	r7, #193	; 0xc1
 8004d9e:	2100      	movs	r1, #0
 8004da0:	446e      	add	r6, sp
 8004da2:	00ff      	lsls	r7, r7, #3
 8004da4:	6031      	str	r1, [r6, #0]
 8004da6:	9340      	str	r3, [sp, #256]	; 0x100
 8004da8:	446f      	add	r7, sp
 8004daa:	683e      	ldr	r6, [r7, #0]
 8004dac:	687f      	ldr	r7, [r7, #4]
 8004dae:	9840      	ldr	r0, [sp, #256]	; 0x100
 8004db0:	9941      	ldr	r1, [sp, #260]	; 0x104
 8004db2:	1980      	adds	r0, r0, r6
 8004db4:	4179      	adcs	r1, r7
 8004db6:	4e3c      	ldr	r6, [pc, #240]	; (8004ea8 <ge25519_scalarmult_base+0x998>)
 8004db8:	9142      	str	r1, [sp, #264]	; 0x108
 8004dba:	446e      	add	r6, sp
 8004dbc:	6030      	str	r0, [r6, #0]
 8004dbe:	4e3b      	ldr	r6, [pc, #236]	; (8004eac <ge25519_scalarmult_base+0x99c>)
 8004dc0:	2700      	movs	r7, #0
 8004dc2:	446e      	add	r6, sp
 8004dc4:	21c2      	movs	r1, #194	; 0xc2
 8004dc6:	6037      	str	r7, [r6, #0]
 8004dc8:	9743      	str	r7, [sp, #268]	; 0x10c
 8004dca:	9804      	ldr	r0, [sp, #16]
 8004dcc:	00c9      	lsls	r1, r1, #3
 8004dce:	27c2      	movs	r7, #194	; 0xc2
 8004dd0:	4469      	add	r1, sp
 8004dd2:	00ff      	lsls	r7, r7, #3
 8004dd4:	6008      	str	r0, [r1, #0]
 8004dd6:	446f      	add	r7, sp
 8004dd8:	683e      	ldr	r6, [r7, #0]
 8004dda:	687f      	ldr	r7, [r7, #4]
 8004ddc:	9842      	ldr	r0, [sp, #264]	; 0x108
 8004dde:	9943      	ldr	r1, [sp, #268]	; 0x10c
 8004de0:	1980      	adds	r0, r0, r6
 8004de2:	4179      	adcs	r1, r7
 8004de4:	4e32      	ldr	r6, [pc, #200]	; (8004eb0 <ge25519_scalarmult_base+0x9a0>)
 8004de6:	9144      	str	r1, [sp, #272]	; 0x110
 8004de8:	446e      	add	r6, sp
 8004dea:	6030      	str	r0, [r6, #0]
 8004dec:	21c3      	movs	r1, #195	; 0xc3
 8004dee:	4e31      	ldr	r6, [pc, #196]	; (8004eb4 <ge25519_scalarmult_base+0x9a4>)
 8004df0:	9806      	ldr	r0, [sp, #24]
 8004df2:	00c9      	lsls	r1, r1, #3
 8004df4:	2700      	movs	r7, #0
 8004df6:	4469      	add	r1, sp
 8004df8:	446e      	add	r6, sp
 8004dfa:	9745      	str	r7, [sp, #276]	; 0x114
 8004dfc:	6008      	str	r0, [r1, #0]
 8004dfe:	6037      	str	r7, [r6, #0]
 8004e00:	27c3      	movs	r7, #195	; 0xc3
 8004e02:	00ff      	lsls	r7, r7, #3
 8004e04:	446f      	add	r7, sp
 8004e06:	683e      	ldr	r6, [r7, #0]
 8004e08:	687f      	ldr	r7, [r7, #4]
 8004e0a:	9844      	ldr	r0, [sp, #272]	; 0x110
 8004e0c:	9945      	ldr	r1, [sp, #276]	; 0x114
 8004e0e:	1980      	adds	r0, r0, r6
 8004e10:	4179      	adcs	r1, r7
 8004e12:	4e29      	ldr	r6, [pc, #164]	; (8004eb8 <ge25519_scalarmult_base+0x9a8>)
 8004e14:	9146      	str	r1, [sp, #280]	; 0x118
 8004e16:	446e      	add	r6, sp
 8004e18:	6030      	str	r0, [r6, #0]
 8004e1a:	4e28      	ldr	r6, [pc, #160]	; (8004ebc <ge25519_scalarmult_base+0x9ac>)
 8004e1c:	2700      	movs	r7, #0
 8004e1e:	446e      	add	r6, sp
 8004e20:	21c4      	movs	r1, #196	; 0xc4
 8004e22:	6037      	str	r7, [r6, #0]
 8004e24:	e04c      	b.n	8004ec0 <ge25519_scalarmult_base+0x9b0>
 8004e26:	46c0      	nop			; (mov r8, r8)
 8004e28:	d740913e 	.word	0xd740913e
 8004e2c:	00000914 	.word	0x00000914
 8004e30:	9d103905 	.word	0x9d103905
 8004e34:	00000918 	.word	0x00000918
 8004e38:	d140beb3 	.word	0xd140beb3
 8004e3c:	0000091c 	.word	0x0000091c
 8004e40:	fd399f05 	.word	0xfd399f05
 8004e44:	688f8a09 	.word	0x688f8a09
 8004e48:	00000924 	.word	0x00000924
 8004e4c:	a5c18434 	.word	0xa5c18434
 8004e50:	00000928 	.word	0x00000928
 8004e54:	98f81267 	.word	0x98f81267
 8004e58:	0000092c 	.word	0x0000092c
 8004e5c:	44fd2f92 	.word	0x44fd2f92
 8004e60:	00000584 	.word	0x00000584
 8004e64:	0000058c 	.word	0x0000058c
 8004e68:	00000594 	.word	0x00000594
 8004e6c:	0000059c 	.word	0x0000059c
 8004e70:	000005ac 	.word	0x000005ac
 8004e74:	000005a4 	.word	0x000005a4
 8004e78:	000005b4 	.word	0x000005b4
 8004e7c:	000005bc 	.word	0x000005bc
 8004e80:	000005c4 	.word	0x000005c4
 8004e84:	000005cc 	.word	0x000005cc
 8004e88:	000005dc 	.word	0x000005dc
 8004e8c:	000005d4 	.word	0x000005d4
 8004e90:	000005ec 	.word	0x000005ec
 8004e94:	000005e4 	.word	0x000005e4
 8004e98:	000005fc 	.word	0x000005fc
 8004e9c:	000005f4 	.word	0x000005f4
 8004ea0:	00000604 	.word	0x00000604
 8004ea4:	0000060c 	.word	0x0000060c
 8004ea8:	000008f4 	.word	0x000008f4
 8004eac:	00000614 	.word	0x00000614
 8004eb0:	000008f8 	.word	0x000008f8
 8004eb4:	0000061c 	.word	0x0000061c
 8004eb8:	000008fc 	.word	0x000008fc
 8004ebc:	00000624 	.word	0x00000624
 8004ec0:	9747      	str	r7, [sp, #284]	; 0x11c
 8004ec2:	9808      	ldr	r0, [sp, #32]
 8004ec4:	00c9      	lsls	r1, r1, #3
 8004ec6:	27c4      	movs	r7, #196	; 0xc4
 8004ec8:	4469      	add	r1, sp
 8004eca:	00ff      	lsls	r7, r7, #3
 8004ecc:	6008      	str	r0, [r1, #0]
 8004ece:	446f      	add	r7, sp
 8004ed0:	683e      	ldr	r6, [r7, #0]
 8004ed2:	687f      	ldr	r7, [r7, #4]
 8004ed4:	9846      	ldr	r0, [sp, #280]	; 0x118
 8004ed6:	9947      	ldr	r1, [sp, #284]	; 0x11c
 8004ed8:	1980      	adds	r0, r0, r6
 8004eda:	4179      	adcs	r1, r7
 8004edc:	2690      	movs	r6, #144	; 0x90
 8004ede:	0136      	lsls	r6, r6, #4
 8004ee0:	446e      	add	r6, sp
 8004ee2:	6030      	str	r0, [r6, #0]
 8004ee4:	4eec      	ldr	r6, [pc, #944]	; (8005298 <ge25519_scalarmult_base+0xd88>)
 8004ee6:	9148      	str	r1, [sp, #288]	; 0x120
 8004ee8:	2700      	movs	r7, #0
 8004eea:	446e      	add	r6, sp
 8004eec:	21c5      	movs	r1, #197	; 0xc5
 8004eee:	6037      	str	r7, [r6, #0]
 8004ef0:	9749      	str	r7, [sp, #292]	; 0x124
 8004ef2:	980a      	ldr	r0, [sp, #40]	; 0x28
 8004ef4:	00c9      	lsls	r1, r1, #3
 8004ef6:	27c5      	movs	r7, #197	; 0xc5
 8004ef8:	4469      	add	r1, sp
 8004efa:	00ff      	lsls	r7, r7, #3
 8004efc:	6008      	str	r0, [r1, #0]
 8004efe:	446f      	add	r7, sp
 8004f00:	683e      	ldr	r6, [r7, #0]
 8004f02:	687f      	ldr	r7, [r7, #4]
 8004f04:	9848      	ldr	r0, [sp, #288]	; 0x120
 8004f06:	9949      	ldr	r1, [sp, #292]	; 0x124
 8004f08:	1980      	adds	r0, r0, r6
 8004f0a:	4179      	adcs	r1, r7
 8004f0c:	4ee3      	ldr	r6, [pc, #908]	; (800529c <ge25519_scalarmult_base+0xd8c>)
 8004f0e:	914a      	str	r1, [sp, #296]	; 0x128
 8004f10:	446e      	add	r6, sp
 8004f12:	21c6      	movs	r1, #198	; 0xc6
 8004f14:	6030      	str	r0, [r6, #0]
 8004f16:	00c9      	lsls	r1, r1, #3
 8004f18:	9810      	ldr	r0, [sp, #64]	; 0x40
 8004f1a:	4469      	add	r1, sp
 8004f1c:	4ee0      	ldr	r6, [pc, #896]	; (80052a0 <ge25519_scalarmult_base+0xd90>)
 8004f1e:	6008      	str	r0, [r1, #0]
 8004f20:	21c6      	movs	r1, #198	; 0xc6
 8004f22:	2700      	movs	r7, #0
 8004f24:	446e      	add	r6, sp
 8004f26:	00c9      	lsls	r1, r1, #3
 8004f28:	6037      	str	r7, [r6, #0]
 8004f2a:	974b      	str	r7, [sp, #300]	; 0x12c
 8004f2c:	4469      	add	r1, sp
 8004f2e:	6808      	ldr	r0, [r1, #0]
 8004f30:	6849      	ldr	r1, [r1, #4]
 8004f32:	9e4a      	ldr	r6, [sp, #296]	; 0x128
 8004f34:	9f4b      	ldr	r7, [sp, #300]	; 0x12c
 8004f36:	1836      	adds	r6, r6, r0
 8004f38:	414f      	adcs	r7, r1
 8004f3a:	48da      	ldr	r0, [pc, #872]	; (80052a4 <ge25519_scalarmult_base+0xd94>)
 8004f3c:	974c      	str	r7, [sp, #304]	; 0x130
 8004f3e:	4468      	add	r0, sp
 8004f40:	6006      	str	r6, [r0, #0]
 8004f42:	4fd9      	ldr	r7, [pc, #868]	; (80052a8 <ge25519_scalarmult_base+0xd98>)
 8004f44:	26c7      	movs	r6, #199	; 0xc7
 8004f46:	00f6      	lsls	r6, r6, #3
 8004f48:	2100      	movs	r1, #0
 8004f4a:	446e      	add	r6, sp
 8004f4c:	446f      	add	r7, sp
 8004f4e:	6039      	str	r1, [r7, #0]
 8004f50:	6034      	str	r4, [r6, #0]
 8004f52:	914d      	str	r1, [sp, #308]	; 0x134
 8004f54:	6834      	ldr	r4, [r6, #0]
 8004f56:	6875      	ldr	r5, [r6, #4]
 8004f58:	984c      	ldr	r0, [sp, #304]	; 0x130
 8004f5a:	994d      	ldr	r1, [sp, #308]	; 0x134
 8004f5c:	2326      	movs	r3, #38	; 0x26
 8004f5e:	1900      	adds	r0, r0, r4
 8004f60:	4169      	adcs	r1, r5
 8004f62:	434b      	muls	r3, r1
 8004f64:	4ed1      	ldr	r6, [pc, #836]	; (80052ac <ge25519_scalarmult_base+0xd9c>)
 8004f66:	189a      	adds	r2, r3, r2
 8004f68:	446e      	add	r6, sp
 8004f6a:	6030      	str	r0, [r6, #0]
 8004f6c:	2091      	movs	r0, #145	; 0x91
 8004f6e:	4bd0      	ldr	r3, [pc, #832]	; (80052b0 <ge25519_scalarmult_base+0xda0>)
 8004f70:	0100      	lsls	r0, r0, #4
 8004f72:	4468      	add	r0, sp
 8004f74:	49cf      	ldr	r1, [pc, #828]	; (80052b4 <ge25519_scalarmult_base+0xda4>)
 8004f76:	6003      	str	r3, [r0, #0]
 8004f78:	4657      	mov	r7, sl
 8004f7a:	4bcf      	ldr	r3, [pc, #828]	; (80052b8 <ge25519_scalarmult_base+0xda8>)
 8004f7c:	603a      	str	r2, [r7, #0]
 8004f7e:	4469      	add	r1, sp
 8004f80:	4ace      	ldr	r2, [pc, #824]	; (80052bc <ge25519_scalarmult_base+0xdac>)
 8004f82:	600b      	str	r3, [r1, #0]
 8004f84:	4bce      	ldr	r3, [pc, #824]	; (80052c0 <ge25519_scalarmult_base+0xdb0>)
 8004f86:	446a      	add	r2, sp
 8004f88:	4cce      	ldr	r4, [pc, #824]	; (80052c4 <ge25519_scalarmult_base+0xdb4>)
 8004f8a:	6013      	str	r3, [r2, #0]
 8004f8c:	4bce      	ldr	r3, [pc, #824]	; (80052c8 <ge25519_scalarmult_base+0xdb8>)
 8004f8e:	446c      	add	r4, sp
 8004f90:	2592      	movs	r5, #146	; 0x92
 8004f92:	6023      	str	r3, [r4, #0]
 8004f94:	012d      	lsls	r5, r5, #4
 8004f96:	4bcd      	ldr	r3, [pc, #820]	; (80052cc <ge25519_scalarmult_base+0xdbc>)
 8004f98:	446d      	add	r5, sp
 8004f9a:	4ecd      	ldr	r6, [pc, #820]	; (80052d0 <ge25519_scalarmult_base+0xdc0>)
 8004f9c:	602b      	str	r3, [r5, #0]
 8004f9e:	4bcd      	ldr	r3, [pc, #820]	; (80052d4 <ge25519_scalarmult_base+0xdc4>)
 8004fa0:	446e      	add	r6, sp
 8004fa2:	4fcd      	ldr	r7, [pc, #820]	; (80052d8 <ge25519_scalarmult_base+0xdc8>)
 8004fa4:	6033      	str	r3, [r6, #0]
 8004fa6:	4bcd      	ldr	r3, [pc, #820]	; (80052dc <ge25519_scalarmult_base+0xdcc>)
 8004fa8:	446f      	add	r7, sp
 8004faa:	48cd      	ldr	r0, [pc, #820]	; (80052e0 <ge25519_scalarmult_base+0xdd0>)
 8004fac:	603b      	str	r3, [r7, #0]
 8004fae:	2291      	movs	r2, #145	; 0x91
 8004fb0:	4bcc      	ldr	r3, [pc, #816]	; (80052e4 <ge25519_scalarmult_base+0xdd4>)
 8004fb2:	4468      	add	r0, sp
 8004fb4:	0112      	lsls	r2, r2, #4
 8004fb6:	6003      	str	r3, [r0, #0]
 8004fb8:	4651      	mov	r1, sl
 8004fba:	980e      	ldr	r0, [sp, #56]	; 0x38
 8004fbc:	446a      	add	r2, sp
 8004fbe:	f7fe fb51 	bl	8003664 <fe25519_mul>
 8004fc2:	4bc9      	ldr	r3, [pc, #804]	; (80052e8 <ge25519_scalarmult_base+0xdd8>)
 8004fc4:	4ac9      	ldr	r2, [pc, #804]	; (80052ec <ge25519_scalarmult_base+0xddc>)
 8004fc6:	2091      	movs	r0, #145	; 0x91
 8004fc8:	446b      	add	r3, sp
 8004fca:	0100      	lsls	r0, r0, #4
 8004fcc:	6819      	ldr	r1, [r3, #0]
 8004fce:	3260      	adds	r2, #96	; 0x60
 8004fd0:	4468      	add	r0, sp
 8004fd2:	f7fe fb47 	bl	8003664 <fe25519_mul>
 8004fd6:	2191      	movs	r1, #145	; 0x91
 8004fd8:	0109      	lsls	r1, r1, #4
 8004fda:	4650      	mov	r0, sl
 8004fdc:	4469      	add	r1, sp
 8004fde:	4ac4      	ldr	r2, [pc, #784]	; (80052f0 <ge25519_scalarmult_base+0xde0>)
 8004fe0:	4cc4      	ldr	r4, [pc, #784]	; (80052f4 <ge25519_scalarmult_base+0xde4>)
 8004fe2:	f7fe fb3f 	bl	8003664 <fe25519_mul>
 8004fe6:	2591      	movs	r5, #145	; 0x91
 8004fe8:	4ac0      	ldr	r2, [pc, #768]	; (80052ec <ge25519_scalarmult_base+0xddc>)
 8004fea:	2091      	movs	r0, #145	; 0x91
 8004fec:	446c      	add	r4, sp
 8004fee:	0100      	lsls	r0, r0, #4
 8004ff0:	012d      	lsls	r5, r5, #4
 8004ff2:	6821      	ldr	r1, [r4, #0]
 8004ff4:	3240      	adds	r2, #64	; 0x40
 8004ff6:	4468      	add	r0, sp
 8004ff8:	446d      	add	r5, sp
 8004ffa:	f7fe fb33 	bl	8003664 <fe25519_mul>
 8004ffe:	682d      	ldr	r5, [r5, #0]
 8005000:	2600      	movs	r6, #0
 8005002:	962f      	str	r6, [sp, #188]	; 0xbc
 8005004:	952e      	str	r5, [sp, #184]	; 0xb8
 8005006:	9c2e      	ldr	r4, [sp, #184]	; 0xb8
 8005008:	9d2f      	ldr	r5, [sp, #188]	; 0xbc
 800500a:	1924      	adds	r4, r4, r4
 800500c:	416d      	adcs	r5, r5
 800500e:	9402      	str	r4, [sp, #8]
 8005010:	9503      	str	r5, [sp, #12]
 8005012:	95fa      	str	r5, [sp, #1000]	; 0x3e8
 8005014:	4da7      	ldr	r5, [pc, #668]	; (80052b4 <ge25519_scalarmult_base+0xda4>)
 8005016:	48a9      	ldr	r0, [pc, #676]	; (80052bc <ge25519_scalarmult_base+0xdac>)
 8005018:	446d      	add	r5, sp
 800501a:	682d      	ldr	r5, [r5, #0]
 800501c:	4468      	add	r0, sp
 800501e:	6800      	ldr	r0, [r0, #0]
 8005020:	9631      	str	r6, [sp, #196]	; 0xc4
 8005022:	9530      	str	r5, [sp, #192]	; 0xc0
 8005024:	96fb      	str	r6, [sp, #1004]	; 0x3ec
 8005026:	9c30      	ldr	r4, [sp, #192]	; 0xc0
 8005028:	9d31      	ldr	r5, [sp, #196]	; 0xc4
 800502a:	1924      	adds	r4, r4, r4
 800502c:	416d      	adcs	r5, r5
 800502e:	9efa      	ldr	r6, [sp, #1000]	; 0x3e8
 8005030:	9ffb      	ldr	r7, [sp, #1004]	; 0x3ec
 8005032:	9032      	str	r0, [sp, #200]	; 0xc8
 8005034:	19a4      	adds	r4, r4, r6
 8005036:	417d      	adcs	r5, r7
 8005038:	48a2      	ldr	r0, [pc, #648]	; (80052c4 <ge25519_scalarmult_base+0xdb4>)
 800503a:	2700      	movs	r7, #0
 800503c:	9733      	str	r7, [sp, #204]	; 0xcc
 800503e:	95fc      	str	r5, [sp, #1008]	; 0x3f0
 8005040:	97fd      	str	r7, [sp, #1012]	; 0x3f4
 8005042:	9a32      	ldr	r2, [sp, #200]	; 0xc8
 8005044:	9b33      	ldr	r3, [sp, #204]	; 0xcc
 8005046:	4468      	add	r0, sp
 8005048:	1892      	adds	r2, r2, r2
 800504a:	415b      	adcs	r3, r3
 800504c:	6800      	ldr	r0, [r0, #0]
 800504e:	9efc      	ldr	r6, [sp, #1008]	; 0x3f0
 8005050:	9ffd      	ldr	r7, [sp, #1012]	; 0x3f4
 8005052:	18b6      	adds	r6, r6, r2
 8005054:	415f      	adcs	r7, r3
 8005056:	960e      	str	r6, [sp, #56]	; 0x38
 8005058:	970f      	str	r7, [sp, #60]	; 0x3c
 800505a:	97fe      	str	r7, [sp, #1016]	; 0x3f8
 800505c:	2700      	movs	r7, #0
 800505e:	9034      	str	r0, [sp, #208]	; 0xd0
 8005060:	9735      	str	r7, [sp, #212]	; 0xd4
 8005062:	97ff      	str	r7, [sp, #1020]	; 0x3fc
 8005064:	9a34      	ldr	r2, [sp, #208]	; 0xd0
 8005066:	9b35      	ldr	r3, [sp, #212]	; 0xd4
 8005068:	1892      	adds	r2, r2, r2
 800506a:	415b      	adcs	r3, r3
 800506c:	9efe      	ldr	r6, [sp, #1016]	; 0x3f8
 800506e:	9fff      	ldr	r7, [sp, #1020]	; 0x3fc
 8005070:	18b6      	adds	r6, r6, r2
 8005072:	415f      	adcs	r7, r3
 8005074:	2392      	movs	r3, #146	; 0x92
 8005076:	011b      	lsls	r3, r3, #4
 8005078:	446b      	add	r3, sp
 800507a:	681b      	ldr	r3, [r3, #0]
 800507c:	a8ff      	add	r0, sp, #1020	; 0x3fc
 800507e:	2100      	movs	r1, #0
 8005080:	aaff      	add	r2, sp, #1020	; 0x3fc
 8005082:	3004      	adds	r0, #4
 8005084:	9137      	str	r1, [sp, #220]	; 0xdc
 8005086:	3208      	adds	r2, #8
 8005088:	9336      	str	r3, [sp, #216]	; 0xd8
 800508a:	6011      	str	r1, [r2, #0]
 800508c:	6007      	str	r7, [r0, #0]
 800508e:	9a36      	ldr	r2, [sp, #216]	; 0xd8
 8005090:	9b37      	ldr	r3, [sp, #220]	; 0xdc
 8005092:	1892      	adds	r2, r2, r2
 8005094:	415b      	adcs	r3, r3
 8005096:	9604      	str	r6, [sp, #16]
 8005098:	9705      	str	r7, [sp, #20]
 800509a:	6806      	ldr	r6, [r0, #0]
 800509c:	6847      	ldr	r7, [r0, #4]
 800509e:	18b6      	adds	r6, r6, r2
 80050a0:	415f      	adcs	r7, r3
 80050a2:	9606      	str	r6, [sp, #24]
 80050a4:	9707      	str	r7, [sp, #28]
 80050a6:	4e8a      	ldr	r6, [pc, #552]	; (80052d0 <ge25519_scalarmult_base+0xdc0>)
 80050a8:	a9ff      	add	r1, sp, #1020	; 0x3fc
 80050aa:	446e      	add	r6, sp
 80050ac:	6836      	ldr	r6, [r6, #0]
 80050ae:	2200      	movs	r2, #0
 80050b0:	abff      	add	r3, sp, #1020	; 0x3fc
 80050b2:	310c      	adds	r1, #12
 80050b4:	9638      	str	r6, [sp, #224]	; 0xe0
 80050b6:	3310      	adds	r3, #16
 80050b8:	9239      	str	r2, [sp, #228]	; 0xe4
 80050ba:	600f      	str	r7, [r1, #0]
 80050bc:	601a      	str	r2, [r3, #0]
 80050be:	9a38      	ldr	r2, [sp, #224]	; 0xe0
 80050c0:	9b39      	ldr	r3, [sp, #228]	; 0xe4
 80050c2:	1892      	adds	r2, r2, r2
 80050c4:	415b      	adcs	r3, r3
 80050c6:	680e      	ldr	r6, [r1, #0]
 80050c8:	684f      	ldr	r7, [r1, #4]
 80050ca:	18b6      	adds	r6, r6, r2
 80050cc:	415f      	adcs	r7, r3
 80050ce:	9608      	str	r6, [sp, #32]
 80050d0:	9709      	str	r7, [sp, #36]	; 0x24
 80050d2:	4e81      	ldr	r6, [pc, #516]	; (80052d8 <ge25519_scalarmult_base+0xdc8>)
 80050d4:	a9ff      	add	r1, sp, #1020	; 0x3fc
 80050d6:	446e      	add	r6, sp
 80050d8:	6836      	ldr	r6, [r6, #0]
 80050da:	2200      	movs	r2, #0
 80050dc:	abff      	add	r3, sp, #1020	; 0x3fc
 80050de:	3114      	adds	r1, #20
 80050e0:	963a      	str	r6, [sp, #232]	; 0xe8
 80050e2:	3318      	adds	r3, #24
 80050e4:	923b      	str	r2, [sp, #236]	; 0xec
 80050e6:	600f      	str	r7, [r1, #0]
 80050e8:	601a      	str	r2, [r3, #0]
 80050ea:	9a3a      	ldr	r2, [sp, #232]	; 0xe8
 80050ec:	9b3b      	ldr	r3, [sp, #236]	; 0xec
 80050ee:	1892      	adds	r2, r2, r2
 80050f0:	415b      	adcs	r3, r3
 80050f2:	680e      	ldr	r6, [r1, #0]
 80050f4:	684f      	ldr	r7, [r1, #4]
 80050f6:	18b6      	adds	r6, r6, r2
 80050f8:	415f      	adcs	r7, r3
 80050fa:	960a      	str	r6, [sp, #40]	; 0x28
 80050fc:	970b      	str	r7, [sp, #44]	; 0x2c
 80050fe:	4e78      	ldr	r6, [pc, #480]	; (80052e0 <ge25519_scalarmult_base+0xdd0>)
 8005100:	a9ff      	add	r1, sp, #1020	; 0x3fc
 8005102:	446e      	add	r6, sp
 8005104:	6836      	ldr	r6, [r6, #0]
 8005106:	2200      	movs	r2, #0
 8005108:	abff      	add	r3, sp, #1020	; 0x3fc
 800510a:	311c      	adds	r1, #28
 800510c:	963c      	str	r6, [sp, #240]	; 0xf0
 800510e:	3320      	adds	r3, #32
 8005110:	923d      	str	r2, [sp, #244]	; 0xf4
 8005112:	600f      	str	r7, [r1, #0]
 8005114:	601a      	str	r2, [r3, #0]
 8005116:	9a3c      	ldr	r2, [sp, #240]	; 0xf0
 8005118:	9b3d      	ldr	r3, [sp, #244]	; 0xf4
 800511a:	1892      	adds	r2, r2, r2
 800511c:	415b      	adcs	r3, r3
 800511e:	680e      	ldr	r6, [r1, #0]
 8005120:	684f      	ldr	r7, [r1, #4]
 8005122:	18b6      	adds	r6, r6, r2
 8005124:	415f      	adcs	r7, r3
 8005126:	9612      	str	r6, [sp, #72]	; 0x48
 8005128:	9713      	str	r7, [sp, #76]	; 0x4c
 800512a:	2226      	movs	r2, #38	; 0x26
 800512c:	2300      	movs	r3, #0
 800512e:	9813      	ldr	r0, [sp, #76]	; 0x4c
 8005130:	2100      	movs	r1, #0
 8005132:	f7fb f875 	bl	8000220 <__aeabi_lmul>
 8005136:	4f70      	ldr	r7, [pc, #448]	; (80052f8 <ge25519_scalarmult_base+0xde8>)
 8005138:	23c8      	movs	r3, #200	; 0xc8
 800513a:	9a02      	ldr	r2, [sp, #8]
 800513c:	00db      	lsls	r3, r3, #3
 800513e:	446b      	add	r3, sp
 8005140:	2600      	movs	r6, #0
 8005142:	446f      	add	r7, sp
 8005144:	603e      	str	r6, [r7, #0]
 8005146:	601a      	str	r2, [r3, #0]
 8005148:	681a      	ldr	r2, [r3, #0]
 800514a:	685b      	ldr	r3, [r3, #4]
 800514c:	1812      	adds	r2, r2, r0
 800514e:	414b      	adcs	r3, r1
 8005150:	20c9      	movs	r0, #201	; 0xc9
 8005152:	496a      	ldr	r1, [pc, #424]	; (80052fc <ge25519_scalarmult_base+0xdec>)
 8005154:	00c0      	lsls	r0, r0, #3
 8005156:	2700      	movs	r7, #0
 8005158:	4468      	add	r0, sp
 800515a:	4469      	add	r1, sp
 800515c:	6004      	str	r4, [r0, #0]
 800515e:	600f      	str	r7, [r1, #0]
 8005160:	934e      	str	r3, [sp, #312]	; 0x138
 8005162:	974f      	str	r7, [sp, #316]	; 0x13c
 8005164:	6806      	ldr	r6, [r0, #0]
 8005166:	6847      	ldr	r7, [r0, #4]
 8005168:	4852      	ldr	r0, [pc, #328]	; (80052b4 <ge25519_scalarmult_base+0xda4>)
 800516a:	9c4e      	ldr	r4, [sp, #312]	; 0x138
 800516c:	9d4f      	ldr	r5, [sp, #316]	; 0x13c
 800516e:	19a4      	adds	r4, r4, r6
 8005170:	417d      	adcs	r5, r7
 8005172:	9402      	str	r4, [sp, #8]
 8005174:	9503      	str	r5, [sp, #12]
 8005176:	9550      	str	r5, [sp, #320]	; 0x140
 8005178:	4468      	add	r0, sp
 800517a:	25ca      	movs	r5, #202	; 0xca
 800517c:	4e60      	ldr	r6, [pc, #384]	; (8005300 <ge25519_scalarmult_base+0xdf0>)
 800517e:	6004      	str	r4, [r0, #0]
 8005180:	00ed      	lsls	r5, r5, #3
 8005182:	9c0e      	ldr	r4, [sp, #56]	; 0x38
 8005184:	27ca      	movs	r7, #202	; 0xca
 8005186:	2100      	movs	r1, #0
 8005188:	446d      	add	r5, sp
 800518a:	446e      	add	r6, sp
 800518c:	00ff      	lsls	r7, r7, #3
 800518e:	484b      	ldr	r0, [pc, #300]	; (80052bc <ge25519_scalarmult_base+0xdac>)
 8005190:	9151      	str	r1, [sp, #324]	; 0x144
 8005192:	602c      	str	r4, [r5, #0]
 8005194:	6031      	str	r1, [r6, #0]
 8005196:	446f      	add	r7, sp
 8005198:	683e      	ldr	r6, [r7, #0]
 800519a:	687f      	ldr	r7, [r7, #4]
 800519c:	9c50      	ldr	r4, [sp, #320]	; 0x140
 800519e:	9d51      	ldr	r5, [sp, #324]	; 0x144
 80051a0:	4468      	add	r0, sp
 80051a2:	19a4      	adds	r4, r4, r6
 80051a4:	417d      	adcs	r5, r7
 80051a6:	940c      	str	r4, [sp, #48]	; 0x30
 80051a8:	950d      	str	r5, [sp, #52]	; 0x34
 80051aa:	6004      	str	r4, [r0, #0]
 80051ac:	4e55      	ldr	r6, [pc, #340]	; (8005304 <ge25519_scalarmult_base+0xdf4>)
 80051ae:	24cb      	movs	r4, #203	; 0xcb
 80051b0:	9552      	str	r5, [sp, #328]	; 0x148
 80051b2:	00e4      	lsls	r4, r4, #3
 80051b4:	9153      	str	r1, [sp, #332]	; 0x14c
 80051b6:	27cb      	movs	r7, #203	; 0xcb
 80051b8:	9904      	ldr	r1, [sp, #16]
 80051ba:	446c      	add	r4, sp
 80051bc:	2500      	movs	r5, #0
 80051be:	446e      	add	r6, sp
 80051c0:	00ff      	lsls	r7, r7, #3
 80051c2:	6035      	str	r5, [r6, #0]
 80051c4:	6021      	str	r1, [r4, #0]
 80051c6:	446f      	add	r7, sp
 80051c8:	483e      	ldr	r0, [pc, #248]	; (80052c4 <ge25519_scalarmult_base+0xdb4>)
 80051ca:	683e      	ldr	r6, [r7, #0]
 80051cc:	687f      	ldr	r7, [r7, #4]
 80051ce:	9c52      	ldr	r4, [sp, #328]	; 0x148
 80051d0:	9d53      	ldr	r5, [sp, #332]	; 0x14c
 80051d2:	19a4      	adds	r4, r4, r6
 80051d4:	417d      	adcs	r5, r7
 80051d6:	9404      	str	r4, [sp, #16]
 80051d8:	9505      	str	r5, [sp, #20]
 80051da:	9554      	str	r5, [sp, #336]	; 0x150
 80051dc:	4468      	add	r0, sp
 80051de:	25cc      	movs	r5, #204	; 0xcc
 80051e0:	4e49      	ldr	r6, [pc, #292]	; (8005308 <ge25519_scalarmult_base+0xdf8>)
 80051e2:	6004      	str	r4, [r0, #0]
 80051e4:	00ed      	lsls	r5, r5, #3
 80051e6:	9c06      	ldr	r4, [sp, #24]
 80051e8:	27cc      	movs	r7, #204	; 0xcc
 80051ea:	2100      	movs	r1, #0
 80051ec:	446d      	add	r5, sp
 80051ee:	446e      	add	r6, sp
 80051f0:	00ff      	lsls	r7, r7, #3
 80051f2:	2092      	movs	r0, #146	; 0x92
 80051f4:	6031      	str	r1, [r6, #0]
 80051f6:	602c      	str	r4, [r5, #0]
 80051f8:	9155      	str	r1, [sp, #340]	; 0x154
 80051fa:	446f      	add	r7, sp
 80051fc:	0100      	lsls	r0, r0, #4
 80051fe:	683e      	ldr	r6, [r7, #0]
 8005200:	687f      	ldr	r7, [r7, #4]
 8005202:	9c54      	ldr	r4, [sp, #336]	; 0x150
 8005204:	9d55      	ldr	r5, [sp, #340]	; 0x154
 8005206:	4468      	add	r0, sp
 8005208:	19a4      	adds	r4, r4, r6
 800520a:	417d      	adcs	r5, r7
 800520c:	6004      	str	r4, [r0, #0]
 800520e:	9406      	str	r4, [sp, #24]
 8005210:	9507      	str	r5, [sp, #28]
 8005212:	4e3e      	ldr	r6, [pc, #248]	; (800530c <ge25519_scalarmult_base+0xdfc>)
 8005214:	24cd      	movs	r4, #205	; 0xcd
 8005216:	9157      	str	r1, [sp, #348]	; 0x15c
 8005218:	00e4      	lsls	r4, r4, #3
 800521a:	9908      	ldr	r1, [sp, #32]
 800521c:	27cd      	movs	r7, #205	; 0xcd
 800521e:	9556      	str	r5, [sp, #344]	; 0x158
 8005220:	446c      	add	r4, sp
 8005222:	2500      	movs	r5, #0
 8005224:	446e      	add	r6, sp
 8005226:	00ff      	lsls	r7, r7, #3
 8005228:	6021      	str	r1, [r4, #0]
 800522a:	6035      	str	r5, [r6, #0]
 800522c:	446f      	add	r7, sp
 800522e:	4828      	ldr	r0, [pc, #160]	; (80052d0 <ge25519_scalarmult_base+0xdc0>)
 8005230:	683e      	ldr	r6, [r7, #0]
 8005232:	687f      	ldr	r7, [r7, #4]
 8005234:	9c56      	ldr	r4, [sp, #344]	; 0x158
 8005236:	9d57      	ldr	r5, [sp, #348]	; 0x15c
 8005238:	19a4      	adds	r4, r4, r6
 800523a:	417d      	adcs	r5, r7
 800523c:	9408      	str	r4, [sp, #32]
 800523e:	9509      	str	r5, [sp, #36]	; 0x24
 8005240:	9558      	str	r5, [sp, #352]	; 0x160
 8005242:	4468      	add	r0, sp
 8005244:	25ce      	movs	r5, #206	; 0xce
 8005246:	4e32      	ldr	r6, [pc, #200]	; (8005310 <ge25519_scalarmult_base+0xe00>)
 8005248:	6004      	str	r4, [r0, #0]
 800524a:	00ed      	lsls	r5, r5, #3
 800524c:	9c0a      	ldr	r4, [sp, #40]	; 0x28
 800524e:	27ce      	movs	r7, #206	; 0xce
 8005250:	2100      	movs	r1, #0
 8005252:	446d      	add	r5, sp
 8005254:	446e      	add	r6, sp
 8005256:	00ff      	lsls	r7, r7, #3
 8005258:	481f      	ldr	r0, [pc, #124]	; (80052d8 <ge25519_scalarmult_base+0xdc8>)
 800525a:	9159      	str	r1, [sp, #356]	; 0x164
 800525c:	602c      	str	r4, [r5, #0]
 800525e:	6031      	str	r1, [r6, #0]
 8005260:	446f      	add	r7, sp
 8005262:	683e      	ldr	r6, [r7, #0]
 8005264:	687f      	ldr	r7, [r7, #4]
 8005266:	9c58      	ldr	r4, [sp, #352]	; 0x160
 8005268:	9d59      	ldr	r5, [sp, #356]	; 0x164
 800526a:	4468      	add	r0, sp
 800526c:	19a4      	adds	r4, r4, r6
 800526e:	417d      	adcs	r5, r7
 8005270:	940a      	str	r4, [sp, #40]	; 0x28
 8005272:	950b      	str	r5, [sp, #44]	; 0x2c
 8005274:	4e27      	ldr	r6, [pc, #156]	; (8005314 <ge25519_scalarmult_base+0xe04>)
 8005276:	6004      	str	r4, [r0, #0]
 8005278:	24cf      	movs	r4, #207	; 0xcf
 800527a:	915b      	str	r1, [sp, #364]	; 0x16c
 800527c:	00e4      	lsls	r4, r4, #3
 800527e:	9912      	ldr	r1, [sp, #72]	; 0x48
 8005280:	27cf      	movs	r7, #207	; 0xcf
 8005282:	955a      	str	r5, [sp, #360]	; 0x168
 8005284:	446c      	add	r4, sp
 8005286:	2500      	movs	r5, #0
 8005288:	446e      	add	r6, sp
 800528a:	00ff      	lsls	r7, r7, #3
 800528c:	6021      	str	r1, [r4, #0]
 800528e:	6035      	str	r5, [r6, #0]
 8005290:	446f      	add	r7, sp
 8005292:	683e      	ldr	r6, [r7, #0]
 8005294:	687f      	ldr	r7, [r7, #4]
 8005296:	e03f      	b.n	8005318 <ge25519_scalarmult_base+0xe08>
 8005298:	0000062c 	.word	0x0000062c
 800529c:	00000904 	.word	0x00000904
 80052a0:	00000634 	.word	0x00000634
 80052a4:	00000908 	.word	0x00000908
 80052a8:	0000063c 	.word	0x0000063c
 80052ac:	0000090c 	.word	0x0000090c
 80052b0:	f58c3b72 	.word	0xf58c3b72
 80052b4:	00000914 	.word	0x00000914
 80052b8:	2fbc93c6 	.word	0x2fbc93c6
 80052bc:	00000918 	.word	0x00000918
 80052c0:	fb8c0e19 	.word	0xfb8c0e19
 80052c4:	0000091c 	.word	0x0000091c
 80052c8:	cf932dc6 	.word	0xcf932dc6
 80052cc:	643d42c2 	.word	0x643d42c2
 80052d0:	00000924 	.word	0x00000924
 80052d4:	270b4898 	.word	0x270b4898
 80052d8:	00000928 	.word	0x00000928
 80052dc:	33d4ba65 	.word	0x33d4ba65
 80052e0:	0000092c 	.word	0x0000092c
 80052e4:	87cf9d3a 	.word	0x87cf9d3a
 80052e8:	000008a4 	.word	0x000008a4
 80052ec:	0800783c 	.word	0x0800783c
 80052f0:	080072f8 	.word	0x080072f8
 80052f4:	000008a8 	.word	0x000008a8
 80052f8:	00000644 	.word	0x00000644
 80052fc:	0000064c 	.word	0x0000064c
 8005300:	00000654 	.word	0x00000654
 8005304:	0000065c 	.word	0x0000065c
 8005308:	00000664 	.word	0x00000664
 800530c:	0000066c 	.word	0x0000066c
 8005310:	00000674 	.word	0x00000674
 8005314:	0000067c 	.word	0x0000067c
 8005318:	9c5a      	ldr	r4, [sp, #360]	; 0x168
 800531a:	9d5b      	ldr	r5, [sp, #364]	; 0x16c
 800531c:	48ea      	ldr	r0, [pc, #936]	; (80056c8 <ge25519_scalarmult_base+0x11b8>)
 800531e:	19a4      	adds	r4, r4, r6
 8005320:	417d      	adcs	r5, r7
 8005322:	2326      	movs	r3, #38	; 0x26
 8005324:	436b      	muls	r3, r5
 8005326:	4468      	add	r0, sp
 8005328:	6004      	str	r4, [r0, #0]
 800532a:	9412      	str	r4, [sp, #72]	; 0x48
 800532c:	9513      	str	r5, [sp, #76]	; 0x4c
 800532e:	2191      	movs	r1, #145	; 0x91
 8005330:	248d      	movs	r4, #141	; 0x8d
 8005332:	0109      	lsls	r1, r1, #4
 8005334:	0124      	lsls	r4, r4, #4
 8005336:	268b      	movs	r6, #139	; 0x8b
 8005338:	189b      	adds	r3, r3, r2
 800533a:	446c      	add	r4, sp
 800533c:	4469      	add	r1, sp
 800533e:	0136      	lsls	r6, r6, #4
 8005340:	6825      	ldr	r5, [r4, #0]
 8005342:	600b      	str	r3, [r1, #0]
 8005344:	940e      	str	r4, [sp, #56]	; 0x38
 8005346:	446e      	add	r6, sp
 8005348:	93bc      	str	r3, [sp, #752]	; 0x2f0
 800534a:	20d0      	movs	r0, #208	; 0xd0
 800534c:	4adf      	ldr	r2, [pc, #892]	; (80056cc <ge25519_scalarmult_base+0x11bc>)
 800534e:	23d1      	movs	r3, #209	; 0xd1
 8005350:	4cdf      	ldr	r4, [pc, #892]	; (80056d0 <ge25519_scalarmult_base+0x11c0>)
 8005352:	6837      	ldr	r7, [r6, #0]
 8005354:	00c0      	lsls	r0, r0, #3
 8005356:	00db      	lsls	r3, r3, #3
 8005358:	4468      	add	r0, sp
 800535a:	2100      	movs	r1, #0
 800535c:	446b      	add	r3, sp
 800535e:	446a      	add	r2, sp
 8005360:	446c      	add	r4, sp
 8005362:	6005      	str	r5, [r0, #0]
 8005364:	6011      	str	r1, [r2, #0]
 8005366:	601f      	str	r7, [r3, #0]
 8005368:	6021      	str	r1, [r4, #0]
 800536a:	46b3      	mov	fp, r6
 800536c:	95dc      	str	r5, [sp, #880]	; 0x370
 800536e:	6805      	ldr	r5, [r0, #0]
 8005370:	6846      	ldr	r6, [r0, #4]
 8005372:	6818      	ldr	r0, [r3, #0]
 8005374:	6859      	ldr	r1, [r3, #4]
 8005376:	1a2d      	subs	r5, r5, r0
 8005378:	418e      	sbcs	r6, r1
 800537a:	9510      	str	r5, [sp, #64]	; 0x40
 800537c:	9611      	str	r6, [sp, #68]	; 0x44
 800537e:	9911      	ldr	r1, [sp, #68]	; 0x44
 8005380:	9c0e      	ldr	r4, [sp, #56]	; 0x38
 8005382:	17c9      	asrs	r1, r1, #31
 8005384:	96de      	str	r6, [sp, #888]	; 0x378
 8005386:	91df      	str	r1, [sp, #892]	; 0x37c
 8005388:	465d      	mov	r5, fp
 800538a:	26d2      	movs	r6, #210	; 0xd2
 800538c:	48d1      	ldr	r0, [pc, #836]	; (80056d4 <ge25519_scalarmult_base+0x11c4>)
 800538e:	21d3      	movs	r1, #211	; 0xd3
 8005390:	4ad1      	ldr	r2, [pc, #836]	; (80056d8 <ge25519_scalarmult_base+0x11c8>)
 8005392:	6864      	ldr	r4, [r4, #4]
 8005394:	686d      	ldr	r5, [r5, #4]
 8005396:	00f6      	lsls	r6, r6, #3
 8005398:	00c9      	lsls	r1, r1, #3
 800539a:	446e      	add	r6, sp
 800539c:	4469      	add	r1, sp
 800539e:	97dd      	str	r7, [sp, #884]	; 0x374
 80053a0:	4468      	add	r0, sp
 80053a2:	2700      	movs	r7, #0
 80053a4:	446a      	add	r2, sp
 80053a6:	6034      	str	r4, [r6, #0]
 80053a8:	6007      	str	r7, [r0, #0]
 80053aa:	94e0      	str	r4, [sp, #896]	; 0x380
 80053ac:	95e1      	str	r5, [sp, #900]	; 0x384
 80053ae:	600d      	str	r5, [r1, #0]
 80053b0:	6017      	str	r7, [r2, #0]
 80053b2:	680c      	ldr	r4, [r1, #0]
 80053b4:	684d      	ldr	r5, [r1, #4]
 80053b6:	6832      	ldr	r2, [r6, #0]
 80053b8:	6873      	ldr	r3, [r6, #4]
 80053ba:	1b12      	subs	r2, r2, r4
 80053bc:	41ab      	sbcs	r3, r5
 80053be:	9f0e      	ldr	r7, [sp, #56]	; 0x38
 80053c0:	9dde      	ldr	r5, [sp, #888]	; 0x378
 80053c2:	9edf      	ldr	r6, [sp, #892]	; 0x37c
 80053c4:	18ad      	adds	r5, r5, r2
 80053c6:	415e      	adcs	r6, r3
 80053c8:	9514      	str	r5, [sp, #80]	; 0x50
 80053ca:	9615      	str	r6, [sp, #84]	; 0x54
 80053cc:	25d4      	movs	r5, #212	; 0xd4
 80053ce:	68bf      	ldr	r7, [r7, #8]
 80053d0:	00ed      	lsls	r5, r5, #3
 80053d2:	96e2      	str	r6, [sp, #904]	; 0x388
 80053d4:	446d      	add	r5, sp
 80053d6:	9e15      	ldr	r6, [sp, #84]	; 0x54
 80053d8:	602f      	str	r7, [r5, #0]
 80053da:	97e4      	str	r7, [sp, #912]	; 0x390
 80053dc:	465c      	mov	r4, fp
 80053de:	4fbf      	ldr	r7, [pc, #764]	; (80056dc <ge25519_scalarmult_base+0x11cc>)
 80053e0:	20d5      	movs	r0, #213	; 0xd5
 80053e2:	49bf      	ldr	r1, [pc, #764]	; (80056e0 <ge25519_scalarmult_base+0x11d0>)
 80053e4:	68a4      	ldr	r4, [r4, #8]
 80053e6:	17f6      	asrs	r6, r6, #31
 80053e8:	00c0      	lsls	r0, r0, #3
 80053ea:	25d4      	movs	r5, #212	; 0xd4
 80053ec:	96e3      	str	r6, [sp, #908]	; 0x38c
 80053ee:	4468      	add	r0, sp
 80053f0:	2600      	movs	r6, #0
 80053f2:	446f      	add	r7, sp
 80053f4:	4469      	add	r1, sp
 80053f6:	00ed      	lsls	r5, r5, #3
 80053f8:	603e      	str	r6, [r7, #0]
 80053fa:	6004      	str	r4, [r0, #0]
 80053fc:	600e      	str	r6, [r1, #0]
 80053fe:	446d      	add	r5, sp
 8005400:	682a      	ldr	r2, [r5, #0]
 8005402:	686b      	ldr	r3, [r5, #4]
 8005404:	94e5      	str	r4, [sp, #916]	; 0x394
 8005406:	6804      	ldr	r4, [r0, #0]
 8005408:	6845      	ldr	r5, [r0, #4]
 800540a:	1b12      	subs	r2, r2, r4
 800540c:	41ab      	sbcs	r3, r5
 800540e:	9f0e      	ldr	r7, [sp, #56]	; 0x38
 8005410:	9de2      	ldr	r5, [sp, #904]	; 0x388
 8005412:	9ee3      	ldr	r6, [sp, #908]	; 0x38c
 8005414:	18ad      	adds	r5, r5, r2
 8005416:	415e      	adcs	r6, r3
 8005418:	9516      	str	r5, [sp, #88]	; 0x58
 800541a:	9617      	str	r6, [sp, #92]	; 0x5c
 800541c:	25d6      	movs	r5, #214	; 0xd6
 800541e:	68ff      	ldr	r7, [r7, #12]
 8005420:	00ed      	lsls	r5, r5, #3
 8005422:	96e6      	str	r6, [sp, #920]	; 0x398
 8005424:	446d      	add	r5, sp
 8005426:	9e17      	ldr	r6, [sp, #92]	; 0x5c
 8005428:	602f      	str	r7, [r5, #0]
 800542a:	97e8      	str	r7, [sp, #928]	; 0x3a0
 800542c:	465c      	mov	r4, fp
 800542e:	4fad      	ldr	r7, [pc, #692]	; (80056e4 <ge25519_scalarmult_base+0x11d4>)
 8005430:	20d7      	movs	r0, #215	; 0xd7
 8005432:	49ad      	ldr	r1, [pc, #692]	; (80056e8 <ge25519_scalarmult_base+0x11d8>)
 8005434:	68e4      	ldr	r4, [r4, #12]
 8005436:	17f6      	asrs	r6, r6, #31
 8005438:	00c0      	lsls	r0, r0, #3
 800543a:	25d6      	movs	r5, #214	; 0xd6
 800543c:	96e7      	str	r6, [sp, #924]	; 0x39c
 800543e:	4468      	add	r0, sp
 8005440:	2600      	movs	r6, #0
 8005442:	446f      	add	r7, sp
 8005444:	4469      	add	r1, sp
 8005446:	00ed      	lsls	r5, r5, #3
 8005448:	603e      	str	r6, [r7, #0]
 800544a:	600e      	str	r6, [r1, #0]
 800544c:	6004      	str	r4, [r0, #0]
 800544e:	446d      	add	r5, sp
 8005450:	682a      	ldr	r2, [r5, #0]
 8005452:	686b      	ldr	r3, [r5, #4]
 8005454:	94e9      	str	r4, [sp, #932]	; 0x3a4
 8005456:	6804      	ldr	r4, [r0, #0]
 8005458:	6845      	ldr	r5, [r0, #4]
 800545a:	1b12      	subs	r2, r2, r4
 800545c:	41ab      	sbcs	r3, r5
 800545e:	9de6      	ldr	r5, [sp, #920]	; 0x398
 8005460:	9ee7      	ldr	r6, [sp, #924]	; 0x39c
 8005462:	18ad      	adds	r5, r5, r2
 8005464:	415e      	adcs	r6, r3
 8005466:	9518      	str	r5, [sp, #96]	; 0x60
 8005468:	9619      	str	r6, [sp, #100]	; 0x64
 800546a:	9f0e      	ldr	r7, [sp, #56]	; 0x38
 800546c:	25d8      	movs	r5, #216	; 0xd8
 800546e:	693f      	ldr	r7, [r7, #16]
 8005470:	00ed      	lsls	r5, r5, #3
 8005472:	96ea      	str	r6, [sp, #936]	; 0x3a8
 8005474:	446d      	add	r5, sp
 8005476:	9e19      	ldr	r6, [sp, #100]	; 0x64
 8005478:	602f      	str	r7, [r5, #0]
 800547a:	97ec      	str	r7, [sp, #944]	; 0x3b0
 800547c:	465c      	mov	r4, fp
 800547e:	4f9b      	ldr	r7, [pc, #620]	; (80056ec <ge25519_scalarmult_base+0x11dc>)
 8005480:	20d9      	movs	r0, #217	; 0xd9
 8005482:	499b      	ldr	r1, [pc, #620]	; (80056f0 <ge25519_scalarmult_base+0x11e0>)
 8005484:	6924      	ldr	r4, [r4, #16]
 8005486:	17f6      	asrs	r6, r6, #31
 8005488:	00c0      	lsls	r0, r0, #3
 800548a:	25d8      	movs	r5, #216	; 0xd8
 800548c:	96eb      	str	r6, [sp, #940]	; 0x3ac
 800548e:	4468      	add	r0, sp
 8005490:	2600      	movs	r6, #0
 8005492:	446f      	add	r7, sp
 8005494:	4469      	add	r1, sp
 8005496:	00ed      	lsls	r5, r5, #3
 8005498:	603e      	str	r6, [r7, #0]
 800549a:	6004      	str	r4, [r0, #0]
 800549c:	600e      	str	r6, [r1, #0]
 800549e:	446d      	add	r5, sp
 80054a0:	682a      	ldr	r2, [r5, #0]
 80054a2:	686b      	ldr	r3, [r5, #4]
 80054a4:	94ed      	str	r4, [sp, #948]	; 0x3b4
 80054a6:	6804      	ldr	r4, [r0, #0]
 80054a8:	6845      	ldr	r5, [r0, #4]
 80054aa:	1b12      	subs	r2, r2, r4
 80054ac:	41ab      	sbcs	r3, r5
 80054ae:	9f0e      	ldr	r7, [sp, #56]	; 0x38
 80054b0:	9dea      	ldr	r5, [sp, #936]	; 0x3a8
 80054b2:	9eeb      	ldr	r6, [sp, #940]	; 0x3ac
 80054b4:	18ad      	adds	r5, r5, r2
 80054b6:	415e      	adcs	r6, r3
 80054b8:	951a      	str	r5, [sp, #104]	; 0x68
 80054ba:	961b      	str	r6, [sp, #108]	; 0x6c
 80054bc:	25da      	movs	r5, #218	; 0xda
 80054be:	697f      	ldr	r7, [r7, #20]
 80054c0:	00ed      	lsls	r5, r5, #3
 80054c2:	96ee      	str	r6, [sp, #952]	; 0x3b8
 80054c4:	446d      	add	r5, sp
 80054c6:	9e1b      	ldr	r6, [sp, #108]	; 0x6c
 80054c8:	602f      	str	r7, [r5, #0]
 80054ca:	97f0      	str	r7, [sp, #960]	; 0x3c0
 80054cc:	465c      	mov	r4, fp
 80054ce:	4f89      	ldr	r7, [pc, #548]	; (80056f4 <ge25519_scalarmult_base+0x11e4>)
 80054d0:	20db      	movs	r0, #219	; 0xdb
 80054d2:	4989      	ldr	r1, [pc, #548]	; (80056f8 <ge25519_scalarmult_base+0x11e8>)
 80054d4:	6964      	ldr	r4, [r4, #20]
 80054d6:	17f6      	asrs	r6, r6, #31
 80054d8:	00c0      	lsls	r0, r0, #3
 80054da:	25da      	movs	r5, #218	; 0xda
 80054dc:	96ef      	str	r6, [sp, #956]	; 0x3bc
 80054de:	4468      	add	r0, sp
 80054e0:	2600      	movs	r6, #0
 80054e2:	446f      	add	r7, sp
 80054e4:	4469      	add	r1, sp
 80054e6:	00ed      	lsls	r5, r5, #3
 80054e8:	603e      	str	r6, [r7, #0]
 80054ea:	600e      	str	r6, [r1, #0]
 80054ec:	6004      	str	r4, [r0, #0]
 80054ee:	446d      	add	r5, sp
 80054f0:	682a      	ldr	r2, [r5, #0]
 80054f2:	686b      	ldr	r3, [r5, #4]
 80054f4:	94f1      	str	r4, [sp, #964]	; 0x3c4
 80054f6:	6804      	ldr	r4, [r0, #0]
 80054f8:	6845      	ldr	r5, [r0, #4]
 80054fa:	1b12      	subs	r2, r2, r4
 80054fc:	41ab      	sbcs	r3, r5
 80054fe:	9dee      	ldr	r5, [sp, #952]	; 0x3b8
 8005500:	9eef      	ldr	r6, [sp, #956]	; 0x3bc
 8005502:	18ad      	adds	r5, r5, r2
 8005504:	415e      	adcs	r6, r3
 8005506:	951c      	str	r5, [sp, #112]	; 0x70
 8005508:	961d      	str	r6, [sp, #116]	; 0x74
 800550a:	96f2      	str	r6, [sp, #968]	; 0x3c8
 800550c:	9e1d      	ldr	r6, [sp, #116]	; 0x74
 800550e:	25dc      	movs	r5, #220	; 0xdc
 8005510:	17f6      	asrs	r6, r6, #31
 8005512:	96f3      	str	r6, [sp, #972]	; 0x3cc
 8005514:	9f0e      	ldr	r7, [sp, #56]	; 0x38
 8005516:	00ed      	lsls	r5, r5, #3
 8005518:	69bf      	ldr	r7, [r7, #24]
 800551a:	446d      	add	r5, sp
 800551c:	602f      	str	r7, [r5, #0]
 800551e:	97f4      	str	r7, [sp, #976]	; 0x3d0
 8005520:	465c      	mov	r4, fp
 8005522:	4f76      	ldr	r7, [pc, #472]	; (80056fc <ge25519_scalarmult_base+0x11ec>)
 8005524:	20dd      	movs	r0, #221	; 0xdd
 8005526:	4976      	ldr	r1, [pc, #472]	; (8005700 <ge25519_scalarmult_base+0x11f0>)
 8005528:	69a4      	ldr	r4, [r4, #24]
 800552a:	00c0      	lsls	r0, r0, #3
 800552c:	2600      	movs	r6, #0
 800552e:	4468      	add	r0, sp
 8005530:	446f      	add	r7, sp
 8005532:	4469      	add	r1, sp
 8005534:	6004      	str	r4, [r0, #0]
 8005536:	600e      	str	r6, [r1, #0]
 8005538:	603e      	str	r6, [r7, #0]
 800553a:	6802      	ldr	r2, [r0, #0]
 800553c:	6843      	ldr	r3, [r0, #4]
 800553e:	682e      	ldr	r6, [r5, #0]
 8005540:	686f      	ldr	r7, [r5, #4]
 8005542:	1ab6      	subs	r6, r6, r2
 8005544:	419f      	sbcs	r7, r3
 8005546:	94f5      	str	r4, [sp, #980]	; 0x3d4
 8005548:	9cf2      	ldr	r4, [sp, #968]	; 0x3c8
 800554a:	9df3      	ldr	r5, [sp, #972]	; 0x3cc
 800554c:	19a4      	adds	r4, r4, r6
 800554e:	417d      	adcs	r5, r7
 8005550:	9e0e      	ldr	r6, [sp, #56]	; 0x38
 8005552:	9400      	str	r4, [sp, #0]
 8005554:	9501      	str	r5, [sp, #4]
 8005556:	465f      	mov	r7, fp
 8005558:	20de      	movs	r0, #222	; 0xde
 800555a:	4a6a      	ldr	r2, [pc, #424]	; (8005704 <ge25519_scalarmult_base+0x11f4>)
 800555c:	23df      	movs	r3, #223	; 0xdf
 800555e:	4c6a      	ldr	r4, [pc, #424]	; (8005708 <ge25519_scalarmult_base+0x11f8>)
 8005560:	69f6      	ldr	r6, [r6, #28]
 8005562:	69ff      	ldr	r7, [r7, #28]
 8005564:	95f6      	str	r5, [sp, #984]	; 0x3d8
 8005566:	00c0      	lsls	r0, r0, #3
 8005568:	9d01      	ldr	r5, [sp, #4]
 800556a:	00db      	lsls	r3, r3, #3
 800556c:	4468      	add	r0, sp
 800556e:	2100      	movs	r1, #0
 8005570:	446b      	add	r3, sp
 8005572:	446a      	add	r2, sp
 8005574:	446c      	add	r4, sp
 8005576:	6006      	str	r6, [r0, #0]
 8005578:	6011      	str	r1, [r2, #0]
 800557a:	6021      	str	r1, [r4, #0]
 800557c:	601f      	str	r7, [r3, #0]
 800557e:	17ed      	asrs	r5, r5, #31
 8005580:	95f7      	str	r5, [sp, #988]	; 0x3dc
 8005582:	96f8      	str	r6, [sp, #992]	; 0x3e0
 8005584:	6804      	ldr	r4, [r0, #0]
 8005586:	6845      	ldr	r5, [r0, #4]
 8005588:	97f9      	str	r7, [sp, #996]	; 0x3e4
 800558a:	681e      	ldr	r6, [r3, #0]
 800558c:	685f      	ldr	r7, [r3, #4]
 800558e:	1ba4      	subs	r4, r4, r6
 8005590:	41bd      	sbcs	r5, r7
 8005592:	9ef6      	ldr	r6, [sp, #984]	; 0x3d8
 8005594:	9ff7      	ldr	r7, [sp, #988]	; 0x3dc
 8005596:	19a4      	adds	r4, r4, r6
 8005598:	417d      	adcs	r5, r7
 800559a:	2226      	movs	r2, #38	; 0x26
 800559c:	2300      	movs	r3, #0
 800559e:	17e9      	asrs	r1, r5, #31
 80055a0:	1c28      	adds	r0, r5, #0
 80055a2:	f7fa fe3d 	bl	8000220 <__aeabi_lmul>
 80055a6:	4b59      	ldr	r3, [pc, #356]	; (800570c <ge25519_scalarmult_base+0x11fc>)
 80055a8:	1c0f      	adds	r7, r1, #0
 80055aa:	21e0      	movs	r1, #224	; 0xe0
 80055ac:	1c06      	adds	r6, r0, #0
 80055ae:	00c9      	lsls	r1, r1, #3
 80055b0:	9810      	ldr	r0, [sp, #64]	; 0x40
 80055b2:	4469      	add	r1, sp
 80055b4:	2200      	movs	r2, #0
 80055b6:	446b      	add	r3, sp
 80055b8:	6008      	str	r0, [r1, #0]
 80055ba:	601a      	str	r2, [r3, #0]
 80055bc:	680a      	ldr	r2, [r1, #0]
 80055be:	684b      	ldr	r3, [r1, #4]
 80055c0:	1992      	adds	r2, r2, r6
 80055c2:	417b      	adcs	r3, r7
 80055c4:	9e14      	ldr	r6, [sp, #80]	; 0x50
 80055c6:	17d9      	asrs	r1, r3, #31
 80055c8:	2700      	movs	r7, #0
 80055ca:	935c      	str	r3, [sp, #368]	; 0x170
 80055cc:	915d      	str	r1, [sp, #372]	; 0x174
 80055ce:	96c2      	str	r6, [sp, #776]	; 0x308
 80055d0:	97c3      	str	r7, [sp, #780]	; 0x30c
 80055d2:	9ec2      	ldr	r6, [sp, #776]	; 0x308
 80055d4:	9fc3      	ldr	r7, [sp, #780]	; 0x30c
 80055d6:	985c      	ldr	r0, [sp, #368]	; 0x170
 80055d8:	995d      	ldr	r1, [sp, #372]	; 0x174
 80055da:	1980      	adds	r0, r0, r6
 80055dc:	4179      	adcs	r1, r7
 80055de:	464f      	mov	r7, r9
 80055e0:	6078      	str	r0, [r7, #4]
 80055e2:	9f16      	ldr	r7, [sp, #88]	; 0x58
 80055e4:	17ce      	asrs	r6, r1, #31
 80055e6:	2000      	movs	r0, #0
 80055e8:	96c5      	str	r6, [sp, #788]	; 0x314
 80055ea:	90c7      	str	r0, [sp, #796]	; 0x31c
 80055ec:	91c4      	str	r1, [sp, #784]	; 0x310
 80055ee:	97c6      	str	r7, [sp, #792]	; 0x318
 80055f0:	9ec6      	ldr	r6, [sp, #792]	; 0x318
 80055f2:	9fc7      	ldr	r7, [sp, #796]	; 0x31c
 80055f4:	98c4      	ldr	r0, [sp, #784]	; 0x310
 80055f6:	99c5      	ldr	r1, [sp, #788]	; 0x314
 80055f8:	1980      	adds	r0, r0, r6
 80055fa:	4179      	adcs	r1, r7
 80055fc:	464f      	mov	r7, r9
 80055fe:	60b8      	str	r0, [r7, #8]
 8005600:	9f18      	ldr	r7, [sp, #96]	; 0x60
 8005602:	17ce      	asrs	r6, r1, #31
 8005604:	2000      	movs	r0, #0
 8005606:	96c9      	str	r6, [sp, #804]	; 0x324
 8005608:	90cb      	str	r0, [sp, #812]	; 0x32c
 800560a:	91c8      	str	r1, [sp, #800]	; 0x320
 800560c:	97ca      	str	r7, [sp, #808]	; 0x328
 800560e:	9eca      	ldr	r6, [sp, #808]	; 0x328
 8005610:	9fcb      	ldr	r7, [sp, #812]	; 0x32c
 8005612:	98c8      	ldr	r0, [sp, #800]	; 0x320
 8005614:	99c9      	ldr	r1, [sp, #804]	; 0x324
 8005616:	1980      	adds	r0, r0, r6
 8005618:	4179      	adcs	r1, r7
 800561a:	464f      	mov	r7, r9
 800561c:	60f8      	str	r0, [r7, #12]
 800561e:	9f1a      	ldr	r7, [sp, #104]	; 0x68
 8005620:	17ce      	asrs	r6, r1, #31
 8005622:	2000      	movs	r0, #0
 8005624:	96cd      	str	r6, [sp, #820]	; 0x334
 8005626:	90cf      	str	r0, [sp, #828]	; 0x33c
 8005628:	91cc      	str	r1, [sp, #816]	; 0x330
 800562a:	97ce      	str	r7, [sp, #824]	; 0x338
 800562c:	9ece      	ldr	r6, [sp, #824]	; 0x338
 800562e:	9fcf      	ldr	r7, [sp, #828]	; 0x33c
 8005630:	98cc      	ldr	r0, [sp, #816]	; 0x330
 8005632:	99cd      	ldr	r1, [sp, #820]	; 0x334
 8005634:	1980      	adds	r0, r0, r6
 8005636:	4179      	adcs	r1, r7
 8005638:	464f      	mov	r7, r9
 800563a:	6138      	str	r0, [r7, #16]
 800563c:	9f1c      	ldr	r7, [sp, #112]	; 0x70
 800563e:	17ce      	asrs	r6, r1, #31
 8005640:	2000      	movs	r0, #0
 8005642:	96d1      	str	r6, [sp, #836]	; 0x344
 8005644:	90d3      	str	r0, [sp, #844]	; 0x34c
 8005646:	91d0      	str	r1, [sp, #832]	; 0x340
 8005648:	97d2      	str	r7, [sp, #840]	; 0x348
 800564a:	9ed2      	ldr	r6, [sp, #840]	; 0x348
 800564c:	9fd3      	ldr	r7, [sp, #844]	; 0x34c
 800564e:	98d0      	ldr	r0, [sp, #832]	; 0x340
 8005650:	99d1      	ldr	r1, [sp, #836]	; 0x344
 8005652:	1980      	adds	r0, r0, r6
 8005654:	4179      	adcs	r1, r7
 8005656:	464f      	mov	r7, r9
 8005658:	6178      	str	r0, [r7, #20]
 800565a:	9f00      	ldr	r7, [sp, #0]
 800565c:	17ce      	asrs	r6, r1, #31
 800565e:	2000      	movs	r0, #0
 8005660:	91d4      	str	r1, [sp, #848]	; 0x350
 8005662:	97d6      	str	r7, [sp, #856]	; 0x358
 8005664:	96d5      	str	r6, [sp, #852]	; 0x354
 8005666:	90d7      	str	r0, [sp, #860]	; 0x35c
 8005668:	98d6      	ldr	r0, [sp, #856]	; 0x358
 800566a:	99d7      	ldr	r1, [sp, #860]	; 0x35c
 800566c:	9ed4      	ldr	r6, [sp, #848]	; 0x350
 800566e:	9fd5      	ldr	r7, [sp, #852]	; 0x354
 8005670:	1836      	adds	r6, r6, r0
 8005672:	414f      	adcs	r7, r1
 8005674:	4649      	mov	r1, r9
 8005676:	618e      	str	r6, [r1, #24]
 8005678:	17f8      	asrs	r0, r7, #31
 800567a:	2100      	movs	r1, #0
 800567c:	97d8      	str	r7, [sp, #864]	; 0x360
 800567e:	90d9      	str	r0, [sp, #868]	; 0x364
 8005680:	91db      	str	r1, [sp, #876]	; 0x36c
 8005682:	94da      	str	r4, [sp, #872]	; 0x368
 8005684:	9cda      	ldr	r4, [sp, #872]	; 0x368
 8005686:	9ddb      	ldr	r5, [sp, #876]	; 0x36c
 8005688:	98d8      	ldr	r0, [sp, #864]	; 0x360
 800568a:	99d9      	ldr	r1, [sp, #868]	; 0x364
 800568c:	2326      	movs	r3, #38	; 0x26
 800568e:	1900      	adds	r0, r0, r4
 8005690:	4169      	adcs	r1, r5
 8005692:	434b      	muls	r3, r1
 8005694:	464d      	mov	r5, r9
 8005696:	189a      	adds	r2, r3, r2
 8005698:	602a      	str	r2, [r5, #0]
 800569a:	61e8      	str	r0, [r5, #28]
 800569c:	4656      	mov	r6, sl
 800569e:	20e1      	movs	r0, #225	; 0xe1
 80056a0:	4a1b      	ldr	r2, [pc, #108]	; (8005710 <ge25519_scalarmult_base+0x1200>)
 80056a2:	23e2      	movs	r3, #226	; 0xe2
 80056a4:	4c1b      	ldr	r4, [pc, #108]	; (8005714 <ge25519_scalarmult_base+0x1204>)
 80056a6:	6836      	ldr	r6, [r6, #0]
 80056a8:	9fbc      	ldr	r7, [sp, #752]	; 0x2f0
 80056aa:	00c0      	lsls	r0, r0, #3
 80056ac:	00db      	lsls	r3, r3, #3
 80056ae:	4468      	add	r0, sp
 80056b0:	2100      	movs	r1, #0
 80056b2:	446b      	add	r3, sp
 80056b4:	446a      	add	r2, sp
 80056b6:	446c      	add	r4, sp
 80056b8:	6007      	str	r7, [r0, #0]
 80056ba:	6011      	str	r1, [r2, #0]
 80056bc:	601e      	str	r6, [r3, #0]
 80056be:	6021      	str	r1, [r4, #0]
 80056c0:	9614      	str	r6, [sp, #80]	; 0x50
 80056c2:	6805      	ldr	r5, [r0, #0]
 80056c4:	6846      	ldr	r6, [r0, #4]
 80056c6:	e027      	b.n	8005718 <ge25519_scalarmult_base+0x1208>
 80056c8:	0000092c 	.word	0x0000092c
 80056cc:	00000684 	.word	0x00000684
 80056d0:	0000068c 	.word	0x0000068c
 80056d4:	00000694 	.word	0x00000694
 80056d8:	0000069c 	.word	0x0000069c
 80056dc:	000006a4 	.word	0x000006a4
 80056e0:	000006ac 	.word	0x000006ac
 80056e4:	000006b4 	.word	0x000006b4
 80056e8:	000006bc 	.word	0x000006bc
 80056ec:	000006c4 	.word	0x000006c4
 80056f0:	000006cc 	.word	0x000006cc
 80056f4:	000006d4 	.word	0x000006d4
 80056f8:	000006dc 	.word	0x000006dc
 80056fc:	000006e4 	.word	0x000006e4
 8005700:	000006ec 	.word	0x000006ec
 8005704:	000006f4 	.word	0x000006f4
 8005708:	000006fc 	.word	0x000006fc
 800570c:	00000704 	.word	0x00000704
 8005710:	0000070c 	.word	0x0000070c
 8005714:	00000714 	.word	0x00000714
 8005718:	6818      	ldr	r0, [r3, #0]
 800571a:	6859      	ldr	r1, [r3, #4]
 800571c:	1a2d      	subs	r5, r5, r0
 800571e:	418e      	sbcs	r6, r1
 8005720:	9510      	str	r5, [sp, #64]	; 0x40
 8005722:	9611      	str	r6, [sp, #68]	; 0x44
 8005724:	96b2      	str	r6, [sp, #712]	; 0x2c8
 8005726:	4654      	mov	r4, sl
 8005728:	25e3      	movs	r5, #227	; 0xe3
 800572a:	4ee6      	ldr	r6, [pc, #920]	; (8005ac4 <ge25519_scalarmult_base+0x15b4>)
 800572c:	9a02      	ldr	r2, [sp, #8]
 800572e:	6864      	ldr	r4, [r4, #4]
 8005730:	9911      	ldr	r1, [sp, #68]	; 0x44
 8005732:	00ed      	lsls	r5, r5, #3
 8005734:	2300      	movs	r3, #0
 8005736:	446d      	add	r5, sp
 8005738:	446e      	add	r6, sp
 800573a:	6033      	str	r3, [r6, #0]
 800573c:	602c      	str	r4, [r5, #0]
 800573e:	17c9      	asrs	r1, r1, #31
 8005740:	9220      	str	r2, [sp, #128]	; 0x80
 8005742:	9321      	str	r3, [sp, #132]	; 0x84
 8005744:	91b3      	str	r1, [sp, #716]	; 0x2cc
 8005746:	9a20      	ldr	r2, [sp, #128]	; 0x80
 8005748:	9b21      	ldr	r3, [sp, #132]	; 0x84
 800574a:	6828      	ldr	r0, [r5, #0]
 800574c:	6869      	ldr	r1, [r5, #4]
 800574e:	1a12      	subs	r2, r2, r0
 8005750:	418b      	sbcs	r3, r1
 8005752:	9416      	str	r4, [sp, #88]	; 0x58
 8005754:	9cb2      	ldr	r4, [sp, #712]	; 0x2c8
 8005756:	9db3      	ldr	r5, [sp, #716]	; 0x2cc
 8005758:	18a4      	adds	r4, r4, r2
 800575a:	415d      	adcs	r5, r3
 800575c:	9402      	str	r4, [sp, #8]
 800575e:	9503      	str	r5, [sp, #12]
 8005760:	95b4      	str	r5, [sp, #720]	; 0x2d0
 8005762:	9d03      	ldr	r5, [sp, #12]
 8005764:	9e0c      	ldr	r6, [sp, #48]	; 0x30
 8005766:	17ed      	asrs	r5, r5, #31
 8005768:	95b5      	str	r5, [sp, #724]	; 0x2d4
 800576a:	4654      	mov	r4, sl
 800576c:	9622      	str	r6, [sp, #136]	; 0x88
 800576e:	25e4      	movs	r5, #228	; 0xe4
 8005770:	4ed5      	ldr	r6, [pc, #852]	; (8005ac8 <ge25519_scalarmult_base+0x15b8>)
 8005772:	68a4      	ldr	r4, [r4, #8]
 8005774:	00ed      	lsls	r5, r5, #3
 8005776:	2700      	movs	r7, #0
 8005778:	446d      	add	r5, sp
 800577a:	446e      	add	r6, sp
 800577c:	602c      	str	r4, [r5, #0]
 800577e:	6037      	str	r7, [r6, #0]
 8005780:	9723      	str	r7, [sp, #140]	; 0x8c
 8005782:	6828      	ldr	r0, [r5, #0]
 8005784:	6869      	ldr	r1, [r5, #4]
 8005786:	9a22      	ldr	r2, [sp, #136]	; 0x88
 8005788:	9b23      	ldr	r3, [sp, #140]	; 0x8c
 800578a:	1a12      	subs	r2, r2, r0
 800578c:	418b      	sbcs	r3, r1
 800578e:	9418      	str	r4, [sp, #96]	; 0x60
 8005790:	9cb4      	ldr	r4, [sp, #720]	; 0x2d0
 8005792:	9db5      	ldr	r5, [sp, #724]	; 0x2d4
 8005794:	18a4      	adds	r4, r4, r2
 8005796:	415d      	adcs	r5, r3
 8005798:	940c      	str	r4, [sp, #48]	; 0x30
 800579a:	950d      	str	r5, [sp, #52]	; 0x34
 800579c:	9725      	str	r7, [sp, #148]	; 0x94
 800579e:	20e5      	movs	r0, #229	; 0xe5
 80057a0:	4657      	mov	r7, sl
 80057a2:	4aca      	ldr	r2, [pc, #808]	; (8005acc <ge25519_scalarmult_base+0x15bc>)
 80057a4:	9e04      	ldr	r6, [sp, #16]
 80057a6:	68ff      	ldr	r7, [r7, #12]
 80057a8:	95b6      	str	r5, [sp, #728]	; 0x2d8
 80057aa:	00c0      	lsls	r0, r0, #3
 80057ac:	9d0d      	ldr	r5, [sp, #52]	; 0x34
 80057ae:	2100      	movs	r1, #0
 80057b0:	4468      	add	r0, sp
 80057b2:	446a      	add	r2, sp
 80057b4:	6007      	str	r7, [r0, #0]
 80057b6:	6011      	str	r1, [r2, #0]
 80057b8:	9624      	str	r6, [sp, #144]	; 0x90
 80057ba:	17ed      	asrs	r5, r5, #31
 80057bc:	95b7      	str	r5, [sp, #732]	; 0x2dc
 80057be:	9a24      	ldr	r2, [sp, #144]	; 0x90
 80057c0:	9b25      	ldr	r3, [sp, #148]	; 0x94
 80057c2:	6804      	ldr	r4, [r0, #0]
 80057c4:	6845      	ldr	r5, [r0, #4]
 80057c6:	1b12      	subs	r2, r2, r4
 80057c8:	41ab      	sbcs	r3, r5
 80057ca:	971a      	str	r7, [sp, #104]	; 0x68
 80057cc:	9eb6      	ldr	r6, [sp, #728]	; 0x2d8
 80057ce:	9fb7      	ldr	r7, [sp, #732]	; 0x2dc
 80057d0:	18b6      	adds	r6, r6, r2
 80057d2:	415f      	adcs	r7, r3
 80057d4:	9604      	str	r6, [sp, #16]
 80057d6:	9705      	str	r7, [sp, #20]
 80057d8:	4654      	mov	r4, sl
 80057da:	25e6      	movs	r5, #230	; 0xe6
 80057dc:	4ebc      	ldr	r6, [pc, #752]	; (8005ad0 <ge25519_scalarmult_base+0x15c0>)
 80057de:	6924      	ldr	r4, [r4, #16]
 80057e0:	97b8      	str	r7, [sp, #736]	; 0x2e0
 80057e2:	9806      	ldr	r0, [sp, #24]
 80057e4:	9f05      	ldr	r7, [sp, #20]
 80057e6:	00ed      	lsls	r5, r5, #3
 80057e8:	446d      	add	r5, sp
 80057ea:	446e      	add	r6, sp
 80057ec:	9026      	str	r0, [sp, #152]	; 0x98
 80057ee:	9127      	str	r1, [sp, #156]	; 0x9c
 80057f0:	602c      	str	r4, [r5, #0]
 80057f2:	6031      	str	r1, [r6, #0]
 80057f4:	17ff      	asrs	r7, r7, #31
 80057f6:	6828      	ldr	r0, [r5, #0]
 80057f8:	6869      	ldr	r1, [r5, #4]
 80057fa:	97b9      	str	r7, [sp, #740]	; 0x2e4
 80057fc:	9a26      	ldr	r2, [sp, #152]	; 0x98
 80057fe:	9b27      	ldr	r3, [sp, #156]	; 0x9c
 8005800:	1a12      	subs	r2, r2, r0
 8005802:	418b      	sbcs	r3, r1
 8005804:	941c      	str	r4, [sp, #112]	; 0x70
 8005806:	9cb8      	ldr	r4, [sp, #736]	; 0x2e0
 8005808:	9db9      	ldr	r5, [sp, #740]	; 0x2e4
 800580a:	18a4      	adds	r4, r4, r2
 800580c:	415d      	adcs	r5, r3
 800580e:	9406      	str	r4, [sp, #24]
 8005810:	9507      	str	r5, [sp, #28]
 8005812:	95ba      	str	r5, [sp, #744]	; 0x2e8
 8005814:	9d07      	ldr	r5, [sp, #28]
 8005816:	9e08      	ldr	r6, [sp, #32]
 8005818:	17ed      	asrs	r5, r5, #31
 800581a:	95bb      	str	r5, [sp, #748]	; 0x2ec
 800581c:	9628      	str	r6, [sp, #160]	; 0xa0
 800581e:	4654      	mov	r4, sl
 8005820:	25e7      	movs	r5, #231	; 0xe7
 8005822:	4eac      	ldr	r6, [pc, #688]	; (8005ad4 <ge25519_scalarmult_base+0x15c4>)
 8005824:	6964      	ldr	r4, [r4, #20]
 8005826:	00ed      	lsls	r5, r5, #3
 8005828:	2700      	movs	r7, #0
 800582a:	446d      	add	r5, sp
 800582c:	446e      	add	r6, sp
 800582e:	6037      	str	r7, [r6, #0]
 8005830:	9729      	str	r7, [sp, #164]	; 0xa4
 8005832:	602c      	str	r4, [r5, #0]
 8005834:	6828      	ldr	r0, [r5, #0]
 8005836:	6869      	ldr	r1, [r5, #4]
 8005838:	9a28      	ldr	r2, [sp, #160]	; 0xa0
 800583a:	9b29      	ldr	r3, [sp, #164]	; 0xa4
 800583c:	1a12      	subs	r2, r2, r0
 800583e:	418b      	sbcs	r3, r1
 8005840:	94bd      	str	r4, [sp, #756]	; 0x2f4
 8005842:	9cba      	ldr	r4, [sp, #744]	; 0x2e8
 8005844:	9dbb      	ldr	r5, [sp, #748]	; 0x2ec
 8005846:	18a4      	adds	r4, r4, r2
 8005848:	415d      	adcs	r5, r3
 800584a:	9408      	str	r4, [sp, #32]
 800584c:	9509      	str	r5, [sp, #36]	; 0x24
 800584e:	4650      	mov	r0, sl
 8005850:	22e8      	movs	r2, #232	; 0xe8
 8005852:	4ca1      	ldr	r4, [pc, #644]	; (8005ad8 <ge25519_scalarmult_base+0x15c8>)
 8005854:	95be      	str	r5, [sp, #760]	; 0x2f8
 8005856:	9e0a      	ldr	r6, [sp, #40]	; 0x28
 8005858:	972b      	str	r7, [sp, #172]	; 0xac
 800585a:	9d09      	ldr	r5, [sp, #36]	; 0x24
 800585c:	6987      	ldr	r7, [r0, #24]
 800585e:	00d2      	lsls	r2, r2, #3
 8005860:	2300      	movs	r3, #0
 8005862:	446a      	add	r2, sp
 8005864:	446c      	add	r4, sp
 8005866:	6017      	str	r7, [r2, #0]
 8005868:	6023      	str	r3, [r4, #0]
 800586a:	17ed      	asrs	r5, r5, #31
 800586c:	962a      	str	r6, [sp, #168]	; 0xa8
 800586e:	6810      	ldr	r0, [r2, #0]
 8005870:	6851      	ldr	r1, [r2, #4]
 8005872:	46b9      	mov	r9, r7
 8005874:	95bf      	str	r5, [sp, #764]	; 0x2fc
 8005876:	9e2a      	ldr	r6, [sp, #168]	; 0xa8
 8005878:	9f2b      	ldr	r7, [sp, #172]	; 0xac
 800587a:	1a36      	subs	r6, r6, r0
 800587c:	418f      	sbcs	r7, r1
 800587e:	9cbe      	ldr	r4, [sp, #760]	; 0x2f8
 8005880:	9dbf      	ldr	r5, [sp, #764]	; 0x2fc
 8005882:	19a4      	adds	r4, r4, r6
 8005884:	417d      	adcs	r5, r7
 8005886:	9400      	str	r4, [sp, #0]
 8005888:	9501      	str	r5, [sp, #4]
 800588a:	95c0      	str	r5, [sp, #768]	; 0x300
 800588c:	9d01      	ldr	r5, [sp, #4]
 800588e:	9e12      	ldr	r6, [sp, #72]	; 0x48
 8005890:	278f      	movs	r7, #143	; 0x8f
 8005892:	17ed      	asrs	r5, r5, #31
 8005894:	013f      	lsls	r7, r7, #4
 8005896:	446f      	add	r7, sp
 8005898:	95c1      	str	r5, [sp, #772]	; 0x304
 800589a:	962c      	str	r6, [sp, #176]	; 0xb0
 800589c:	25e9      	movs	r5, #233	; 0xe9
 800589e:	4e8f      	ldr	r6, [pc, #572]	; (8005adc <ge25519_scalarmult_base+0x15cc>)
 80058a0:	69fc      	ldr	r4, [r7, #28]
 80058a2:	00ed      	lsls	r5, r5, #3
 80058a4:	21e9      	movs	r1, #233	; 0xe9
 80058a6:	446d      	add	r5, sp
 80058a8:	446e      	add	r6, sp
 80058aa:	00c9      	lsls	r1, r1, #3
 80058ac:	932d      	str	r3, [sp, #180]	; 0xb4
 80058ae:	4469      	add	r1, sp
 80058b0:	940a      	str	r4, [sp, #40]	; 0x28
 80058b2:	6033      	str	r3, [r6, #0]
 80058b4:	602c      	str	r4, [r5, #0]
 80058b6:	6808      	ldr	r0, [r1, #0]
 80058b8:	6849      	ldr	r1, [r1, #4]
 80058ba:	9c2c      	ldr	r4, [sp, #176]	; 0xb0
 80058bc:	9d2d      	ldr	r5, [sp, #180]	; 0xb4
 80058be:	1a24      	subs	r4, r4, r0
 80058c0:	418d      	sbcs	r5, r1
 80058c2:	46ba      	mov	sl, r7
 80058c4:	9ec0      	ldr	r6, [sp, #768]	; 0x300
 80058c6:	9fc1      	ldr	r7, [sp, #772]	; 0x304
 80058c8:	19a4      	adds	r4, r4, r6
 80058ca:	417d      	adcs	r5, r7
 80058cc:	2226      	movs	r2, #38	; 0x26
 80058ce:	2300      	movs	r3, #0
 80058d0:	17e9      	asrs	r1, r5, #31
 80058d2:	1c28      	adds	r0, r5, #0
 80058d4:	f7fa fca4 	bl	8000220 <__aeabi_lmul>
 80058d8:	4b81      	ldr	r3, [pc, #516]	; (8005ae0 <ge25519_scalarmult_base+0x15d0>)
 80058da:	1c0f      	adds	r7, r1, #0
 80058dc:	21ea      	movs	r1, #234	; 0xea
 80058de:	1c06      	adds	r6, r0, #0
 80058e0:	00c9      	lsls	r1, r1, #3
 80058e2:	9810      	ldr	r0, [sp, #64]	; 0x40
 80058e4:	4469      	add	r1, sp
 80058e6:	2200      	movs	r2, #0
 80058e8:	446b      	add	r3, sp
 80058ea:	6008      	str	r0, [r1, #0]
 80058ec:	601a      	str	r2, [r3, #0]
 80058ee:	680a      	ldr	r2, [r1, #0]
 80058f0:	684b      	ldr	r3, [r1, #4]
 80058f2:	1992      	adds	r2, r2, r6
 80058f4:	417b      	adcs	r3, r7
 80058f6:	9e02      	ldr	r6, [sp, #8]
 80058f8:	17d9      	asrs	r1, r3, #31
 80058fa:	2700      	movs	r7, #0
 80058fc:	935e      	str	r3, [sp, #376]	; 0x178
 80058fe:	915f      	str	r1, [sp, #380]	; 0x17c
 8005900:	9698      	str	r6, [sp, #608]	; 0x260
 8005902:	9799      	str	r7, [sp, #612]	; 0x264
 8005904:	9e98      	ldr	r6, [sp, #608]	; 0x260
 8005906:	9f99      	ldr	r7, [sp, #612]	; 0x264
 8005908:	985e      	ldr	r0, [sp, #376]	; 0x178
 800590a:	995f      	ldr	r1, [sp, #380]	; 0x17c
 800590c:	1980      	adds	r0, r0, r6
 800590e:	4179      	adcs	r1, r7
 8005910:	4f74      	ldr	r7, [pc, #464]	; (8005ae4 <ge25519_scalarmult_base+0x15d4>)
 8005912:	17ce      	asrs	r6, r1, #31
 8005914:	446f      	add	r7, sp
 8005916:	6038      	str	r0, [r7, #0]
 8005918:	9f0c      	ldr	r7, [sp, #48]	; 0x30
 800591a:	2000      	movs	r0, #0
 800591c:	969b      	str	r6, [sp, #620]	; 0x26c
 800591e:	909d      	str	r0, [sp, #628]	; 0x274
 8005920:	919a      	str	r1, [sp, #616]	; 0x268
 8005922:	979c      	str	r7, [sp, #624]	; 0x270
 8005924:	9e9c      	ldr	r6, [sp, #624]	; 0x270
 8005926:	9f9d      	ldr	r7, [sp, #628]	; 0x274
 8005928:	989a      	ldr	r0, [sp, #616]	; 0x268
 800592a:	999b      	ldr	r1, [sp, #620]	; 0x26c
 800592c:	1980      	adds	r0, r0, r6
 800592e:	4179      	adcs	r1, r7
 8005930:	4f6d      	ldr	r7, [pc, #436]	; (8005ae8 <ge25519_scalarmult_base+0x15d8>)
 8005932:	17ce      	asrs	r6, r1, #31
 8005934:	446f      	add	r7, sp
 8005936:	6038      	str	r0, [r7, #0]
 8005938:	9f04      	ldr	r7, [sp, #16]
 800593a:	2000      	movs	r0, #0
 800593c:	969f      	str	r6, [sp, #636]	; 0x27c
 800593e:	90a1      	str	r0, [sp, #644]	; 0x284
 8005940:	919e      	str	r1, [sp, #632]	; 0x278
 8005942:	97a0      	str	r7, [sp, #640]	; 0x280
 8005944:	9ea0      	ldr	r6, [sp, #640]	; 0x280
 8005946:	9fa1      	ldr	r7, [sp, #644]	; 0x284
 8005948:	989e      	ldr	r0, [sp, #632]	; 0x278
 800594a:	999f      	ldr	r1, [sp, #636]	; 0x27c
 800594c:	1980      	adds	r0, r0, r6
 800594e:	4179      	adcs	r1, r7
 8005950:	4f66      	ldr	r7, [pc, #408]	; (8005aec <ge25519_scalarmult_base+0x15dc>)
 8005952:	17ce      	asrs	r6, r1, #31
 8005954:	446f      	add	r7, sp
 8005956:	6038      	str	r0, [r7, #0]
 8005958:	91a2      	str	r1, [sp, #648]	; 0x288
 800595a:	96a3      	str	r6, [sp, #652]	; 0x28c
 800595c:	9f06      	ldr	r7, [sp, #24]
 800595e:	2000      	movs	r0, #0
 8005960:	90a5      	str	r0, [sp, #660]	; 0x294
 8005962:	97a4      	str	r7, [sp, #656]	; 0x290
 8005964:	9ea4      	ldr	r6, [sp, #656]	; 0x290
 8005966:	9fa5      	ldr	r7, [sp, #660]	; 0x294
 8005968:	98a2      	ldr	r0, [sp, #648]	; 0x288
 800596a:	99a3      	ldr	r1, [sp, #652]	; 0x28c
 800596c:	1980      	adds	r0, r0, r6
 800596e:	4179      	adcs	r1, r7
 8005970:	2796      	movs	r7, #150	; 0x96
 8005972:	013f      	lsls	r7, r7, #4
 8005974:	446f      	add	r7, sp
 8005976:	6038      	str	r0, [r7, #0]
 8005978:	9f08      	ldr	r7, [sp, #32]
 800597a:	17ce      	asrs	r6, r1, #31
 800597c:	2000      	movs	r0, #0
 800597e:	96a7      	str	r6, [sp, #668]	; 0x29c
 8005980:	90a9      	str	r0, [sp, #676]	; 0x2a4
 8005982:	91a6      	str	r1, [sp, #664]	; 0x298
 8005984:	97a8      	str	r7, [sp, #672]	; 0x2a0
 8005986:	9ea8      	ldr	r6, [sp, #672]	; 0x2a0
 8005988:	9fa9      	ldr	r7, [sp, #676]	; 0x2a4
 800598a:	98a6      	ldr	r0, [sp, #664]	; 0x298
 800598c:	99a7      	ldr	r1, [sp, #668]	; 0x29c
 800598e:	1980      	adds	r0, r0, r6
 8005990:	4179      	adcs	r1, r7
 8005992:	4f57      	ldr	r7, [pc, #348]	; (8005af0 <ge25519_scalarmult_base+0x15e0>)
 8005994:	17ce      	asrs	r6, r1, #31
 8005996:	446f      	add	r7, sp
 8005998:	6038      	str	r0, [r7, #0]
 800599a:	9f00      	ldr	r7, [sp, #0]
 800599c:	2000      	movs	r0, #0
 800599e:	91aa      	str	r1, [sp, #680]	; 0x2a8
 80059a0:	97ac      	str	r7, [sp, #688]	; 0x2b0
 80059a2:	96ab      	str	r6, [sp, #684]	; 0x2ac
 80059a4:	90ad      	str	r0, [sp, #692]	; 0x2b4
 80059a6:	98ac      	ldr	r0, [sp, #688]	; 0x2b0
 80059a8:	99ad      	ldr	r1, [sp, #692]	; 0x2b4
 80059aa:	9eaa      	ldr	r6, [sp, #680]	; 0x2a8
 80059ac:	9fab      	ldr	r7, [sp, #684]	; 0x2ac
 80059ae:	1836      	adds	r6, r6, r0
 80059b0:	414f      	adcs	r7, r1
 80059b2:	4950      	ldr	r1, [pc, #320]	; (8005af4 <ge25519_scalarmult_base+0x15e4>)
 80059b4:	17f8      	asrs	r0, r7, #31
 80059b6:	4469      	add	r1, sp
 80059b8:	600e      	str	r6, [r1, #0]
 80059ba:	2100      	movs	r1, #0
 80059bc:	97ae      	str	r7, [sp, #696]	; 0x2b8
 80059be:	90af      	str	r0, [sp, #700]	; 0x2bc
 80059c0:	94b0      	str	r4, [sp, #704]	; 0x2c0
 80059c2:	91b1      	str	r1, [sp, #708]	; 0x2c4
 80059c4:	9eb0      	ldr	r6, [sp, #704]	; 0x2c0
 80059c6:	9fb1      	ldr	r7, [sp, #708]	; 0x2c4
 80059c8:	9cae      	ldr	r4, [sp, #696]	; 0x2b8
 80059ca:	9daf      	ldr	r5, [sp, #700]	; 0x2bc
 80059cc:	2326      	movs	r3, #38	; 0x26
 80059ce:	19a4      	adds	r4, r4, r6
 80059d0:	417d      	adcs	r5, r7
 80059d2:	436b      	muls	r3, r5
 80059d4:	2095      	movs	r0, #149	; 0x95
 80059d6:	4f48      	ldr	r7, [pc, #288]	; (8005af8 <ge25519_scalarmult_base+0x15e8>)
 80059d8:	0100      	lsls	r0, r0, #4
 80059da:	189a      	adds	r2, r3, r2
 80059dc:	4468      	add	r0, sp
 80059de:	6002      	str	r2, [r0, #0]
 80059e0:	446f      	add	r7, sp
 80059e2:	25eb      	movs	r5, #235	; 0xeb
 80059e4:	4e45      	ldr	r6, [pc, #276]	; (8005afc <ge25519_scalarmult_base+0x15ec>)
 80059e6:	20ec      	movs	r0, #236	; 0xec
 80059e8:	4a45      	ldr	r2, [pc, #276]	; (8005b00 <ge25519_scalarmult_base+0x15f0>)
 80059ea:	603c      	str	r4, [r7, #0]
 80059ec:	00ed      	lsls	r5, r5, #3
 80059ee:	9cbc      	ldr	r4, [sp, #752]	; 0x2f0
 80059f0:	9f14      	ldr	r7, [sp, #80]	; 0x50
 80059f2:	00c0      	lsls	r0, r0, #3
 80059f4:	446d      	add	r5, sp
 80059f6:	4468      	add	r0, sp
 80059f8:	446e      	add	r6, sp
 80059fa:	446a      	add	r2, sp
 80059fc:	602c      	str	r4, [r5, #0]
 80059fe:	6031      	str	r1, [r6, #0]
 8005a00:	6007      	str	r7, [r0, #0]
 8005a02:	6011      	str	r1, [r2, #0]
 8005a04:	6803      	ldr	r3, [r0, #0]
 8005a06:	6844      	ldr	r4, [r0, #4]
 8005a08:	682e      	ldr	r6, [r5, #0]
 8005a0a:	686f      	ldr	r7, [r5, #4]
 8005a0c:	483d      	ldr	r0, [pc, #244]	; (8005b04 <ge25519_scalarmult_base+0x15f4>)
 8005a0e:	25ed      	movs	r5, #237	; 0xed
 8005a10:	18f6      	adds	r6, r6, r3
 8005a12:	4167      	adcs	r7, r4
 8005a14:	00ed      	lsls	r5, r5, #3
 8005a16:	9c16      	ldr	r4, [sp, #88]	; 0x58
 8005a18:	22ed      	movs	r2, #237	; 0xed
 8005a1a:	446d      	add	r5, sp
 8005a1c:	4468      	add	r0, sp
 8005a1e:	00d2      	lsls	r2, r2, #3
 8005a20:	6001      	str	r1, [r0, #0]
 8005a22:	602c      	str	r4, [r5, #0]
 8005a24:	446a      	add	r2, sp
 8005a26:	978a      	str	r7, [sp, #552]	; 0x228
 8005a28:	918b      	str	r1, [sp, #556]	; 0x22c
 8005a2a:	9c20      	ldr	r4, [sp, #128]	; 0x80
 8005a2c:	9d21      	ldr	r5, [sp, #132]	; 0x84
 8005a2e:	6811      	ldr	r1, [r2, #0]
 8005a30:	6852      	ldr	r2, [r2, #4]
 8005a32:	1864      	adds	r4, r4, r1
 8005a34:	4155      	adcs	r5, r2
 8005a36:	988a      	ldr	r0, [sp, #552]	; 0x228
 8005a38:	998b      	ldr	r1, [sp, #556]	; 0x22c
 8005a3a:	1824      	adds	r4, r4, r0
 8005a3c:	414d      	adcs	r5, r1
 8005a3e:	4832      	ldr	r0, [pc, #200]	; (8005b08 <ge25519_scalarmult_base+0x15f8>)
 8005a40:	2100      	movs	r1, #0
 8005a42:	4468      	add	r0, sp
 8005a44:	23ee      	movs	r3, #238	; 0xee
 8005a46:	6001      	str	r1, [r0, #0]
 8005a48:	918d      	str	r1, [sp, #564]	; 0x234
 8005a4a:	9a18      	ldr	r2, [sp, #96]	; 0x60
 8005a4c:	00db      	lsls	r3, r3, #3
 8005a4e:	21ee      	movs	r1, #238	; 0xee
 8005a50:	446b      	add	r3, sp
 8005a52:	00c9      	lsls	r1, r1, #3
 8005a54:	601a      	str	r2, [r3, #0]
 8005a56:	4469      	add	r1, sp
 8005a58:	958c      	str	r5, [sp, #560]	; 0x230
 8005a5a:	6808      	ldr	r0, [r1, #0]
 8005a5c:	6849      	ldr	r1, [r1, #4]
 8005a5e:	9a22      	ldr	r2, [sp, #136]	; 0x88
 8005a60:	9b23      	ldr	r3, [sp, #140]	; 0x8c
 8005a62:	1812      	adds	r2, r2, r0
 8005a64:	414b      	adcs	r3, r1
 8005a66:	988c      	ldr	r0, [sp, #560]	; 0x230
 8005a68:	998d      	ldr	r1, [sp, #564]	; 0x234
 8005a6a:	1880      	adds	r0, r0, r2
 8005a6c:	4159      	adcs	r1, r3
 8005a6e:	9002      	str	r0, [sp, #8]
 8005a70:	9103      	str	r1, [sp, #12]
 8005a72:	4826      	ldr	r0, [pc, #152]	; (8005b0c <ge25519_scalarmult_base+0x15fc>)
 8005a74:	918e      	str	r1, [sp, #568]	; 0x238
 8005a76:	4468      	add	r0, sp
 8005a78:	2100      	movs	r1, #0
 8005a7a:	23ef      	movs	r3, #239	; 0xef
 8005a7c:	918f      	str	r1, [sp, #572]	; 0x23c
 8005a7e:	9a1a      	ldr	r2, [sp, #104]	; 0x68
 8005a80:	6001      	str	r1, [r0, #0]
 8005a82:	00db      	lsls	r3, r3, #3
 8005a84:	21ef      	movs	r1, #239	; 0xef
 8005a86:	446b      	add	r3, sp
 8005a88:	00c9      	lsls	r1, r1, #3
 8005a8a:	601a      	str	r2, [r3, #0]
 8005a8c:	4469      	add	r1, sp
 8005a8e:	6808      	ldr	r0, [r1, #0]
 8005a90:	6849      	ldr	r1, [r1, #4]
 8005a92:	9a24      	ldr	r2, [sp, #144]	; 0x90
 8005a94:	9b25      	ldr	r3, [sp, #148]	; 0x94
 8005a96:	1812      	adds	r2, r2, r0
 8005a98:	414b      	adcs	r3, r1
 8005a9a:	988e      	ldr	r0, [sp, #568]	; 0x238
 8005a9c:	998f      	ldr	r1, [sp, #572]	; 0x23c
 8005a9e:	1880      	adds	r0, r0, r2
 8005aa0:	4159      	adcs	r1, r3
 8005aa2:	900c      	str	r0, [sp, #48]	; 0x30
 8005aa4:	910d      	str	r1, [sp, #52]	; 0x34
 8005aa6:	23f0      	movs	r3, #240	; 0xf0
 8005aa8:	4819      	ldr	r0, [pc, #100]	; (8005b10 <ge25519_scalarmult_base+0x1600>)
 8005aaa:	9a1c      	ldr	r2, [sp, #112]	; 0x70
 8005aac:	00db      	lsls	r3, r3, #3
 8005aae:	9190      	str	r1, [sp, #576]	; 0x240
 8005ab0:	446b      	add	r3, sp
 8005ab2:	2100      	movs	r1, #0
 8005ab4:	4468      	add	r0, sp
 8005ab6:	9191      	str	r1, [sp, #580]	; 0x244
 8005ab8:	601a      	str	r2, [r3, #0]
 8005aba:	6001      	str	r1, [r0, #0]
 8005abc:	21f0      	movs	r1, #240	; 0xf0
 8005abe:	00c9      	lsls	r1, r1, #3
 8005ac0:	4469      	add	r1, sp
 8005ac2:	e027      	b.n	8005b14 <ge25519_scalarmult_base+0x1604>
 8005ac4:	0000071c 	.word	0x0000071c
 8005ac8:	00000724 	.word	0x00000724
 8005acc:	0000072c 	.word	0x0000072c
 8005ad0:	00000734 	.word	0x00000734
 8005ad4:	0000073c 	.word	0x0000073c
 8005ad8:	00000744 	.word	0x00000744
 8005adc:	0000074c 	.word	0x0000074c
 8005ae0:	00000754 	.word	0x00000754
 8005ae4:	00000954 	.word	0x00000954
 8005ae8:	00000958 	.word	0x00000958
 8005aec:	0000095c 	.word	0x0000095c
 8005af0:	00000964 	.word	0x00000964
 8005af4:	00000968 	.word	0x00000968
 8005af8:	0000096c 	.word	0x0000096c
 8005afc:	0000075c 	.word	0x0000075c
 8005b00:	00000764 	.word	0x00000764
 8005b04:	0000076c 	.word	0x0000076c
 8005b08:	00000774 	.word	0x00000774
 8005b0c:	0000077c 	.word	0x0000077c
 8005b10:	00000784 	.word	0x00000784
 8005b14:	6808      	ldr	r0, [r1, #0]
 8005b16:	6849      	ldr	r1, [r1, #4]
 8005b18:	9a26      	ldr	r2, [sp, #152]	; 0x98
 8005b1a:	9b27      	ldr	r3, [sp, #156]	; 0x9c
 8005b1c:	1812      	adds	r2, r2, r0
 8005b1e:	414b      	adcs	r3, r1
 8005b20:	9890      	ldr	r0, [sp, #576]	; 0x240
 8005b22:	9991      	ldr	r1, [sp, #580]	; 0x244
 8005b24:	1880      	adds	r0, r0, r2
 8005b26:	4159      	adcs	r1, r3
 8005b28:	9004      	str	r0, [sp, #16]
 8005b2a:	9105      	str	r1, [sp, #20]
 8005b2c:	48e9      	ldr	r0, [pc, #932]	; (8005ed4 <ge25519_scalarmult_base+0x19c4>)
 8005b2e:	9192      	str	r1, [sp, #584]	; 0x248
 8005b30:	4468      	add	r0, sp
 8005b32:	2100      	movs	r1, #0
 8005b34:	23f1      	movs	r3, #241	; 0xf1
 8005b36:	6001      	str	r1, [r0, #0]
 8005b38:	9193      	str	r1, [sp, #588]	; 0x24c
 8005b3a:	9abd      	ldr	r2, [sp, #756]	; 0x2f4
 8005b3c:	00db      	lsls	r3, r3, #3
 8005b3e:	21f1      	movs	r1, #241	; 0xf1
 8005b40:	446b      	add	r3, sp
 8005b42:	00c9      	lsls	r1, r1, #3
 8005b44:	601a      	str	r2, [r3, #0]
 8005b46:	4469      	add	r1, sp
 8005b48:	6808      	ldr	r0, [r1, #0]
 8005b4a:	6849      	ldr	r1, [r1, #4]
 8005b4c:	9a28      	ldr	r2, [sp, #160]	; 0xa0
 8005b4e:	9b29      	ldr	r3, [sp, #164]	; 0xa4
 8005b50:	1812      	adds	r2, r2, r0
 8005b52:	414b      	adcs	r3, r1
 8005b54:	9892      	ldr	r0, [sp, #584]	; 0x248
 8005b56:	9993      	ldr	r1, [sp, #588]	; 0x24c
 8005b58:	1880      	adds	r0, r0, r2
 8005b5a:	4159      	adcs	r1, r3
 8005b5c:	9006      	str	r0, [sp, #24]
 8005b5e:	9107      	str	r1, [sp, #28]
 8005b60:	48dd      	ldr	r0, [pc, #884]	; (8005ed8 <ge25519_scalarmult_base+0x19c8>)
 8005b62:	9194      	str	r1, [sp, #592]	; 0x250
 8005b64:	4468      	add	r0, sp
 8005b66:	2100      	movs	r1, #0
 8005b68:	23f2      	movs	r3, #242	; 0xf2
 8005b6a:	6001      	str	r1, [r0, #0]
 8005b6c:	9195      	str	r1, [sp, #596]	; 0x254
 8005b6e:	00db      	lsls	r3, r3, #3
 8005b70:	21f2      	movs	r1, #242	; 0xf2
 8005b72:	464a      	mov	r2, r9
 8005b74:	446b      	add	r3, sp
 8005b76:	00c9      	lsls	r1, r1, #3
 8005b78:	601a      	str	r2, [r3, #0]
 8005b7a:	4469      	add	r1, sp
 8005b7c:	6808      	ldr	r0, [r1, #0]
 8005b7e:	6849      	ldr	r1, [r1, #4]
 8005b80:	9a2a      	ldr	r2, [sp, #168]	; 0xa8
 8005b82:	9b2b      	ldr	r3, [sp, #172]	; 0xac
 8005b84:	1812      	adds	r2, r2, r0
 8005b86:	414b      	adcs	r3, r1
 8005b88:	9894      	ldr	r0, [sp, #592]	; 0x250
 8005b8a:	9995      	ldr	r1, [sp, #596]	; 0x254
 8005b8c:	1880      	adds	r0, r0, r2
 8005b8e:	4159      	adcs	r1, r3
 8005b90:	9008      	str	r0, [sp, #32]
 8005b92:	9109      	str	r1, [sp, #36]	; 0x24
 8005b94:	48d1      	ldr	r0, [pc, #836]	; (8005edc <ge25519_scalarmult_base+0x19cc>)
 8005b96:	9196      	str	r1, [sp, #600]	; 0x258
 8005b98:	4468      	add	r0, sp
 8005b9a:	2100      	movs	r1, #0
 8005b9c:	23f3      	movs	r3, #243	; 0xf3
 8005b9e:	9a0a      	ldr	r2, [sp, #40]	; 0x28
 8005ba0:	9197      	str	r1, [sp, #604]	; 0x25c
 8005ba2:	6001      	str	r1, [r0, #0]
 8005ba4:	00db      	lsls	r3, r3, #3
 8005ba6:	21f3      	movs	r1, #243	; 0xf3
 8005ba8:	446b      	add	r3, sp
 8005baa:	00c9      	lsls	r1, r1, #3
 8005bac:	601a      	str	r2, [r3, #0]
 8005bae:	4469      	add	r1, sp
 8005bb0:	6808      	ldr	r0, [r1, #0]
 8005bb2:	6849      	ldr	r1, [r1, #4]
 8005bb4:	9a2c      	ldr	r2, [sp, #176]	; 0xb0
 8005bb6:	9b2d      	ldr	r3, [sp, #180]	; 0xb4
 8005bb8:	1812      	adds	r2, r2, r0
 8005bba:	414b      	adcs	r3, r1
 8005bbc:	9896      	ldr	r0, [sp, #600]	; 0x258
 8005bbe:	9997      	ldr	r1, [sp, #604]	; 0x25c
 8005bc0:	1880      	adds	r0, r0, r2
 8005bc2:	4159      	adcs	r1, r3
 8005bc4:	900a      	str	r0, [sp, #40]	; 0x28
 8005bc6:	910b      	str	r1, [sp, #44]	; 0x2c
 8005bc8:	2226      	movs	r2, #38	; 0x26
 8005bca:	2300      	movs	r3, #0
 8005bcc:	980b      	ldr	r0, [sp, #44]	; 0x2c
 8005bce:	2100      	movs	r1, #0
 8005bd0:	f7fa fb26 	bl	8000220 <__aeabi_lmul>
 8005bd4:	22f4      	movs	r2, #244	; 0xf4
 8005bd6:	00d2      	lsls	r2, r2, #3
 8005bd8:	446a      	add	r2, sp
 8005bda:	6016      	str	r6, [r2, #0]
 8005bdc:	4ec0      	ldr	r6, [pc, #768]	; (8005ee0 <ge25519_scalarmult_base+0x19d0>)
 8005bde:	2300      	movs	r3, #0
 8005be0:	446e      	add	r6, sp
 8005be2:	6033      	str	r3, [r6, #0]
 8005be4:	6853      	ldr	r3, [r2, #4]
 8005be6:	6812      	ldr	r2, [r2, #0]
 8005be8:	1812      	adds	r2, r2, r0
 8005bea:	414b      	adcs	r3, r1
 8005bec:	21f5      	movs	r1, #245	; 0xf5
 8005bee:	00c9      	lsls	r1, r1, #3
 8005bf0:	4469      	add	r1, sp
 8005bf2:	600c      	str	r4, [r1, #0]
 8005bf4:	4cbb      	ldr	r4, [pc, #748]	; (8005ee4 <ge25519_scalarmult_base+0x19d4>)
 8005bf6:	2000      	movs	r0, #0
 8005bf8:	446c      	add	r4, sp
 8005bfa:	6020      	str	r0, [r4, #0]
 8005bfc:	9360      	str	r3, [sp, #384]	; 0x180
 8005bfe:	9061      	str	r0, [sp, #388]	; 0x184
 8005c00:	680e      	ldr	r6, [r1, #0]
 8005c02:	684f      	ldr	r7, [r1, #4]
 8005c04:	9c60      	ldr	r4, [sp, #384]	; 0x180
 8005c06:	9d61      	ldr	r5, [sp, #388]	; 0x184
 8005c08:	48b7      	ldr	r0, [pc, #732]	; (8005ee8 <ge25519_scalarmult_base+0x19d8>)
 8005c0a:	19a4      	adds	r4, r4, r6
 8005c0c:	417d      	adcs	r5, r7
 8005c0e:	4eb7      	ldr	r6, [pc, #732]	; (8005eec <ge25519_scalarmult_base+0x19dc>)
 8005c10:	9562      	str	r5, [sp, #392]	; 0x188
 8005c12:	2100      	movs	r1, #0
 8005c14:	4468      	add	r0, sp
 8005c16:	446e      	add	r6, sp
 8005c18:	25f6      	movs	r5, #246	; 0xf6
 8005c1a:	6031      	str	r1, [r6, #0]
 8005c1c:	6004      	str	r4, [r0, #0]
 8005c1e:	9163      	str	r1, [sp, #396]	; 0x18c
 8005c20:	9c02      	ldr	r4, [sp, #8]
 8005c22:	00ed      	lsls	r5, r5, #3
 8005c24:	21f6      	movs	r1, #246	; 0xf6
 8005c26:	446d      	add	r5, sp
 8005c28:	00c9      	lsls	r1, r1, #3
 8005c2a:	4eb1      	ldr	r6, [pc, #708]	; (8005ef0 <ge25519_scalarmult_base+0x19e0>)
 8005c2c:	602c      	str	r4, [r5, #0]
 8005c2e:	4469      	add	r1, sp
 8005c30:	6808      	ldr	r0, [r1, #0]
 8005c32:	6849      	ldr	r1, [r1, #4]
 8005c34:	9c62      	ldr	r4, [sp, #392]	; 0x188
 8005c36:	9d63      	ldr	r5, [sp, #396]	; 0x18c
 8005c38:	446e      	add	r6, sp
 8005c3a:	1824      	adds	r4, r4, r0
 8005c3c:	414d      	adcs	r5, r1
 8005c3e:	6034      	str	r4, [r6, #0]
 8005c40:	21f7      	movs	r1, #247	; 0xf7
 8005c42:	4cac      	ldr	r4, [pc, #688]	; (8005ef4 <ge25519_scalarmult_base+0x19e4>)
 8005c44:	980c      	ldr	r0, [sp, #48]	; 0x30
 8005c46:	00c9      	lsls	r1, r1, #3
 8005c48:	2700      	movs	r7, #0
 8005c4a:	4469      	add	r1, sp
 8005c4c:	446c      	add	r4, sp
 8005c4e:	6008      	str	r0, [r1, #0]
 8005c50:	6027      	str	r7, [r4, #0]
 8005c52:	9765      	str	r7, [sp, #404]	; 0x194
 8005c54:	9564      	str	r5, [sp, #400]	; 0x190
 8005c56:	680e      	ldr	r6, [r1, #0]
 8005c58:	684f      	ldr	r7, [r1, #4]
 8005c5a:	9c64      	ldr	r4, [sp, #400]	; 0x190
 8005c5c:	9d65      	ldr	r5, [sp, #404]	; 0x194
 8005c5e:	48a6      	ldr	r0, [pc, #664]	; (8005ef8 <ge25519_scalarmult_base+0x19e8>)
 8005c60:	19a4      	adds	r4, r4, r6
 8005c62:	417d      	adcs	r5, r7
 8005c64:	4ea5      	ldr	r6, [pc, #660]	; (8005efc <ge25519_scalarmult_base+0x19ec>)
 8005c66:	9566      	str	r5, [sp, #408]	; 0x198
 8005c68:	2100      	movs	r1, #0
 8005c6a:	4468      	add	r0, sp
 8005c6c:	446e      	add	r6, sp
 8005c6e:	25f8      	movs	r5, #248	; 0xf8
 8005c70:	6031      	str	r1, [r6, #0]
 8005c72:	6004      	str	r4, [r0, #0]
 8005c74:	9167      	str	r1, [sp, #412]	; 0x19c
 8005c76:	9c04      	ldr	r4, [sp, #16]
 8005c78:	00ed      	lsls	r5, r5, #3
 8005c7a:	21f8      	movs	r1, #248	; 0xf8
 8005c7c:	446d      	add	r5, sp
 8005c7e:	00c9      	lsls	r1, r1, #3
 8005c80:	2698      	movs	r6, #152	; 0x98
 8005c82:	602c      	str	r4, [r5, #0]
 8005c84:	4469      	add	r1, sp
 8005c86:	0136      	lsls	r6, r6, #4
 8005c88:	6808      	ldr	r0, [r1, #0]
 8005c8a:	6849      	ldr	r1, [r1, #4]
 8005c8c:	9c66      	ldr	r4, [sp, #408]	; 0x198
 8005c8e:	9d67      	ldr	r5, [sp, #412]	; 0x19c
 8005c90:	446e      	add	r6, sp
 8005c92:	1824      	adds	r4, r4, r0
 8005c94:	414d      	adcs	r5, r1
 8005c96:	6034      	str	r4, [r6, #0]
 8005c98:	21f9      	movs	r1, #249	; 0xf9
 8005c9a:	4c99      	ldr	r4, [pc, #612]	; (8005f00 <ge25519_scalarmult_base+0x19f0>)
 8005c9c:	9806      	ldr	r0, [sp, #24]
 8005c9e:	00c9      	lsls	r1, r1, #3
 8005ca0:	2700      	movs	r7, #0
 8005ca2:	4469      	add	r1, sp
 8005ca4:	446c      	add	r4, sp
 8005ca6:	6008      	str	r0, [r1, #0]
 8005ca8:	9769      	str	r7, [sp, #420]	; 0x1a4
 8005caa:	6027      	str	r7, [r4, #0]
 8005cac:	9568      	str	r5, [sp, #416]	; 0x1a0
 8005cae:	680e      	ldr	r6, [r1, #0]
 8005cb0:	684f      	ldr	r7, [r1, #4]
 8005cb2:	9c68      	ldr	r4, [sp, #416]	; 0x1a0
 8005cb4:	9d69      	ldr	r5, [sp, #420]	; 0x1a4
 8005cb6:	4893      	ldr	r0, [pc, #588]	; (8005f04 <ge25519_scalarmult_base+0x19f4>)
 8005cb8:	19a4      	adds	r4, r4, r6
 8005cba:	417d      	adcs	r5, r7
 8005cbc:	4e92      	ldr	r6, [pc, #584]	; (8005f08 <ge25519_scalarmult_base+0x19f8>)
 8005cbe:	956a      	str	r5, [sp, #424]	; 0x1a8
 8005cc0:	2100      	movs	r1, #0
 8005cc2:	4468      	add	r0, sp
 8005cc4:	446e      	add	r6, sp
 8005cc6:	25fa      	movs	r5, #250	; 0xfa
 8005cc8:	6031      	str	r1, [r6, #0]
 8005cca:	6004      	str	r4, [r0, #0]
 8005ccc:	916b      	str	r1, [sp, #428]	; 0x1ac
 8005cce:	9c08      	ldr	r4, [sp, #32]
 8005cd0:	00ed      	lsls	r5, r5, #3
 8005cd2:	21fa      	movs	r1, #250	; 0xfa
 8005cd4:	446d      	add	r5, sp
 8005cd6:	00c9      	lsls	r1, r1, #3
 8005cd8:	4e8c      	ldr	r6, [pc, #560]	; (8005f0c <ge25519_scalarmult_base+0x19fc>)
 8005cda:	602c      	str	r4, [r5, #0]
 8005cdc:	4469      	add	r1, sp
 8005cde:	6808      	ldr	r0, [r1, #0]
 8005ce0:	6849      	ldr	r1, [r1, #4]
 8005ce2:	9c6a      	ldr	r4, [sp, #424]	; 0x1a8
 8005ce4:	9d6b      	ldr	r5, [sp, #428]	; 0x1ac
 8005ce6:	446e      	add	r6, sp
 8005ce8:	1824      	adds	r4, r4, r0
 8005cea:	414d      	adcs	r5, r1
 8005cec:	6034      	str	r4, [r6, #0]
 8005cee:	4c88      	ldr	r4, [pc, #544]	; (8005f10 <ge25519_scalarmult_base+0x1a00>)
 8005cf0:	2700      	movs	r7, #0
 8005cf2:	21fb      	movs	r1, #251	; 0xfb
 8005cf4:	956c      	str	r5, [sp, #432]	; 0x1b0
 8005cf6:	446c      	add	r4, sp
 8005cf8:	976d      	str	r7, [sp, #436]	; 0x1b4
 8005cfa:	00c9      	lsls	r1, r1, #3
 8005cfc:	980a      	ldr	r0, [sp, #40]	; 0x28
 8005cfe:	26fb      	movs	r6, #251	; 0xfb
 8005d00:	6027      	str	r7, [r4, #0]
 8005d02:	4469      	add	r1, sp
 8005d04:	00f6      	lsls	r6, r6, #3
 8005d06:	4f83      	ldr	r7, [pc, #524]	; (8005f14 <ge25519_scalarmult_base+0x1a04>)
 8005d08:	6008      	str	r0, [r1, #0]
 8005d0a:	446e      	add	r6, sp
 8005d0c:	6835      	ldr	r5, [r6, #0]
 8005d0e:	6876      	ldr	r6, [r6, #4]
 8005d10:	986c      	ldr	r0, [sp, #432]	; 0x1b0
 8005d12:	996d      	ldr	r1, [sp, #436]	; 0x1b4
 8005d14:	446f      	add	r7, sp
 8005d16:	1940      	adds	r0, r0, r5
 8005d18:	4171      	adcs	r1, r6
 8005d1a:	6038      	str	r0, [r7, #0]
 8005d1c:	4f7e      	ldr	r7, [pc, #504]	; (8005f18 <ge25519_scalarmult_base+0x1a08>)
 8005d1e:	2600      	movs	r6, #0
 8005d20:	446f      	add	r7, sp
 8005d22:	25fc      	movs	r5, #252	; 0xfc
 8005d24:	603e      	str	r6, [r7, #0]
 8005d26:	9cdd      	ldr	r4, [sp, #884]	; 0x374
 8005d28:	00ed      	lsls	r5, r5, #3
 8005d2a:	4f7c      	ldr	r7, [pc, #496]	; (8005f1c <ge25519_scalarmult_base+0x1a0c>)
 8005d2c:	446d      	add	r5, sp
 8005d2e:	602c      	str	r4, [r5, #0]
 8005d30:	446f      	add	r7, sp
 8005d32:	25fd      	movs	r5, #253	; 0xfd
 8005d34:	603e      	str	r6, [r7, #0]
 8005d36:	9cdc      	ldr	r4, [sp, #880]	; 0x370
 8005d38:	2326      	movs	r3, #38	; 0x26
 8005d3a:	00ed      	lsls	r5, r5, #3
 8005d3c:	27fc      	movs	r7, #252	; 0xfc
 8005d3e:	26fd      	movs	r6, #253	; 0xfd
 8005d40:	434b      	muls	r3, r1
 8005d42:	446d      	add	r5, sp
 8005d44:	00ff      	lsls	r7, r7, #3
 8005d46:	00f6      	lsls	r6, r6, #3
 8005d48:	602c      	str	r4, [r5, #0]
 8005d4a:	446f      	add	r7, sp
 8005d4c:	446e      	add	r6, sp
 8005d4e:	683c      	ldr	r4, [r7, #0]
 8005d50:	687d      	ldr	r5, [r7, #4]
 8005d52:	2097      	movs	r0, #151	; 0x97
 8005d54:	6877      	ldr	r7, [r6, #4]
 8005d56:	6836      	ldr	r6, [r6, #0]
 8005d58:	19a4      	adds	r4, r4, r6
 8005d5a:	417d      	adcs	r5, r7
 8005d5c:	9402      	str	r4, [sp, #8]
 8005d5e:	9503      	str	r5, [sp, #12]
 8005d60:	957c      	str	r5, [sp, #496]	; 0x1f0
 8005d62:	0100      	lsls	r0, r0, #4
 8005d64:	25fe      	movs	r5, #254	; 0xfe
 8005d66:	4e6e      	ldr	r6, [pc, #440]	; (8005f20 <ge25519_scalarmult_base+0x1a10>)
 8005d68:	189a      	adds	r2, r3, r2
 8005d6a:	9ce1      	ldr	r4, [sp, #900]	; 0x384
 8005d6c:	4468      	add	r0, sp
 8005d6e:	00ed      	lsls	r5, r5, #3
 8005d70:	6002      	str	r2, [r0, #0]
 8005d72:	2700      	movs	r7, #0
 8005d74:	446d      	add	r5, sp
 8005d76:	446e      	add	r6, sp
 8005d78:	20ff      	movs	r0, #255	; 0xff
 8005d7a:	4a6a      	ldr	r2, [pc, #424]	; (8005f24 <ge25519_scalarmult_base+0x1a14>)
 8005d7c:	602c      	str	r4, [r5, #0]
 8005d7e:	6037      	str	r7, [r6, #0]
 8005d80:	977d      	str	r7, [sp, #500]	; 0x1f4
 8005d82:	00c0      	lsls	r0, r0, #3
 8005d84:	9fe0      	ldr	r7, [sp, #896]	; 0x380
 8005d86:	25fe      	movs	r5, #254	; 0xfe
 8005d88:	2100      	movs	r1, #0
 8005d8a:	4468      	add	r0, sp
 8005d8c:	446a      	add	r2, sp
 8005d8e:	00ed      	lsls	r5, r5, #3
 8005d90:	6007      	str	r7, [r0, #0]
 8005d92:	6011      	str	r1, [r2, #0]
 8005d94:	446d      	add	r5, sp
 8005d96:	682a      	ldr	r2, [r5, #0]
 8005d98:	686b      	ldr	r3, [r5, #4]
 8005d9a:	6804      	ldr	r4, [r0, #0]
 8005d9c:	6845      	ldr	r5, [r0, #4]
 8005d9e:	1912      	adds	r2, r2, r4
 8005da0:	416b      	adcs	r3, r5
 8005da2:	2780      	movs	r7, #128	; 0x80
 8005da4:	9d7c      	ldr	r5, [sp, #496]	; 0x1f0
 8005da6:	9e7d      	ldr	r6, [sp, #500]	; 0x1f4
 8005da8:	18ad      	adds	r5, r5, r2
 8005daa:	415e      	adcs	r6, r3
 8005dac:	950c      	str	r5, [sp, #48]	; 0x30
 8005dae:	960d      	str	r6, [sp, #52]	; 0x34
 8005db0:	967e      	str	r6, [sp, #504]	; 0x1f8
 8005db2:	013f      	lsls	r7, r7, #4
 8005db4:	9ee5      	ldr	r6, [sp, #916]	; 0x394
 8005db6:	446f      	add	r7, sp
 8005db8:	603e      	str	r6, [r7, #0]
 8005dba:	485b      	ldr	r0, [pc, #364]	; (8005f28 <ge25519_scalarmult_base+0x1a18>)
 8005dbc:	4d5b      	ldr	r5, [pc, #364]	; (8005f2c <ge25519_scalarmult_base+0x1a1c>)
 8005dbe:	4e5c      	ldr	r6, [pc, #368]	; (8005f30 <ge25519_scalarmult_base+0x1a20>)
 8005dc0:	9ce4      	ldr	r4, [sp, #912]	; 0x390
 8005dc2:	446d      	add	r5, sp
 8005dc4:	4468      	add	r0, sp
 8005dc6:	446e      	add	r6, sp
 8005dc8:	917f      	str	r1, [sp, #508]	; 0x1fc
 8005dca:	6001      	str	r1, [r0, #0]
 8005dcc:	602c      	str	r4, [r5, #0]
 8005dce:	6031      	str	r1, [r6, #0]
 8005dd0:	6828      	ldr	r0, [r5, #0]
 8005dd2:	6869      	ldr	r1, [r5, #4]
 8005dd4:	683a      	ldr	r2, [r7, #0]
 8005dd6:	687b      	ldr	r3, [r7, #4]
 8005dd8:	2781      	movs	r7, #129	; 0x81
 8005dda:	1812      	adds	r2, r2, r0
 8005ddc:	414b      	adcs	r3, r1
 8005dde:	4855      	ldr	r0, [pc, #340]	; (8005f34 <ge25519_scalarmult_base+0x1a24>)
 8005de0:	9ee9      	ldr	r6, [sp, #932]	; 0x3a4
 8005de2:	9c7e      	ldr	r4, [sp, #504]	; 0x1f8
 8005de4:	9d7f      	ldr	r5, [sp, #508]	; 0x1fc
 8005de6:	013f      	lsls	r7, r7, #4
 8005de8:	18a4      	adds	r4, r4, r2
 8005dea:	415d      	adcs	r5, r3
 8005dec:	9404      	str	r4, [sp, #16]
 8005dee:	9505      	str	r5, [sp, #20]
 8005df0:	9580      	str	r5, [sp, #512]	; 0x200
 8005df2:	446f      	add	r7, sp
 8005df4:	2500      	movs	r5, #0
 8005df6:	4468      	add	r0, sp
 8005df8:	603e      	str	r6, [r7, #0]
 8005dfa:	6005      	str	r5, [r0, #0]
 8005dfc:	9581      	str	r5, [sp, #516]	; 0x204
 8005dfe:	4f4e      	ldr	r7, [pc, #312]	; (8005f38 <ge25519_scalarmult_base+0x1a28>)
 8005e00:	4d4e      	ldr	r5, [pc, #312]	; (8005f3c <ge25519_scalarmult_base+0x1a2c>)
 8005e02:	9ce8      	ldr	r4, [sp, #928]	; 0x3a0
 8005e04:	2181      	movs	r1, #129	; 0x81
 8005e06:	446d      	add	r5, sp
 8005e08:	2600      	movs	r6, #0
 8005e0a:	446f      	add	r7, sp
 8005e0c:	0109      	lsls	r1, r1, #4
 8005e0e:	602c      	str	r4, [r5, #0]
 8005e10:	603e      	str	r6, [r7, #0]
 8005e12:	4469      	add	r1, sp
 8005e14:	680a      	ldr	r2, [r1, #0]
 8005e16:	684b      	ldr	r3, [r1, #4]
 8005e18:	6828      	ldr	r0, [r5, #0]
 8005e1a:	6869      	ldr	r1, [r5, #4]
 8005e1c:	1812      	adds	r2, r2, r0
 8005e1e:	414b      	adcs	r3, r1
 8005e20:	9683      	str	r6, [sp, #524]	; 0x20c
 8005e22:	9c80      	ldr	r4, [sp, #512]	; 0x200
 8005e24:	9d81      	ldr	r5, [sp, #516]	; 0x204
 8005e26:	2682      	movs	r6, #130	; 0x82
 8005e28:	18a4      	adds	r4, r4, r2
 8005e2a:	415d      	adcs	r5, r3
 8005e2c:	9406      	str	r4, [sp, #24]
 8005e2e:	9507      	str	r5, [sp, #28]
 8005e30:	9582      	str	r5, [sp, #520]	; 0x208
 8005e32:	0136      	lsls	r6, r6, #4
 8005e34:	9ded      	ldr	r5, [sp, #948]	; 0x3b4
 8005e36:	446e      	add	r6, sp
 8005e38:	6035      	str	r5, [r6, #0]
 8005e3a:	4841      	ldr	r0, [pc, #260]	; (8005f40 <ge25519_scalarmult_base+0x1a30>)
 8005e3c:	4d41      	ldr	r5, [pc, #260]	; (8005f44 <ge25519_scalarmult_base+0x1a34>)
 8005e3e:	4e42      	ldr	r6, [pc, #264]	; (8005f48 <ge25519_scalarmult_base+0x1a38>)
 8005e40:	9cec      	ldr	r4, [sp, #944]	; 0x3b0
 8005e42:	2182      	movs	r1, #130	; 0x82
 8005e44:	2700      	movs	r7, #0
 8005e46:	446d      	add	r5, sp
 8005e48:	4468      	add	r0, sp
 8005e4a:	446e      	add	r6, sp
 8005e4c:	0109      	lsls	r1, r1, #4
 8005e4e:	6037      	str	r7, [r6, #0]
 8005e50:	6007      	str	r7, [r0, #0]
 8005e52:	602c      	str	r4, [r5, #0]
 8005e54:	4469      	add	r1, sp
 8005e56:	680a      	ldr	r2, [r1, #0]
 8005e58:	684b      	ldr	r3, [r1, #4]
 8005e5a:	6828      	ldr	r0, [r5, #0]
 8005e5c:	6869      	ldr	r1, [r5, #4]
 8005e5e:	1812      	adds	r2, r2, r0
 8005e60:	414b      	adcs	r3, r1
 8005e62:	9c82      	ldr	r4, [sp, #520]	; 0x208
 8005e64:	9d83      	ldr	r5, [sp, #524]	; 0x20c
 8005e66:	2683      	movs	r6, #131	; 0x83
 8005e68:	18a4      	adds	r4, r4, r2
 8005e6a:	415d      	adcs	r5, r3
 8005e6c:	9408      	str	r4, [sp, #32]
 8005e6e:	9509      	str	r5, [sp, #36]	; 0x24
 8005e70:	9584      	str	r5, [sp, #528]	; 0x210
 8005e72:	0136      	lsls	r6, r6, #4
 8005e74:	9df1      	ldr	r5, [sp, #964]	; 0x3c4
 8005e76:	4835      	ldr	r0, [pc, #212]	; (8005f4c <ge25519_scalarmult_base+0x1a3c>)
 8005e78:	446e      	add	r6, sp
 8005e7a:	6035      	str	r5, [r6, #0]
 8005e7c:	4468      	add	r0, sp
 8005e7e:	4d34      	ldr	r5, [pc, #208]	; (8005f50 <ge25519_scalarmult_base+0x1a40>)
 8005e80:	4e34      	ldr	r6, [pc, #208]	; (8005f54 <ge25519_scalarmult_base+0x1a44>)
 8005e82:	9785      	str	r7, [sp, #532]	; 0x214
 8005e84:	2183      	movs	r1, #131	; 0x83
 8005e86:	6007      	str	r7, [r0, #0]
 8005e88:	9cf0      	ldr	r4, [sp, #960]	; 0x3c0
 8005e8a:	446d      	add	r5, sp
 8005e8c:	446e      	add	r6, sp
 8005e8e:	0109      	lsls	r1, r1, #4
 8005e90:	602c      	str	r4, [r5, #0]
 8005e92:	6037      	str	r7, [r6, #0]
 8005e94:	4469      	add	r1, sp
 8005e96:	680a      	ldr	r2, [r1, #0]
 8005e98:	684b      	ldr	r3, [r1, #4]
 8005e9a:	6828      	ldr	r0, [r5, #0]
 8005e9c:	6869      	ldr	r1, [r5, #4]
 8005e9e:	1812      	adds	r2, r2, r0
 8005ea0:	414b      	adcs	r3, r1
 8005ea2:	9c84      	ldr	r4, [sp, #528]	; 0x210
 8005ea4:	9d85      	ldr	r5, [sp, #532]	; 0x214
 8005ea6:	2684      	movs	r6, #132	; 0x84
 8005ea8:	18a4      	adds	r4, r4, r2
 8005eaa:	415d      	adcs	r5, r3
 8005eac:	940a      	str	r4, [sp, #40]	; 0x28
 8005eae:	950b      	str	r5, [sp, #44]	; 0x2c
 8005eb0:	9586      	str	r5, [sp, #536]	; 0x218
 8005eb2:	0136      	lsls	r6, r6, #4
 8005eb4:	9df5      	ldr	r5, [sp, #980]	; 0x3d4
 8005eb6:	446e      	add	r6, sp
 8005eb8:	6035      	str	r5, [r6, #0]
 8005eba:	4827      	ldr	r0, [pc, #156]	; (8005f58 <ge25519_scalarmult_base+0x1a48>)
 8005ebc:	4d27      	ldr	r5, [pc, #156]	; (8005f5c <ge25519_scalarmult_base+0x1a4c>)
 8005ebe:	4e28      	ldr	r6, [pc, #160]	; (8005f60 <ge25519_scalarmult_base+0x1a50>)
 8005ec0:	9cf4      	ldr	r4, [sp, #976]	; 0x3d0
 8005ec2:	2184      	movs	r1, #132	; 0x84
 8005ec4:	446d      	add	r5, sp
 8005ec6:	4468      	add	r0, sp
 8005ec8:	446e      	add	r6, sp
 8005eca:	0109      	lsls	r1, r1, #4
 8005ecc:	6007      	str	r7, [r0, #0]
 8005ece:	602c      	str	r4, [r5, #0]
 8005ed0:	6037      	str	r7, [r6, #0]
 8005ed2:	e047      	b.n	8005f64 <ge25519_scalarmult_base+0x1a54>
 8005ed4:	0000078c 	.word	0x0000078c
 8005ed8:	00000794 	.word	0x00000794
 8005edc:	0000079c 	.word	0x0000079c
 8005ee0:	000007a4 	.word	0x000007a4
 8005ee4:	000007ac 	.word	0x000007ac
 8005ee8:	00000974 	.word	0x00000974
 8005eec:	000007b4 	.word	0x000007b4
 8005ef0:	00000978 	.word	0x00000978
 8005ef4:	000007bc 	.word	0x000007bc
 8005ef8:	0000097c 	.word	0x0000097c
 8005efc:	000007c4 	.word	0x000007c4
 8005f00:	000007cc 	.word	0x000007cc
 8005f04:	00000984 	.word	0x00000984
 8005f08:	000007d4 	.word	0x000007d4
 8005f0c:	00000988 	.word	0x00000988
 8005f10:	000007dc 	.word	0x000007dc
 8005f14:	0000098c 	.word	0x0000098c
 8005f18:	000007e4 	.word	0x000007e4
 8005f1c:	000007ec 	.word	0x000007ec
 8005f20:	000007f4 	.word	0x000007f4
 8005f24:	000007fc 	.word	0x000007fc
 8005f28:	00000804 	.word	0x00000804
 8005f2c:	00000808 	.word	0x00000808
 8005f30:	0000080c 	.word	0x0000080c
 8005f34:	00000814 	.word	0x00000814
 8005f38:	0000081c 	.word	0x0000081c
 8005f3c:	00000818 	.word	0x00000818
 8005f40:	00000824 	.word	0x00000824
 8005f44:	00000828 	.word	0x00000828
 8005f48:	0000082c 	.word	0x0000082c
 8005f4c:	00000834 	.word	0x00000834
 8005f50:	00000838 	.word	0x00000838
 8005f54:	0000083c 	.word	0x0000083c
 8005f58:	00000844 	.word	0x00000844
 8005f5c:	00000848 	.word	0x00000848
 8005f60:	0000084c 	.word	0x0000084c
 8005f64:	4469      	add	r1, sp
 8005f66:	9787      	str	r7, [sp, #540]	; 0x21c
 8005f68:	680e      	ldr	r6, [r1, #0]
 8005f6a:	684f      	ldr	r7, [r1, #4]
 8005f6c:	6828      	ldr	r0, [r5, #0]
 8005f6e:	6869      	ldr	r1, [r5, #4]
 8005f70:	1836      	adds	r6, r6, r0
 8005f72:	414f      	adcs	r7, r1
 8005f74:	9c86      	ldr	r4, [sp, #536]	; 0x218
 8005f76:	9d87      	ldr	r5, [sp, #540]	; 0x21c
 8005f78:	48f4      	ldr	r0, [pc, #976]	; (800634c <ge25519_scalarmult_base+0x1e3c>)
 8005f7a:	19a4      	adds	r4, r4, r6
 8005f7c:	417d      	adcs	r5, r7
 8005f7e:	2785      	movs	r7, #133	; 0x85
 8005f80:	9ef9      	ldr	r6, [sp, #996]	; 0x3e4
 8005f82:	013f      	lsls	r7, r7, #4
 8005f84:	9410      	str	r4, [sp, #64]	; 0x40
 8005f86:	9511      	str	r5, [sp, #68]	; 0x44
 8005f88:	9588      	str	r5, [sp, #544]	; 0x220
 8005f8a:	446f      	add	r7, sp
 8005f8c:	2500      	movs	r5, #0
 8005f8e:	4468      	add	r0, sp
 8005f90:	603e      	str	r6, [r7, #0]
 8005f92:	6005      	str	r5, [r0, #0]
 8005f94:	9589      	str	r5, [sp, #548]	; 0x224
 8005f96:	4fee      	ldr	r7, [pc, #952]	; (8006350 <ge25519_scalarmult_base+0x1e40>)
 8005f98:	4dee      	ldr	r5, [pc, #952]	; (8006354 <ge25519_scalarmult_base+0x1e44>)
 8005f9a:	9cf8      	ldr	r4, [sp, #992]	; 0x3e0
 8005f9c:	2185      	movs	r1, #133	; 0x85
 8005f9e:	48ed      	ldr	r0, [pc, #948]	; (8006354 <ge25519_scalarmult_base+0x1e44>)
 8005fa0:	446d      	add	r5, sp
 8005fa2:	2600      	movs	r6, #0
 8005fa4:	446f      	add	r7, sp
 8005fa6:	0109      	lsls	r1, r1, #4
 8005fa8:	602c      	str	r4, [r5, #0]
 8005faa:	603e      	str	r6, [r7, #0]
 8005fac:	4469      	add	r1, sp
 8005fae:	4468      	add	r0, sp
 8005fb0:	680c      	ldr	r4, [r1, #0]
 8005fb2:	684d      	ldr	r5, [r1, #4]
 8005fb4:	6841      	ldr	r1, [r0, #4]
 8005fb6:	6800      	ldr	r0, [r0, #0]
 8005fb8:	1824      	adds	r4, r4, r0
 8005fba:	414d      	adcs	r5, r1
 8005fbc:	9e88      	ldr	r6, [sp, #544]	; 0x220
 8005fbe:	9f89      	ldr	r7, [sp, #548]	; 0x224
 8005fc0:	19a4      	adds	r4, r4, r6
 8005fc2:	417d      	adcs	r5, r7
 8005fc4:	2226      	movs	r2, #38	; 0x26
 8005fc6:	2300      	movs	r3, #0
 8005fc8:	1c28      	adds	r0, r5, #0
 8005fca:	2100      	movs	r1, #0
 8005fcc:	f7fa f928 	bl	8000220 <__aeabi_lmul>
 8005fd0:	4ee1      	ldr	r6, [pc, #900]	; (8006358 <ge25519_scalarmult_base+0x1e48>)
 8005fd2:	2286      	movs	r2, #134	; 0x86
 8005fd4:	9f02      	ldr	r7, [sp, #8]
 8005fd6:	0112      	lsls	r2, r2, #4
 8005fd8:	446a      	add	r2, sp
 8005fda:	2300      	movs	r3, #0
 8005fdc:	446e      	add	r6, sp
 8005fde:	6033      	str	r3, [r6, #0]
 8005fe0:	6017      	str	r7, [r2, #0]
 8005fe2:	4ede      	ldr	r6, [pc, #888]	; (800635c <ge25519_scalarmult_base+0x1e4c>)
 8005fe4:	4fde      	ldr	r7, [pc, #888]	; (8006360 <ge25519_scalarmult_base+0x1e50>)
 8005fe6:	6853      	ldr	r3, [r2, #4]
 8005fe8:	6812      	ldr	r2, [r2, #0]
 8005fea:	1812      	adds	r2, r2, r0
 8005fec:	414b      	adcs	r3, r1
 8005fee:	990c      	ldr	r1, [sp, #48]	; 0x30
 8005ff0:	2000      	movs	r0, #0
 8005ff2:	446e      	add	r6, sp
 8005ff4:	446f      	add	r7, sp
 8005ff6:	6031      	str	r1, [r6, #0]
 8005ff8:	6038      	str	r0, [r7, #0]
 8005ffa:	936e      	str	r3, [sp, #440]	; 0x1b8
 8005ffc:	906f      	str	r0, [sp, #444]	; 0x1bc
 8005ffe:	6877      	ldr	r7, [r6, #4]
 8006000:	6836      	ldr	r6, [r6, #0]
 8006002:	986e      	ldr	r0, [sp, #440]	; 0x1b8
 8006004:	996f      	ldr	r1, [sp, #444]	; 0x1bc
 8006006:	1980      	adds	r0, r0, r6
 8006008:	4179      	adcs	r1, r7
 800600a:	4ed6      	ldr	r6, [pc, #856]	; (8006364 <ge25519_scalarmult_base+0x1e54>)
 800600c:	9170      	str	r1, [sp, #448]	; 0x1c0
 800600e:	446e      	add	r6, sp
 8006010:	6030      	str	r0, [r6, #0]
 8006012:	4ed5      	ldr	r6, [pc, #852]	; (8006368 <ge25519_scalarmult_base+0x1e58>)
 8006014:	2700      	movs	r7, #0
 8006016:	446e      	add	r6, sp
 8006018:	2187      	movs	r1, #135	; 0x87
 800601a:	9771      	str	r7, [sp, #452]	; 0x1c4
 800601c:	9804      	ldr	r0, [sp, #16]
 800601e:	6037      	str	r7, [r6, #0]
 8006020:	0109      	lsls	r1, r1, #4
 8006022:	2787      	movs	r7, #135	; 0x87
 8006024:	4469      	add	r1, sp
 8006026:	013f      	lsls	r7, r7, #4
 8006028:	6008      	str	r0, [r1, #0]
 800602a:	446f      	add	r7, sp
 800602c:	683e      	ldr	r6, [r7, #0]
 800602e:	687f      	ldr	r7, [r7, #4]
 8006030:	9870      	ldr	r0, [sp, #448]	; 0x1c0
 8006032:	9971      	ldr	r1, [sp, #452]	; 0x1c4
 8006034:	1980      	adds	r0, r0, r6
 8006036:	4179      	adcs	r1, r7
 8006038:	4ecc      	ldr	r6, [pc, #816]	; (800636c <ge25519_scalarmult_base+0x1e5c>)
 800603a:	2700      	movs	r7, #0
 800603c:	446e      	add	r6, sp
 800603e:	6030      	str	r0, [r6, #0]
 8006040:	4ecb      	ldr	r6, [pc, #812]	; (8006370 <ge25519_scalarmult_base+0x1e60>)
 8006042:	9172      	str	r1, [sp, #456]	; 0x1c8
 8006044:	446e      	add	r6, sp
 8006046:	49cb      	ldr	r1, [pc, #812]	; (8006374 <ge25519_scalarmult_base+0x1e64>)
 8006048:	6037      	str	r7, [r6, #0]
 800604a:	9773      	str	r7, [sp, #460]	; 0x1cc
 800604c:	9806      	ldr	r0, [sp, #24]
 800604e:	4fc9      	ldr	r7, [pc, #804]	; (8006374 <ge25519_scalarmult_base+0x1e64>)
 8006050:	4469      	add	r1, sp
 8006052:	6008      	str	r0, [r1, #0]
 8006054:	446f      	add	r7, sp
 8006056:	683e      	ldr	r6, [r7, #0]
 8006058:	687f      	ldr	r7, [r7, #4]
 800605a:	9872      	ldr	r0, [sp, #456]	; 0x1c8
 800605c:	9973      	ldr	r1, [sp, #460]	; 0x1cc
 800605e:	1980      	adds	r0, r0, r6
 8006060:	4179      	adcs	r1, r7
 8006062:	4ec5      	ldr	r6, [pc, #788]	; (8006378 <ge25519_scalarmult_base+0x1e68>)
 8006064:	9174      	str	r1, [sp, #464]	; 0x1d0
 8006066:	446e      	add	r6, sp
 8006068:	6030      	str	r0, [r6, #0]
 800606a:	4ec4      	ldr	r6, [pc, #784]	; (800637c <ge25519_scalarmult_base+0x1e6c>)
 800606c:	2700      	movs	r7, #0
 800606e:	446e      	add	r6, sp
 8006070:	2188      	movs	r1, #136	; 0x88
 8006072:	6037      	str	r7, [r6, #0]
 8006074:	9775      	str	r7, [sp, #468]	; 0x1d4
 8006076:	9808      	ldr	r0, [sp, #32]
 8006078:	0109      	lsls	r1, r1, #4
 800607a:	2788      	movs	r7, #136	; 0x88
 800607c:	4469      	add	r1, sp
 800607e:	013f      	lsls	r7, r7, #4
 8006080:	6008      	str	r0, [r1, #0]
 8006082:	446f      	add	r7, sp
 8006084:	683e      	ldr	r6, [r7, #0]
 8006086:	687f      	ldr	r7, [r7, #4]
 8006088:	9874      	ldr	r0, [sp, #464]	; 0x1d0
 800608a:	9975      	ldr	r1, [sp, #468]	; 0x1d4
 800608c:	1980      	adds	r0, r0, r6
 800608e:	4179      	adcs	r1, r7
 8006090:	269a      	movs	r6, #154	; 0x9a
 8006092:	0136      	lsls	r6, r6, #4
 8006094:	446e      	add	r6, sp
 8006096:	6030      	str	r0, [r6, #0]
 8006098:	4eb9      	ldr	r6, [pc, #740]	; (8006380 <ge25519_scalarmult_base+0x1e70>)
 800609a:	9176      	str	r1, [sp, #472]	; 0x1d8
 800609c:	2700      	movs	r7, #0
 800609e:	446e      	add	r6, sp
 80060a0:	49b8      	ldr	r1, [pc, #736]	; (8006384 <ge25519_scalarmult_base+0x1e74>)
 80060a2:	6037      	str	r7, [r6, #0]
 80060a4:	9777      	str	r7, [sp, #476]	; 0x1dc
 80060a6:	980a      	ldr	r0, [sp, #40]	; 0x28
 80060a8:	4fb6      	ldr	r7, [pc, #728]	; (8006384 <ge25519_scalarmult_base+0x1e74>)
 80060aa:	4469      	add	r1, sp
 80060ac:	6008      	str	r0, [r1, #0]
 80060ae:	446f      	add	r7, sp
 80060b0:	683e      	ldr	r6, [r7, #0]
 80060b2:	687f      	ldr	r7, [r7, #4]
 80060b4:	9876      	ldr	r0, [sp, #472]	; 0x1d8
 80060b6:	9977      	ldr	r1, [sp, #476]	; 0x1dc
 80060b8:	1980      	adds	r0, r0, r6
 80060ba:	4179      	adcs	r1, r7
 80060bc:	4eb2      	ldr	r6, [pc, #712]	; (8006388 <ge25519_scalarmult_base+0x1e78>)
 80060be:	9178      	str	r1, [sp, #480]	; 0x1e0
 80060c0:	446e      	add	r6, sp
 80060c2:	2189      	movs	r1, #137	; 0x89
 80060c4:	6030      	str	r0, [r6, #0]
 80060c6:	0109      	lsls	r1, r1, #4
 80060c8:	9810      	ldr	r0, [sp, #64]	; 0x40
 80060ca:	4469      	add	r1, sp
 80060cc:	4eaf      	ldr	r6, [pc, #700]	; (800638c <ge25519_scalarmult_base+0x1e7c>)
 80060ce:	6008      	str	r0, [r1, #0]
 80060d0:	2189      	movs	r1, #137	; 0x89
 80060d2:	2700      	movs	r7, #0
 80060d4:	446e      	add	r6, sp
 80060d6:	0109      	lsls	r1, r1, #4
 80060d8:	6037      	str	r7, [r6, #0]
 80060da:	9779      	str	r7, [sp, #484]	; 0x1e4
 80060dc:	4469      	add	r1, sp
 80060de:	6808      	ldr	r0, [r1, #0]
 80060e0:	6849      	ldr	r1, [r1, #4]
 80060e2:	9e78      	ldr	r6, [sp, #480]	; 0x1e0
 80060e4:	9f79      	ldr	r7, [sp, #484]	; 0x1e4
 80060e6:	1836      	adds	r6, r6, r0
 80060e8:	414f      	adcs	r7, r1
 80060ea:	48a9      	ldr	r0, [pc, #676]	; (8006390 <ge25519_scalarmult_base+0x1e80>)
 80060ec:	977a      	str	r7, [sp, #488]	; 0x1e8
 80060ee:	4468      	add	r0, sp
 80060f0:	6006      	str	r6, [r0, #0]
 80060f2:	4fa8      	ldr	r7, [pc, #672]	; (8006394 <ge25519_scalarmult_base+0x1e84>)
 80060f4:	4ea8      	ldr	r6, [pc, #672]	; (8006398 <ge25519_scalarmult_base+0x1e88>)
 80060f6:	2100      	movs	r1, #0
 80060f8:	446e      	add	r6, sp
 80060fa:	446f      	add	r7, sp
 80060fc:	917b      	str	r1, [sp, #492]	; 0x1ec
 80060fe:	6039      	str	r1, [r7, #0]
 8006100:	6034      	str	r4, [r6, #0]
 8006102:	6834      	ldr	r4, [r6, #0]
 8006104:	6875      	ldr	r5, [r6, #4]
 8006106:	987a      	ldr	r0, [sp, #488]	; 0x1e8
 8006108:	997b      	ldr	r1, [sp, #492]	; 0x1ec
 800610a:	4ea4      	ldr	r6, [pc, #656]	; (800639c <ge25519_scalarmult_base+0x1e8c>)
 800610c:	1900      	adds	r0, r0, r4
 800610e:	4169      	adcs	r1, r5
 8006110:	2326      	movs	r3, #38	; 0x26
 8006112:	434b      	muls	r3, r1
 8006114:	446e      	add	r6, sp
 8006116:	6030      	str	r0, [r6, #0]
 8006118:	2799      	movs	r7, #153	; 0x99
 800611a:	2093      	movs	r0, #147	; 0x93
 800611c:	013f      	lsls	r7, r7, #4
 800611e:	0100      	lsls	r0, r0, #4
 8006120:	189a      	adds	r2, r3, r2
 8006122:	446f      	add	r7, sp
 8006124:	4468      	add	r0, sp
 8006126:	603a      	str	r2, [r7, #0]
 8006128:	4681      	mov	r9, r0
 800612a:	2295      	movs	r2, #149	; 0x95
 800612c:	209b      	movs	r0, #155	; 0x9b
 800612e:	0100      	lsls	r0, r0, #4
 8006130:	0112      	lsls	r2, r2, #4
 8006132:	4468      	add	r0, sp
 8006134:	4649      	mov	r1, r9
 8006136:	446a      	add	r2, sp
 8006138:	f7fd fa94 	bl	8003664 <fe25519_mul>
 800613c:	209d      	movs	r0, #157	; 0x9d
 800613e:	2197      	movs	r1, #151	; 0x97
 8006140:	2299      	movs	r2, #153	; 0x99
 8006142:	0100      	lsls	r0, r0, #4
 8006144:	0109      	lsls	r1, r1, #4
 8006146:	0112      	lsls	r2, r2, #4
 8006148:	4468      	add	r0, sp
 800614a:	4469      	add	r1, sp
 800614c:	446a      	add	r2, sp
 800614e:	f7fd fa89 	bl	8003664 <fe25519_mul>
 8006152:	20a1      	movs	r0, #161	; 0xa1
 8006154:	2299      	movs	r2, #153	; 0x99
 8006156:	0100      	lsls	r0, r0, #4
 8006158:	0112      	lsls	r2, r2, #4
 800615a:	4468      	add	r0, sp
 800615c:	4649      	mov	r1, r9
 800615e:	446a      	add	r2, sp
 8006160:	f7fd fa80 	bl	8003664 <fe25519_mul>
 8006164:	209f      	movs	r0, #159	; 0x9f
 8006166:	2195      	movs	r1, #149	; 0x95
 8006168:	2297      	movs	r2, #151	; 0x97
 800616a:	0100      	lsls	r0, r0, #4
 800616c:	0109      	lsls	r1, r1, #4
 800616e:	0112      	lsls	r2, r2, #4
 8006170:	4468      	add	r0, sp
 8006172:	4469      	add	r1, sp
 8006174:	446a      	add	r2, sp
 8006176:	f7fd fa75 	bl	8003664 <fe25519_mul>
 800617a:	218a      	movs	r1, #138	; 0x8a
 800617c:	0109      	lsls	r1, r1, #4
 800617e:	4469      	add	r1, sp
 8006180:	259b      	movs	r5, #155	; 0x9b
 8006182:	6809      	ldr	r1, [r1, #0]
 8006184:	012d      	lsls	r5, r5, #4
 8006186:	4644      	mov	r4, r8
 8006188:	446d      	add	r5, sp
 800618a:	424b      	negs	r3, r1
 800618c:	6822      	ldr	r2, [r4, #0]
 800618e:	6829      	ldr	r1, [r5, #0]
 8006190:	4e83      	ldr	r6, [pc, #524]	; (80063a0 <ge25519_scalarmult_base+0x1e90>)
 8006192:	4051      	eors	r1, r2
 8006194:	4019      	ands	r1, r3
 8006196:	404a      	eors	r2, r1
 8006198:	446e      	add	r6, sp
 800619a:	6022      	str	r2, [r4, #0]
 800619c:	6831      	ldr	r1, [r6, #0]
 800619e:	6862      	ldr	r2, [r4, #4]
 80061a0:	4f80      	ldr	r7, [pc, #512]	; (80063a4 <ge25519_scalarmult_base+0x1e94>)
 80061a2:	4051      	eors	r1, r2
 80061a4:	4019      	ands	r1, r3
 80061a6:	404a      	eors	r2, r1
 80061a8:	446f      	add	r7, sp
 80061aa:	6062      	str	r2, [r4, #4]
 80061ac:	6839      	ldr	r1, [r7, #0]
 80061ae:	68a2      	ldr	r2, [r4, #8]
 80061b0:	487d      	ldr	r0, [pc, #500]	; (80063a8 <ge25519_scalarmult_base+0x1e98>)
 80061b2:	4051      	eors	r1, r2
 80061b4:	4019      	ands	r1, r3
 80061b6:	404a      	eors	r2, r1
 80061b8:	4468      	add	r0, sp
 80061ba:	60a2      	str	r2, [r4, #8]
 80061bc:	6801      	ldr	r1, [r0, #0]
 80061be:	68e2      	ldr	r2, [r4, #12]
 80061c0:	4e7a      	ldr	r6, [pc, #488]	; (80063ac <ge25519_scalarmult_base+0x1e9c>)
 80061c2:	4051      	eors	r1, r2
 80061c4:	4019      	ands	r1, r3
 80061c6:	404a      	eors	r2, r1
 80061c8:	60e2      	str	r2, [r4, #12]
 80061ca:	6922      	ldr	r2, [r4, #16]
 80061cc:	249c      	movs	r4, #156	; 0x9c
 80061ce:	0124      	lsls	r4, r4, #4
 80061d0:	446c      	add	r4, sp
 80061d2:	6821      	ldr	r1, [r4, #0]
 80061d4:	4645      	mov	r5, r8
 80061d6:	4051      	eors	r1, r2
 80061d8:	4019      	ands	r1, r3
 80061da:	404a      	eors	r2, r1
 80061dc:	446e      	add	r6, sp
 80061de:	612a      	str	r2, [r5, #16]
 80061e0:	6831      	ldr	r1, [r6, #0]
 80061e2:	696a      	ldr	r2, [r5, #20]
 80061e4:	4f72      	ldr	r7, [pc, #456]	; (80063b0 <ge25519_scalarmult_base+0x1ea0>)
 80061e6:	4051      	eors	r1, r2
 80061e8:	4019      	ands	r1, r3
 80061ea:	404a      	eors	r2, r1
 80061ec:	446f      	add	r7, sp
 80061ee:	616a      	str	r2, [r5, #20]
 80061f0:	6839      	ldr	r1, [r7, #0]
 80061f2:	69aa      	ldr	r2, [r5, #24]
 80061f4:	486f      	ldr	r0, [pc, #444]	; (80063b4 <ge25519_scalarmult_base+0x1ea4>)
 80061f6:	4051      	eors	r1, r2
 80061f8:	4019      	ands	r1, r3
 80061fa:	404a      	eors	r2, r1
 80061fc:	4468      	add	r0, sp
 80061fe:	61aa      	str	r2, [r5, #24]
 8006200:	6801      	ldr	r1, [r0, #0]
 8006202:	69ea      	ldr	r2, [r5, #28]
 8006204:	249d      	movs	r4, #157	; 0x9d
 8006206:	4051      	eors	r1, r2
 8006208:	4019      	ands	r1, r3
 800620a:	0124      	lsls	r4, r4, #4
 800620c:	404a      	eors	r2, r1
 800620e:	446c      	add	r4, sp
 8006210:	61ea      	str	r2, [r5, #28]
 8006212:	6821      	ldr	r1, [r4, #0]
 8006214:	6a2a      	ldr	r2, [r5, #32]
 8006216:	4f68      	ldr	r7, [pc, #416]	; (80063b8 <ge25519_scalarmult_base+0x1ea8>)
 8006218:	4051      	eors	r1, r2
 800621a:	4019      	ands	r1, r3
 800621c:	404a      	eors	r2, r1
 800621e:	622a      	str	r2, [r5, #32]
 8006220:	6a6a      	ldr	r2, [r5, #36]	; 0x24
 8006222:	4d66      	ldr	r5, [pc, #408]	; (80063bc <ge25519_scalarmult_base+0x1eac>)
 8006224:	4646      	mov	r6, r8
 8006226:	446d      	add	r5, sp
 8006228:	6829      	ldr	r1, [r5, #0]
 800622a:	446f      	add	r7, sp
 800622c:	4051      	eors	r1, r2
 800622e:	4019      	ands	r1, r3
 8006230:	404a      	eors	r2, r1
 8006232:	6272      	str	r2, [r6, #36]	; 0x24
 8006234:	6839      	ldr	r1, [r7, #0]
 8006236:	6ab2      	ldr	r2, [r6, #40]	; 0x28
 8006238:	4861      	ldr	r0, [pc, #388]	; (80063c0 <ge25519_scalarmult_base+0x1eb0>)
 800623a:	4051      	eors	r1, r2
 800623c:	4019      	ands	r1, r3
 800623e:	404a      	eors	r2, r1
 8006240:	4468      	add	r0, sp
 8006242:	62b2      	str	r2, [r6, #40]	; 0x28
 8006244:	6af2      	ldr	r2, [r6, #44]	; 0x2c
 8006246:	6801      	ldr	r1, [r0, #0]
 8006248:	249e      	movs	r4, #158	; 0x9e
 800624a:	4051      	eors	r1, r2
 800624c:	4019      	ands	r1, r3
 800624e:	0124      	lsls	r4, r4, #4
 8006250:	404a      	eors	r2, r1
 8006252:	446c      	add	r4, sp
 8006254:	62f2      	str	r2, [r6, #44]	; 0x2c
 8006256:	6821      	ldr	r1, [r4, #0]
 8006258:	6b32      	ldr	r2, [r6, #48]	; 0x30
 800625a:	4d5a      	ldr	r5, [pc, #360]	; (80063c4 <ge25519_scalarmult_base+0x1eb4>)
 800625c:	4051      	eors	r1, r2
 800625e:	4019      	ands	r1, r3
 8006260:	404a      	eors	r2, r1
 8006262:	446d      	add	r5, sp
 8006264:	6332      	str	r2, [r6, #48]	; 0x30
 8006266:	6829      	ldr	r1, [r5, #0]
 8006268:	6b72      	ldr	r2, [r6, #52]	; 0x34
 800626a:	4857      	ldr	r0, [pc, #348]	; (80063c8 <ge25519_scalarmult_base+0x1eb8>)
 800626c:	4051      	eors	r1, r2
 800626e:	4019      	ands	r1, r3
 8006270:	404a      	eors	r2, r1
 8006272:	6372      	str	r2, [r6, #52]	; 0x34
 8006274:	6bb2      	ldr	r2, [r6, #56]	; 0x38
 8006276:	4e55      	ldr	r6, [pc, #340]	; (80063cc <ge25519_scalarmult_base+0x1ebc>)
 8006278:	4647      	mov	r7, r8
 800627a:	446e      	add	r6, sp
 800627c:	6831      	ldr	r1, [r6, #0]
 800627e:	4468      	add	r0, sp
 8006280:	4051      	eors	r1, r2
 8006282:	4019      	ands	r1, r3
 8006284:	404a      	eors	r2, r1
 8006286:	63ba      	str	r2, [r7, #56]	; 0x38
 8006288:	6801      	ldr	r1, [r0, #0]
 800628a:	6bfa      	ldr	r2, [r7, #60]	; 0x3c
 800628c:	249f      	movs	r4, #159	; 0x9f
 800628e:	4051      	eors	r1, r2
 8006290:	4019      	ands	r1, r3
 8006292:	0124      	lsls	r4, r4, #4
 8006294:	404a      	eors	r2, r1
 8006296:	446c      	add	r4, sp
 8006298:	63fa      	str	r2, [r7, #60]	; 0x3c
 800629a:	6821      	ldr	r1, [r4, #0]
 800629c:	6c3a      	ldr	r2, [r7, #64]	; 0x40
 800629e:	4d4c      	ldr	r5, [pc, #304]	; (80063d0 <ge25519_scalarmult_base+0x1ec0>)
 80062a0:	4051      	eors	r1, r2
 80062a2:	4019      	ands	r1, r3
 80062a4:	404a      	eors	r2, r1
 80062a6:	446d      	add	r5, sp
 80062a8:	643a      	str	r2, [r7, #64]	; 0x40
 80062aa:	6829      	ldr	r1, [r5, #0]
 80062ac:	6c7a      	ldr	r2, [r7, #68]	; 0x44
 80062ae:	4e49      	ldr	r6, [pc, #292]	; (80063d4 <ge25519_scalarmult_base+0x1ec4>)
 80062b0:	4051      	eors	r1, r2
 80062b2:	4019      	ands	r1, r3
 80062b4:	404a      	eors	r2, r1
 80062b6:	446e      	add	r6, sp
 80062b8:	647a      	str	r2, [r7, #68]	; 0x44
 80062ba:	6831      	ldr	r1, [r6, #0]
 80062bc:	6cba      	ldr	r2, [r7, #72]	; 0x48
 80062be:	24a0      	movs	r4, #160	; 0xa0
 80062c0:	4051      	eors	r1, r2
 80062c2:	4019      	ands	r1, r3
 80062c4:	404a      	eors	r2, r1
 80062c6:	64ba      	str	r2, [r7, #72]	; 0x48
 80062c8:	6cfa      	ldr	r2, [r7, #76]	; 0x4c
 80062ca:	4f43      	ldr	r7, [pc, #268]	; (80063d8 <ge25519_scalarmult_base+0x1ec8>)
 80062cc:	0124      	lsls	r4, r4, #4
 80062ce:	446f      	add	r7, sp
 80062d0:	6839      	ldr	r1, [r7, #0]
 80062d2:	4640      	mov	r0, r8
 80062d4:	4051      	eors	r1, r2
 80062d6:	4019      	ands	r1, r3
 80062d8:	404a      	eors	r2, r1
 80062da:	446c      	add	r4, sp
 80062dc:	64c2      	str	r2, [r0, #76]	; 0x4c
 80062de:	6821      	ldr	r1, [r4, #0]
 80062e0:	6d02      	ldr	r2, [r0, #80]	; 0x50
 80062e2:	4d3e      	ldr	r5, [pc, #248]	; (80063dc <ge25519_scalarmult_base+0x1ecc>)
 80062e4:	4051      	eors	r1, r2
 80062e6:	4019      	ands	r1, r3
 80062e8:	404a      	eors	r2, r1
 80062ea:	446d      	add	r5, sp
 80062ec:	6502      	str	r2, [r0, #80]	; 0x50
 80062ee:	6829      	ldr	r1, [r5, #0]
 80062f0:	6d42      	ldr	r2, [r0, #84]	; 0x54
 80062f2:	4e3b      	ldr	r6, [pc, #236]	; (80063e0 <ge25519_scalarmult_base+0x1ed0>)
 80062f4:	4051      	eors	r1, r2
 80062f6:	4019      	ands	r1, r3
 80062f8:	404a      	eors	r2, r1
 80062fa:	446e      	add	r6, sp
 80062fc:	6542      	str	r2, [r0, #84]	; 0x54
 80062fe:	6831      	ldr	r1, [r6, #0]
 8006300:	6d82      	ldr	r2, [r0, #88]	; 0x58
 8006302:	4f38      	ldr	r7, [pc, #224]	; (80063e4 <ge25519_scalarmult_base+0x1ed4>)
 8006304:	4051      	eors	r1, r2
 8006306:	4019      	ands	r1, r3
 8006308:	404a      	eors	r2, r1
 800630a:	446f      	add	r7, sp
 800630c:	6582      	str	r2, [r0, #88]	; 0x58
 800630e:	6dc2      	ldr	r2, [r0, #92]	; 0x5c
 8006310:	6839      	ldr	r1, [r7, #0]
 8006312:	4c35      	ldr	r4, [pc, #212]	; (80063e8 <ge25519_scalarmult_base+0x1ed8>)
 8006314:	4051      	eors	r1, r2
 8006316:	4019      	ands	r1, r3
 8006318:	404a      	eors	r2, r1
 800631a:	65c2      	str	r2, [r0, #92]	; 0x5c
 800631c:	6e02      	ldr	r2, [r0, #96]	; 0x60
 800631e:	20a1      	movs	r0, #161	; 0xa1
 8006320:	0100      	lsls	r0, r0, #4
 8006322:	4468      	add	r0, sp
 8006324:	6801      	ldr	r1, [r0, #0]
 8006326:	446c      	add	r4, sp
 8006328:	4051      	eors	r1, r2
 800632a:	4019      	ands	r1, r3
 800632c:	404a      	eors	r2, r1
 800632e:	4641      	mov	r1, r8
 8006330:	660a      	str	r2, [r1, #96]	; 0x60
 8006332:	6e4a      	ldr	r2, [r1, #100]	; 0x64
 8006334:	6821      	ldr	r1, [r4, #0]
 8006336:	4e2d      	ldr	r6, [pc, #180]	; (80063ec <ge25519_scalarmult_base+0x1edc>)
 8006338:	4051      	eors	r1, r2
 800633a:	4019      	ands	r1, r3
 800633c:	4645      	mov	r5, r8
 800633e:	404a      	eors	r2, r1
 8006340:	446e      	add	r6, sp
 8006342:	666a      	str	r2, [r5, #100]	; 0x64
 8006344:	6831      	ldr	r1, [r6, #0]
 8006346:	6eaa      	ldr	r2, [r5, #104]	; 0x68
 8006348:	e052      	b.n	80063f0 <ge25519_scalarmult_base+0x1ee0>
 800634a:	46c0      	nop			; (mov r8, r8)
 800634c:	00000854 	.word	0x00000854
 8006350:	0000085c 	.word	0x0000085c
 8006354:	00000858 	.word	0x00000858
 8006358:	00000864 	.word	0x00000864
 800635c:	00000868 	.word	0x00000868
 8006360:	0000086c 	.word	0x0000086c
 8006364:	00000994 	.word	0x00000994
 8006368:	00000874 	.word	0x00000874
 800636c:	00000998 	.word	0x00000998
 8006370:	0000087c 	.word	0x0000087c
 8006374:	00000878 	.word	0x00000878
 8006378:	0000099c 	.word	0x0000099c
 800637c:	00000884 	.word	0x00000884
 8006380:	0000088c 	.word	0x0000088c
 8006384:	00000888 	.word	0x00000888
 8006388:	000009a4 	.word	0x000009a4
 800638c:	00000894 	.word	0x00000894
 8006390:	000009a8 	.word	0x000009a8
 8006394:	0000089c 	.word	0x0000089c
 8006398:	00000898 	.word	0x00000898
 800639c:	000009ac 	.word	0x000009ac
 80063a0:	000009b4 	.word	0x000009b4
 80063a4:	000009b8 	.word	0x000009b8
 80063a8:	000009bc 	.word	0x000009bc
 80063ac:	000009c4 	.word	0x000009c4
 80063b0:	000009c8 	.word	0x000009c8
 80063b4:	000009cc 	.word	0x000009cc
 80063b8:	000009d8 	.word	0x000009d8
 80063bc:	000009d4 	.word	0x000009d4
 80063c0:	000009dc 	.word	0x000009dc
 80063c4:	000009e4 	.word	0x000009e4
 80063c8:	000009ec 	.word	0x000009ec
 80063cc:	000009e8 	.word	0x000009e8
 80063d0:	000009f4 	.word	0x000009f4
 80063d4:	000009f8 	.word	0x000009f8
 80063d8:	000009fc 	.word	0x000009fc
 80063dc:	00000a04 	.word	0x00000a04
 80063e0:	00000a08 	.word	0x00000a08
 80063e4:	00000a0c 	.word	0x00000a0c
 80063e8:	00000a14 	.word	0x00000a14
 80063ec:	00000a18 	.word	0x00000a18
 80063f0:	4f1d      	ldr	r7, [pc, #116]	; (8006468 <ge25519_scalarmult_base+0x1f58>)
 80063f2:	4051      	eors	r1, r2
 80063f4:	4019      	ands	r1, r3
 80063f6:	404a      	eors	r2, r1
 80063f8:	446f      	add	r7, sp
 80063fa:	66aa      	str	r2, [r5, #104]	; 0x68
 80063fc:	6839      	ldr	r1, [r7, #0]
 80063fe:	6eea      	ldr	r2, [r5, #108]	; 0x6c
 8006400:	20a2      	movs	r0, #162	; 0xa2
 8006402:	4051      	eors	r1, r2
 8006404:	4019      	ands	r1, r3
 8006406:	0100      	lsls	r0, r0, #4
 8006408:	404a      	eors	r2, r1
 800640a:	4468      	add	r0, sp
 800640c:	66ea      	str	r2, [r5, #108]	; 0x6c
 800640e:	6801      	ldr	r1, [r0, #0]
 8006410:	6f2a      	ldr	r2, [r5, #112]	; 0x70
 8006412:	4c16      	ldr	r4, [pc, #88]	; (800646c <ge25519_scalarmult_base+0x1f5c>)
 8006414:	4051      	eors	r1, r2
 8006416:	4019      	ands	r1, r3
 8006418:	404a      	eors	r2, r1
 800641a:	446c      	add	r4, sp
 800641c:	672a      	str	r2, [r5, #112]	; 0x70
 800641e:	6821      	ldr	r1, [r4, #0]
 8006420:	6f6a      	ldr	r2, [r5, #116]	; 0x74
 8006422:	4f13      	ldr	r7, [pc, #76]	; (8006470 <ge25519_scalarmult_base+0x1f60>)
 8006424:	4051      	eors	r1, r2
 8006426:	4019      	ands	r1, r3
 8006428:	404a      	eors	r2, r1
 800642a:	676a      	str	r2, [r5, #116]	; 0x74
 800642c:	6faa      	ldr	r2, [r5, #120]	; 0x78
 800642e:	4d11      	ldr	r5, [pc, #68]	; (8006474 <ge25519_scalarmult_base+0x1f64>)
 8006430:	4646      	mov	r6, r8
 8006432:	446d      	add	r5, sp
 8006434:	6829      	ldr	r1, [r5, #0]
 8006436:	446f      	add	r7, sp
 8006438:	4051      	eors	r1, r2
 800643a:	4019      	ands	r1, r3
 800643c:	404a      	eors	r2, r1
 800643e:	67b2      	str	r2, [r6, #120]	; 0x78
 8006440:	6839      	ldr	r1, [r7, #0]
 8006442:	6ff2      	ldr	r2, [r6, #124]	; 0x7c
 8006444:	9c1f      	ldr	r4, [sp, #124]	; 0x7c
 8006446:	4051      	eors	r1, r2
 8006448:	400b      	ands	r3, r1
 800644a:	4053      	eors	r3, r2
 800644c:	67f3      	str	r3, [r6, #124]	; 0x7c
 800644e:	3c01      	subs	r4, #1
 8006450:	941f      	str	r4, [sp, #124]	; 0x7c
 8006452:	d301      	bcc.n	8006458 <ge25519_scalarmult_base+0x1f48>
 8006454:	f7fe f89e 	bl	8004594 <ge25519_scalarmult_base+0x84>
 8006458:	4b07      	ldr	r3, [pc, #28]	; (8006478 <ge25519_scalarmult_base+0x1f68>)
 800645a:	449d      	add	sp, r3
 800645c:	bc3c      	pop	{r2, r3, r4, r5}
 800645e:	4690      	mov	r8, r2
 8006460:	4699      	mov	r9, r3
 8006462:	46a2      	mov	sl, r4
 8006464:	46ab      	mov	fp, r5
 8006466:	bdf0      	pop	{r4, r5, r6, r7, pc}
 8006468:	00000a1c 	.word	0x00000a1c
 800646c:	00000a24 	.word	0x00000a24
 8006470:	00000a2c 	.word	0x00000a2c
 8006474:	00000a28 	.word	0x00000a28
 8006478:	00000a34 	.word	0x00000a34

0800647c <fe25519_invert>:
 800647c:	b530      	push	{r4, r5, lr}
 800647e:	1c0c      	adds	r4, r1, #0
 8006480:	b0d1      	sub	sp, #324	; 0x144
 8006482:	1c22      	adds	r2, r4, #0
 8006484:	1c05      	adds	r5, r0, #0
 8006486:	4668      	mov	r0, sp
 8006488:	f7fd f8ec 	bl	8003664 <fe25519_mul>
 800648c:	a848      	add	r0, sp, #288	; 0x120
 800648e:	4669      	mov	r1, sp
 8006490:	466a      	mov	r2, sp
 8006492:	f7fd f8e7 	bl	8003664 <fe25519_mul>
 8006496:	a948      	add	r1, sp, #288	; 0x120
 8006498:	1c0a      	adds	r2, r1, #0
 800649a:	a840      	add	r0, sp, #256	; 0x100
 800649c:	f7fd f8e2 	bl	8003664 <fe25519_mul>
 80064a0:	1c22      	adds	r2, r4, #0
 80064a2:	a808      	add	r0, sp, #32
 80064a4:	a940      	add	r1, sp, #256	; 0x100
 80064a6:	f7fd f8dd 	bl	8003664 <fe25519_mul>
 80064aa:	a810      	add	r0, sp, #64	; 0x40
 80064ac:	a908      	add	r1, sp, #32
 80064ae:	466a      	mov	r2, sp
 80064b0:	f7fd f8d8 	bl	8003664 <fe25519_mul>
 80064b4:	a910      	add	r1, sp, #64	; 0x40
 80064b6:	1c0a      	adds	r2, r1, #0
 80064b8:	a840      	add	r0, sp, #256	; 0x100
 80064ba:	f7fd f8d3 	bl	8003664 <fe25519_mul>
 80064be:	a818      	add	r0, sp, #96	; 0x60
 80064c0:	a940      	add	r1, sp, #256	; 0x100
 80064c2:	aa08      	add	r2, sp, #32
 80064c4:	f7fd f8ce 	bl	8003664 <fe25519_mul>
 80064c8:	a918      	add	r1, sp, #96	; 0x60
 80064ca:	1c0a      	adds	r2, r1, #0
 80064cc:	a840      	add	r0, sp, #256	; 0x100
 80064ce:	f7fd f8c9 	bl	8003664 <fe25519_mul>
 80064d2:	a940      	add	r1, sp, #256	; 0x100
 80064d4:	1c0a      	adds	r2, r1, #0
 80064d6:	a848      	add	r0, sp, #288	; 0x120
 80064d8:	f7fd f8c4 	bl	8003664 <fe25519_mul>
 80064dc:	a948      	add	r1, sp, #288	; 0x120
 80064de:	1c0a      	adds	r2, r1, #0
 80064e0:	a840      	add	r0, sp, #256	; 0x100
 80064e2:	f7fd f8bf 	bl	8003664 <fe25519_mul>
 80064e6:	a940      	add	r1, sp, #256	; 0x100
 80064e8:	1c0a      	adds	r2, r1, #0
 80064ea:	a848      	add	r0, sp, #288	; 0x120
 80064ec:	f7fd f8ba 	bl	8003664 <fe25519_mul>
 80064f0:	a948      	add	r1, sp, #288	; 0x120
 80064f2:	1c0a      	adds	r2, r1, #0
 80064f4:	a840      	add	r0, sp, #256	; 0x100
 80064f6:	f7fd f8b5 	bl	8003664 <fe25519_mul>
 80064fa:	a820      	add	r0, sp, #128	; 0x80
 80064fc:	a940      	add	r1, sp, #256	; 0x100
 80064fe:	aa18      	add	r2, sp, #96	; 0x60
 8006500:	f7fd f8b0 	bl	8003664 <fe25519_mul>
 8006504:	a920      	add	r1, sp, #128	; 0x80
 8006506:	1c0a      	adds	r2, r1, #0
 8006508:	a840      	add	r0, sp, #256	; 0x100
 800650a:	f7fd f8ab 	bl	8003664 <fe25519_mul>
 800650e:	a940      	add	r1, sp, #256	; 0x100
 8006510:	a848      	add	r0, sp, #288	; 0x120
 8006512:	1c0a      	adds	r2, r1, #0
 8006514:	f7fd f8a6 	bl	8003664 <fe25519_mul>
 8006518:	2404      	movs	r4, #4
 800651a:	a948      	add	r1, sp, #288	; 0x120
 800651c:	1c0a      	adds	r2, r1, #0
 800651e:	a840      	add	r0, sp, #256	; 0x100
 8006520:	f7fd f8a0 	bl	8003664 <fe25519_mul>
 8006524:	a940      	add	r1, sp, #256	; 0x100
 8006526:	a848      	add	r0, sp, #288	; 0x120
 8006528:	1c0a      	adds	r2, r1, #0
 800652a:	3c01      	subs	r4, #1
 800652c:	f7fd f89a 	bl	8003664 <fe25519_mul>
 8006530:	2c00      	cmp	r4, #0
 8006532:	d1f2      	bne.n	800651a <fe25519_invert+0x9e>
 8006534:	a828      	add	r0, sp, #160	; 0xa0
 8006536:	a948      	add	r1, sp, #288	; 0x120
 8006538:	aa20      	add	r2, sp, #128	; 0x80
 800653a:	f7fd f893 	bl	8003664 <fe25519_mul>
 800653e:	a928      	add	r1, sp, #160	; 0xa0
 8006540:	1c0a      	adds	r2, r1, #0
 8006542:	a840      	add	r0, sp, #256	; 0x100
 8006544:	f7fd f88e 	bl	8003664 <fe25519_mul>
 8006548:	a940      	add	r1, sp, #256	; 0x100
 800654a:	a848      	add	r0, sp, #288	; 0x120
 800654c:	1c0a      	adds	r2, r1, #0
 800654e:	f7fd f889 	bl	8003664 <fe25519_mul>
 8006552:	2409      	movs	r4, #9
 8006554:	a948      	add	r1, sp, #288	; 0x120
 8006556:	1c0a      	adds	r2, r1, #0
 8006558:	a840      	add	r0, sp, #256	; 0x100
 800655a:	f7fd f883 	bl	8003664 <fe25519_mul>
 800655e:	a940      	add	r1, sp, #256	; 0x100
 8006560:	a848      	add	r0, sp, #288	; 0x120
 8006562:	1c0a      	adds	r2, r1, #0
 8006564:	3c01      	subs	r4, #1
 8006566:	f7fd f87d 	bl	8003664 <fe25519_mul>
 800656a:	2c00      	cmp	r4, #0
 800656c:	d1f2      	bne.n	8006554 <fe25519_invert+0xd8>
 800656e:	a840      	add	r0, sp, #256	; 0x100
 8006570:	a948      	add	r1, sp, #288	; 0x120
 8006572:	aa28      	add	r2, sp, #160	; 0xa0
 8006574:	f7fd f876 	bl	8003664 <fe25519_mul>
 8006578:	a940      	add	r1, sp, #256	; 0x100
 800657a:	1c0a      	adds	r2, r1, #0
 800657c:	a848      	add	r0, sp, #288	; 0x120
 800657e:	f7fd f871 	bl	8003664 <fe25519_mul>
 8006582:	a948      	add	r1, sp, #288	; 0x120
 8006584:	a840      	add	r0, sp, #256	; 0x100
 8006586:	1c0a      	adds	r2, r1, #0
 8006588:	f7fd f86c 	bl	8003664 <fe25519_mul>
 800658c:	2404      	movs	r4, #4
 800658e:	a940      	add	r1, sp, #256	; 0x100
 8006590:	1c0a      	adds	r2, r1, #0
 8006592:	a848      	add	r0, sp, #288	; 0x120
 8006594:	f7fd f866 	bl	8003664 <fe25519_mul>
 8006598:	a948      	add	r1, sp, #288	; 0x120
 800659a:	a840      	add	r0, sp, #256	; 0x100
 800659c:	1c0a      	adds	r2, r1, #0
 800659e:	3c01      	subs	r4, #1
 80065a0:	f7fd f860 	bl	8003664 <fe25519_mul>
 80065a4:	2c00      	cmp	r4, #0
 80065a6:	d1f2      	bne.n	800658e <fe25519_invert+0x112>
 80065a8:	a830      	add	r0, sp, #192	; 0xc0
 80065aa:	a940      	add	r1, sp, #256	; 0x100
 80065ac:	aa20      	add	r2, sp, #128	; 0x80
 80065ae:	f7fd f859 	bl	8003664 <fe25519_mul>
 80065b2:	a930      	add	r1, sp, #192	; 0xc0
 80065b4:	1c0a      	adds	r2, r1, #0
 80065b6:	a840      	add	r0, sp, #256	; 0x100
 80065b8:	f7fd f854 	bl	8003664 <fe25519_mul>
 80065bc:	a940      	add	r1, sp, #256	; 0x100
 80065be:	a848      	add	r0, sp, #288	; 0x120
 80065c0:	1c0a      	adds	r2, r1, #0
 80065c2:	f7fd f84f 	bl	8003664 <fe25519_mul>
 80065c6:	2418      	movs	r4, #24
 80065c8:	a948      	add	r1, sp, #288	; 0x120
 80065ca:	1c0a      	adds	r2, r1, #0
 80065cc:	a840      	add	r0, sp, #256	; 0x100
 80065ce:	f7fd f849 	bl	8003664 <fe25519_mul>
 80065d2:	a940      	add	r1, sp, #256	; 0x100
 80065d4:	a848      	add	r0, sp, #288	; 0x120
 80065d6:	1c0a      	adds	r2, r1, #0
 80065d8:	3c01      	subs	r4, #1
 80065da:	f7fd f843 	bl	8003664 <fe25519_mul>
 80065de:	2c00      	cmp	r4, #0
 80065e0:	d1f2      	bne.n	80065c8 <fe25519_invert+0x14c>
 80065e2:	a838      	add	r0, sp, #224	; 0xe0
 80065e4:	a948      	add	r1, sp, #288	; 0x120
 80065e6:	aa30      	add	r2, sp, #192	; 0xc0
 80065e8:	f7fd f83c 	bl	8003664 <fe25519_mul>
 80065ec:	a938      	add	r1, sp, #224	; 0xe0
 80065ee:	1c0a      	adds	r2, r1, #0
 80065f0:	a848      	add	r0, sp, #288	; 0x120
 80065f2:	f7fd f837 	bl	8003664 <fe25519_mul>
 80065f6:	a948      	add	r1, sp, #288	; 0x120
 80065f8:	a840      	add	r0, sp, #256	; 0x100
 80065fa:	1c0a      	adds	r2, r1, #0
 80065fc:	f7fd f832 	bl	8003664 <fe25519_mul>
 8006600:	2431      	movs	r4, #49	; 0x31
 8006602:	a940      	add	r1, sp, #256	; 0x100
 8006604:	1c0a      	adds	r2, r1, #0
 8006606:	a848      	add	r0, sp, #288	; 0x120
 8006608:	f7fd f82c 	bl	8003664 <fe25519_mul>
 800660c:	a948      	add	r1, sp, #288	; 0x120
 800660e:	a840      	add	r0, sp, #256	; 0x100
 8006610:	1c0a      	adds	r2, r1, #0
 8006612:	3c01      	subs	r4, #1
 8006614:	f7fd f826 	bl	8003664 <fe25519_mul>
 8006618:	2c00      	cmp	r4, #0
 800661a:	d1f2      	bne.n	8006602 <fe25519_invert+0x186>
 800661c:	a848      	add	r0, sp, #288	; 0x120
 800661e:	a940      	add	r1, sp, #256	; 0x100
 8006620:	aa38      	add	r2, sp, #224	; 0xe0
 8006622:	f7fd f81f 	bl	8003664 <fe25519_mul>
 8006626:	a948      	add	r1, sp, #288	; 0x120
 8006628:	1c0a      	adds	r2, r1, #0
 800662a:	a840      	add	r0, sp, #256	; 0x100
 800662c:	f7fd f81a 	bl	8003664 <fe25519_mul>
 8006630:	a940      	add	r1, sp, #256	; 0x100
 8006632:	a848      	add	r0, sp, #288	; 0x120
 8006634:	1c0a      	adds	r2, r1, #0
 8006636:	f7fd f815 	bl	8003664 <fe25519_mul>
 800663a:	2418      	movs	r4, #24
 800663c:	a948      	add	r1, sp, #288	; 0x120
 800663e:	1c0a      	adds	r2, r1, #0
 8006640:	a840      	add	r0, sp, #256	; 0x100
 8006642:	f7fd f80f 	bl	8003664 <fe25519_mul>
 8006646:	a940      	add	r1, sp, #256	; 0x100
 8006648:	a848      	add	r0, sp, #288	; 0x120
 800664a:	1c0a      	adds	r2, r1, #0
 800664c:	3c01      	subs	r4, #1
 800664e:	f7fd f809 	bl	8003664 <fe25519_mul>
 8006652:	2c00      	cmp	r4, #0
 8006654:	d1f2      	bne.n	800663c <fe25519_invert+0x1c0>
 8006656:	a840      	add	r0, sp, #256	; 0x100
 8006658:	a948      	add	r1, sp, #288	; 0x120
 800665a:	aa30      	add	r2, sp, #192	; 0xc0
 800665c:	f7fd f802 	bl	8003664 <fe25519_mul>
 8006660:	a940      	add	r1, sp, #256	; 0x100
 8006662:	a848      	add	r0, sp, #288	; 0x120
 8006664:	1c0a      	adds	r2, r1, #0
 8006666:	f7fc fffd 	bl	8003664 <fe25519_mul>
 800666a:	a948      	add	r1, sp, #288	; 0x120
 800666c:	a840      	add	r0, sp, #256	; 0x100
 800666e:	1c0a      	adds	r2, r1, #0
 8006670:	f7fc fff8 	bl	8003664 <fe25519_mul>
 8006674:	a940      	add	r1, sp, #256	; 0x100
 8006676:	a848      	add	r0, sp, #288	; 0x120
 8006678:	1c0a      	adds	r2, r1, #0
 800667a:	f7fc fff3 	bl	8003664 <fe25519_mul>
 800667e:	a948      	add	r1, sp, #288	; 0x120
 8006680:	a840      	add	r0, sp, #256	; 0x100
 8006682:	1c0a      	adds	r2, r1, #0
 8006684:	f7fc ffee 	bl	8003664 <fe25519_mul>
 8006688:	a940      	add	r1, sp, #256	; 0x100
 800668a:	a848      	add	r0, sp, #288	; 0x120
 800668c:	1c0a      	adds	r2, r1, #0
 800668e:	f7fc ffe9 	bl	8003664 <fe25519_mul>
 8006692:	1c28      	adds	r0, r5, #0
 8006694:	a948      	add	r1, sp, #288	; 0x120
 8006696:	aa10      	add	r2, sp, #64	; 0x40
 8006698:	f7fc ffe4 	bl	8003664 <fe25519_mul>
 800669c:	b051      	add	sp, #324	; 0x144
 800669e:	bd30      	pop	{r4, r5, pc}

080066a0 <ED25519keyGen>:
 80066a0:	b5f0      	push	{r4, r5, r6, r7, lr}
 80066a2:	4644      	mov	r4, r8
 80066a4:	464d      	mov	r5, r9
 80066a6:	465f      	mov	r7, fp
 80066a8:	4656      	mov	r6, sl
 80066aa:	b4f0      	push	{r4, r5, r6, r7}
 80066ac:	4c32      	ldr	r4, [pc, #200]	; (8006778 <ED25519keyGen+0xd8>)
 80066ae:	4681      	mov	r9, r0
 80066b0:	44a5      	add	sp, r4
 80066b2:	4688      	mov	r8, r1
 80066b4:	2800      	cmp	r0, #0
 80066b6:	d100      	bne.n	80066ba <ED25519keyGen+0x1a>
 80066b8:	e2b7      	b.n	8006c2a <ED25519keyGen+0x58a>
 80066ba:	2900      	cmp	r1, #0
 80066bc:	d100      	bne.n	80066c0 <ED25519keyGen+0x20>
 80066be:	e2b4      	b.n	8006c2a <ED25519keyGen+0x58a>
 80066c0:	2340      	movs	r3, #64	; 0x40
 80066c2:	2100      	movs	r1, #0
 80066c4:	937c      	str	r3, [sp, #496]	; 0x1f0
 80066c6:	4b1d      	ldr	r3, [pc, #116]	; (800673c <ED25519keyGen+0x9c>)
 80066c8:	4a1b      	ldr	r2, [pc, #108]	; (8006738 <ED25519keyGen+0x98>)
 80066ca:	92a0      	str	r2, [sp, #640]	; 0x280
 80066cc:	93a1      	str	r3, [sp, #644]	; 0x284
 80066ce:	4a1c      	ldr	r2, [pc, #112]	; (8006740 <ED25519keyGen+0xa0>)
 80066d0:	4b1c      	ldr	r3, [pc, #112]	; (8006744 <ED25519keyGen+0xa4>)
 80066d2:	92a2      	str	r2, [sp, #648]	; 0x288
 80066d4:	93a3      	str	r3, [sp, #652]	; 0x28c
 80066d6:	4a1c      	ldr	r2, [pc, #112]	; (8006748 <ED25519keyGen+0xa8>)
 80066d8:	4b1c      	ldr	r3, [pc, #112]	; (800674c <ED25519keyGen+0xac>)
 80066da:	92a4      	str	r2, [sp, #656]	; 0x290
 80066dc:	93a5      	str	r3, [sp, #660]	; 0x294
 80066de:	4a1c      	ldr	r2, [pc, #112]	; (8006750 <ED25519keyGen+0xb0>)
 80066e0:	4b1c      	ldr	r3, [pc, #112]	; (8006754 <ED25519keyGen+0xb4>)
 80066e2:	92a6      	str	r2, [sp, #664]	; 0x298
 80066e4:	93a7      	str	r3, [sp, #668]	; 0x29c
 80066e6:	4a1c      	ldr	r2, [pc, #112]	; (8006758 <ED25519keyGen+0xb8>)
 80066e8:	4b1c      	ldr	r3, [pc, #112]	; (800675c <ED25519keyGen+0xbc>)
 80066ea:	92a8      	str	r2, [sp, #672]	; 0x2a0
 80066ec:	93a9      	str	r3, [sp, #676]	; 0x2a4
 80066ee:	4a1c      	ldr	r2, [pc, #112]	; (8006760 <ED25519keyGen+0xc0>)
 80066f0:	4b1c      	ldr	r3, [pc, #112]	; (8006764 <ED25519keyGen+0xc4>)
 80066f2:	92aa      	str	r2, [sp, #680]	; 0x2a8
 80066f4:	93ab      	str	r3, [sp, #684]	; 0x2ac
 80066f6:	4a1c      	ldr	r2, [pc, #112]	; (8006768 <ED25519keyGen+0xc8>)
 80066f8:	4b1c      	ldr	r3, [pc, #112]	; (800676c <ED25519keyGen+0xcc>)
 80066fa:	92ac      	str	r2, [sp, #688]	; 0x2b0
 80066fc:	93ad      	str	r3, [sp, #692]	; 0x2b4
 80066fe:	4a1c      	ldr	r2, [pc, #112]	; (8006770 <ED25519keyGen+0xd0>)
 8006700:	4b1c      	ldr	r3, [pc, #112]	; (8006774 <ED25519keyGen+0xd4>)
 8006702:	92ae      	str	r2, [sp, #696]	; 0x2b8
 8006704:	93af      	str	r3, [sp, #700]	; 0x2bc
 8006706:	aa7a      	add	r2, sp, #488	; 0x1e8
 8006708:	238c      	movs	r3, #140	; 0x8c
 800670a:	50d1      	str	r1, [r2, r3]
 800670c:	a87b      	add	r0, sp, #492	; 0x1ec
 800670e:	2390      	movs	r3, #144	; 0x90
 8006710:	50d1      	str	r1, [r2, r3]
 8006712:	7001      	strb	r1, [r0, #0]
 8006714:	1c10      	adds	r0, r2, #0
 8006716:	4649      	mov	r1, r9
 8006718:	2220      	movs	r2, #32
 800671a:	f7fc fd63 	bl	80031e4 <SHA512Update>
 800671e:	9b7c      	ldr	r3, [sp, #496]	; 0x1f0
 8006720:	3b01      	subs	r3, #1
 8006722:	2b3f      	cmp	r3, #63	; 0x3f
 8006724:	d800      	bhi.n	8006728 <ED25519keyGen+0x88>
 8006726:	e283      	b.n	8006c30 <ED25519keyGen+0x590>
 8006728:	4f14      	ldr	r7, [pc, #80]	; (800677c <ED25519keyGen+0xdc>)
 800672a:	ac5a      	add	r4, sp, #360	; 0x168
 800672c:	9719      	str	r7, [sp, #100]	; 0x64
 800672e:	ad4a      	add	r5, sp, #296	; 0x128
 8006730:	e026      	b.n	8006780 <ED25519keyGen+0xe0>
 8006732:	46c0      	nop			; (mov r8, r8)
 8006734:	46c0      	nop			; (mov r8, r8)
 8006736:	46c0      	nop			; (mov r8, r8)
 8006738:	f3bcc908 	.word	0xf3bcc908
 800673c:	6a09e667 	.word	0x6a09e667
 8006740:	84caa73b 	.word	0x84caa73b
 8006744:	bb67ae85 	.word	0xbb67ae85
 8006748:	fe94f82b 	.word	0xfe94f82b
 800674c:	3c6ef372 	.word	0x3c6ef372
 8006750:	5f1d36f1 	.word	0x5f1d36f1
 8006754:	a54ff53a 	.word	0xa54ff53a
 8006758:	ade682d1 	.word	0xade682d1
 800675c:	510e527f 	.word	0x510e527f
 8006760:	2b3e6c1f 	.word	0x2b3e6c1f
 8006764:	9b05688c 	.word	0x9b05688c
 8006768:	fb41bd6b 	.word	0xfb41bd6b
 800676c:	1f83d9ab 	.word	0x1f83d9ab
 8006770:	137e2179 	.word	0x137e2179
 8006774:	5be0cd19 	.word	0x5be0cd19
 8006778:	fffffd3c 	.word	0xfffffd3c
 800677c:	00000fa2 	.word	0x00000fa2
 8006780:	782b      	ldrb	r3, [r5, #0]
 8006782:	2207      	movs	r2, #7
 8006784:	4393      	bics	r3, r2
 8006786:	702b      	strb	r3, [r5, #0]
 8006788:	7feb      	ldrb	r3, [r5, #31]
 800678a:	227f      	movs	r2, #127	; 0x7f
 800678c:	4013      	ands	r3, r2
 800678e:	2240      	movs	r2, #64	; 0x40
 8006790:	4313      	orrs	r3, r2
 8006792:	77eb      	strb	r3, [r5, #31]
 8006794:	466b      	mov	r3, sp
 8006796:	332c      	adds	r3, #44	; 0x2c
 8006798:	33ff      	adds	r3, #255	; 0xff
 800679a:	781a      	ldrb	r2, [r3, #0]
 800679c:	3b01      	subs	r3, #1
 800679e:	781b      	ldrb	r3, [r3, #0]
 80067a0:	0612      	lsls	r2, r2, #24
 80067a2:	041b      	lsls	r3, r3, #16
 80067a4:	4313      	orrs	r3, r2
 80067a6:	782a      	ldrb	r2, [r5, #0]
 80067a8:	1c21      	adds	r1, r4, #0
 80067aa:	4313      	orrs	r3, r2
 80067ac:	466a      	mov	r2, sp
 80067ae:	322a      	adds	r2, #42	; 0x2a
 80067b0:	32ff      	adds	r2, #255	; 0xff
 80067b2:	7812      	ldrb	r2, [r2, #0]
 80067b4:	a81a      	add	r0, sp, #104	; 0x68
 80067b6:	0212      	lsls	r2, r2, #8
 80067b8:	4313      	orrs	r3, r2
 80067ba:	935a      	str	r3, [sp, #360]	; 0x168
 80067bc:	466b      	mov	r3, sp
 80067be:	3330      	adds	r3, #48	; 0x30
 80067c0:	33ff      	adds	r3, #255	; 0xff
 80067c2:	781a      	ldrb	r2, [r3, #0]
 80067c4:	3b01      	subs	r3, #1
 80067c6:	781b      	ldrb	r3, [r3, #0]
 80067c8:	0612      	lsls	r2, r2, #24
 80067ca:	041b      	lsls	r3, r3, #16
 80067cc:	4313      	orrs	r3, r2
 80067ce:	aa4b      	add	r2, sp, #300	; 0x12c
 80067d0:	7812      	ldrb	r2, [r2, #0]
 80067d2:	2500      	movs	r5, #0
 80067d4:	4313      	orrs	r3, r2
 80067d6:	466a      	mov	r2, sp
 80067d8:	322e      	adds	r2, #46	; 0x2e
 80067da:	32ff      	adds	r2, #255	; 0xff
 80067dc:	7812      	ldrb	r2, [r2, #0]
 80067de:	1c2f      	adds	r7, r5, #0
 80067e0:	0212      	lsls	r2, r2, #8
 80067e2:	4313      	orrs	r3, r2
 80067e4:	6063      	str	r3, [r4, #4]
 80067e6:	466b      	mov	r3, sp
 80067e8:	3334      	adds	r3, #52	; 0x34
 80067ea:	33ff      	adds	r3, #255	; 0xff
 80067ec:	781a      	ldrb	r2, [r3, #0]
 80067ee:	3b01      	subs	r3, #1
 80067f0:	781b      	ldrb	r3, [r3, #0]
 80067f2:	0612      	lsls	r2, r2, #24
 80067f4:	041b      	lsls	r3, r3, #16
 80067f6:	4313      	orrs	r3, r2
 80067f8:	aa4c      	add	r2, sp, #304	; 0x130
 80067fa:	7812      	ldrb	r2, [r2, #0]
 80067fc:	4313      	orrs	r3, r2
 80067fe:	466a      	mov	r2, sp
 8006800:	3232      	adds	r2, #50	; 0x32
 8006802:	32ff      	adds	r2, #255	; 0xff
 8006804:	7812      	ldrb	r2, [r2, #0]
 8006806:	0212      	lsls	r2, r2, #8
 8006808:	4313      	orrs	r3, r2
 800680a:	60a3      	str	r3, [r4, #8]
 800680c:	466b      	mov	r3, sp
 800680e:	3338      	adds	r3, #56	; 0x38
 8006810:	33ff      	adds	r3, #255	; 0xff
 8006812:	781a      	ldrb	r2, [r3, #0]
 8006814:	3b01      	subs	r3, #1
 8006816:	781b      	ldrb	r3, [r3, #0]
 8006818:	0612      	lsls	r2, r2, #24
 800681a:	041b      	lsls	r3, r3, #16
 800681c:	4313      	orrs	r3, r2
 800681e:	aa4d      	add	r2, sp, #308	; 0x134
 8006820:	7812      	ldrb	r2, [r2, #0]
 8006822:	4313      	orrs	r3, r2
 8006824:	466a      	mov	r2, sp
 8006826:	3236      	adds	r2, #54	; 0x36
 8006828:	32ff      	adds	r2, #255	; 0xff
 800682a:	7812      	ldrb	r2, [r2, #0]
 800682c:	0212      	lsls	r2, r2, #8
 800682e:	4313      	orrs	r3, r2
 8006830:	60e3      	str	r3, [r4, #12]
 8006832:	466b      	mov	r3, sp
 8006834:	333c      	adds	r3, #60	; 0x3c
 8006836:	33ff      	adds	r3, #255	; 0xff
 8006838:	781a      	ldrb	r2, [r3, #0]
 800683a:	3b01      	subs	r3, #1
 800683c:	781b      	ldrb	r3, [r3, #0]
 800683e:	0612      	lsls	r2, r2, #24
 8006840:	041b      	lsls	r3, r3, #16
 8006842:	4313      	orrs	r3, r2
 8006844:	aa4e      	add	r2, sp, #312	; 0x138
 8006846:	7812      	ldrb	r2, [r2, #0]
 8006848:	4313      	orrs	r3, r2
 800684a:	466a      	mov	r2, sp
 800684c:	323a      	adds	r2, #58	; 0x3a
 800684e:	32ff      	adds	r2, #255	; 0xff
 8006850:	7812      	ldrb	r2, [r2, #0]
 8006852:	0212      	lsls	r2, r2, #8
 8006854:	4313      	orrs	r3, r2
 8006856:	6123      	str	r3, [r4, #16]
 8006858:	466b      	mov	r3, sp
 800685a:	3340      	adds	r3, #64	; 0x40
 800685c:	33ff      	adds	r3, #255	; 0xff
 800685e:	781a      	ldrb	r2, [r3, #0]
 8006860:	3b01      	subs	r3, #1
 8006862:	781b      	ldrb	r3, [r3, #0]
 8006864:	0612      	lsls	r2, r2, #24
 8006866:	041b      	lsls	r3, r3, #16
 8006868:	4313      	orrs	r3, r2
 800686a:	aa4f      	add	r2, sp, #316	; 0x13c
 800686c:	7812      	ldrb	r2, [r2, #0]
 800686e:	4313      	orrs	r3, r2
 8006870:	466a      	mov	r2, sp
 8006872:	323e      	adds	r2, #62	; 0x3e
 8006874:	32ff      	adds	r2, #255	; 0xff
 8006876:	7812      	ldrb	r2, [r2, #0]
 8006878:	0212      	lsls	r2, r2, #8
 800687a:	4313      	orrs	r3, r2
 800687c:	6163      	str	r3, [r4, #20]
 800687e:	466b      	mov	r3, sp
 8006880:	3344      	adds	r3, #68	; 0x44
 8006882:	33ff      	adds	r3, #255	; 0xff
 8006884:	781a      	ldrb	r2, [r3, #0]
 8006886:	3b01      	subs	r3, #1
 8006888:	781b      	ldrb	r3, [r3, #0]
 800688a:	0612      	lsls	r2, r2, #24
 800688c:	041b      	lsls	r3, r3, #16
 800688e:	4313      	orrs	r3, r2
 8006890:	aa50      	add	r2, sp, #320	; 0x140
 8006892:	7812      	ldrb	r2, [r2, #0]
 8006894:	4313      	orrs	r3, r2
 8006896:	466a      	mov	r2, sp
 8006898:	3242      	adds	r2, #66	; 0x42
 800689a:	32ff      	adds	r2, #255	; 0xff
 800689c:	7812      	ldrb	r2, [r2, #0]
 800689e:	0212      	lsls	r2, r2, #8
 80068a0:	4313      	orrs	r3, r2
 80068a2:	61a3      	str	r3, [r4, #24]
 80068a4:	466b      	mov	r3, sp
 80068a6:	3348      	adds	r3, #72	; 0x48
 80068a8:	33ff      	adds	r3, #255	; 0xff
 80068aa:	781a      	ldrb	r2, [r3, #0]
 80068ac:	3b01      	subs	r3, #1
 80068ae:	781b      	ldrb	r3, [r3, #0]
 80068b0:	0612      	lsls	r2, r2, #24
 80068b2:	041b      	lsls	r3, r3, #16
 80068b4:	4313      	orrs	r3, r2
 80068b6:	aa51      	add	r2, sp, #324	; 0x144
 80068b8:	7812      	ldrb	r2, [r2, #0]
 80068ba:	4313      	orrs	r3, r2
 80068bc:	466a      	mov	r2, sp
 80068be:	3246      	adds	r2, #70	; 0x46
 80068c0:	32ff      	adds	r2, #255	; 0xff
 80068c2:	7812      	ldrb	r2, [r2, #0]
 80068c4:	0212      	lsls	r2, r2, #8
 80068c6:	4313      	orrs	r3, r2
 80068c8:	61e3      	str	r3, [r4, #28]
 80068ca:	2300      	movs	r3, #0
 80068cc:	9362      	str	r3, [sp, #392]	; 0x188
 80068ce:	9363      	str	r3, [sp, #396]	; 0x18c
 80068d0:	9364      	str	r3, [sp, #400]	; 0x190
 80068d2:	9365      	str	r3, [sp, #404]	; 0x194
 80068d4:	9366      	str	r3, [sp, #408]	; 0x198
 80068d6:	9367      	str	r3, [sp, #412]	; 0x19c
 80068d8:	9368      	str	r3, [sp, #416]	; 0x1a0
 80068da:	9369      	str	r3, [sp, #420]	; 0x1a4
 80068dc:	f7fb f970 	bl	8001bc0 <barrett_reduce>
 80068e0:	1c20      	adds	r0, r4, #0
 80068e2:	a91a      	add	r1, sp, #104	; 0x68
 80068e4:	f7fd fe14 	bl	8004510 <ge25519_scalarmult_base>
 80068e8:	a832      	add	r0, sp, #200	; 0xc8
 80068ea:	a96a      	add	r1, sp, #424	; 0x1a8
 80068ec:	f7ff fdc6 	bl	800647c <fe25519_invert>
 80068f0:	1c21      	adds	r1, r4, #0
 80068f2:	a822      	add	r0, sp, #136	; 0x88
 80068f4:	aa32      	add	r2, sp, #200	; 0xc8
 80068f6:	f7fc feb5 	bl	8003664 <fe25519_mul>
 80068fa:	a82a      	add	r0, sp, #168	; 0xa8
 80068fc:	a962      	add	r1, sp, #392	; 0x188
 80068fe:	aa32      	add	r2, sp, #200	; 0xc8
 8006900:	f7fc feb0 	bl	8003664 <fe25519_mul>
 8006904:	a92a      	add	r1, sp, #168	; 0xa8
 8006906:	2220      	movs	r2, #32
 8006908:	a83a      	add	r0, sp, #232	; 0xe8
 800690a:	f000 f9cd 	bl	8006ca8 <memcpy>
 800690e:	9941      	ldr	r1, [sp, #260]	; 0x104
 8006910:	2413      	movs	r4, #19
 8006912:	17cb      	asrs	r3, r1, #31
 8006914:	401c      	ands	r4, r3
 8006916:	9a3a      	ldr	r2, [sp, #232]	; 0xe8
 8006918:	2300      	movs	r3, #0
 800691a:	1c26      	adds	r6, r4, #0
 800691c:	18b6      	adds	r6, r6, r2
 800691e:	415f      	adcs	r7, r3
 8006920:	9600      	str	r6, [sp, #0]
 8006922:	9701      	str	r7, [sp, #4]
 8006924:	9c01      	ldr	r4, [sp, #4]
 8006926:	9a3b      	ldr	r2, [sp, #236]	; 0xec
 8006928:	1c26      	adds	r6, r4, #0
 800692a:	1c2f      	adds	r7, r5, #0
 800692c:	18b6      	adds	r6, r6, r2
 800692e:	415f      	adcs	r7, r3
 8006930:	9602      	str	r6, [sp, #8]
 8006932:	9703      	str	r7, [sp, #12]
 8006934:	9c03      	ldr	r4, [sp, #12]
 8006936:	9a3c      	ldr	r2, [sp, #240]	; 0xf0
 8006938:	1c26      	adds	r6, r4, #0
 800693a:	1c2f      	adds	r7, r5, #0
 800693c:	18b6      	adds	r6, r6, r2
 800693e:	415f      	adcs	r7, r3
 8006940:	9604      	str	r6, [sp, #16]
 8006942:	9705      	str	r7, [sp, #20]
 8006944:	9c05      	ldr	r4, [sp, #20]
 8006946:	9a3d      	ldr	r2, [sp, #244]	; 0xf4
 8006948:	1c26      	adds	r6, r4, #0
 800694a:	1c2f      	adds	r7, r5, #0
 800694c:	18b6      	adds	r6, r6, r2
 800694e:	415f      	adcs	r7, r3
 8006950:	9606      	str	r6, [sp, #24]
 8006952:	9707      	str	r7, [sp, #28]
 8006954:	9c07      	ldr	r4, [sp, #28]
 8006956:	9a3e      	ldr	r2, [sp, #248]	; 0xf8
 8006958:	1c26      	adds	r6, r4, #0
 800695a:	1c2f      	adds	r7, r5, #0
 800695c:	18b6      	adds	r6, r6, r2
 800695e:	415f      	adcs	r7, r3
 8006960:	9608      	str	r6, [sp, #32]
 8006962:	9709      	str	r7, [sp, #36]	; 0x24
 8006964:	9c09      	ldr	r4, [sp, #36]	; 0x24
 8006966:	9a3f      	ldr	r2, [sp, #252]	; 0xfc
 8006968:	1c26      	adds	r6, r4, #0
 800696a:	1c2f      	adds	r7, r5, #0
 800696c:	18b6      	adds	r6, r6, r2
 800696e:	415f      	adcs	r7, r3
 8006970:	960a      	str	r6, [sp, #40]	; 0x28
 8006972:	970b      	str	r7, [sp, #44]	; 0x2c
 8006974:	9c0b      	ldr	r4, [sp, #44]	; 0x2c
 8006976:	9a40      	ldr	r2, [sp, #256]	; 0x100
 8006978:	1c26      	adds	r6, r4, #0
 800697a:	1c2f      	adds	r7, r5, #0
 800697c:	18b6      	adds	r6, r6, r2
 800697e:	415f      	adcs	r7, r3
 8006980:	960c      	str	r6, [sp, #48]	; 0x30
 8006982:	970d      	str	r7, [sp, #52]	; 0x34
 8006984:	9e00      	ldr	r6, [sp, #0]
 8006986:	2700      	movs	r7, #0
 8006988:	9c0d      	ldr	r4, [sp, #52]	; 0x34
 800698a:	1c0a      	adds	r2, r1, #0
 800698c:	2013      	movs	r0, #19
 800698e:	2100      	movs	r1, #0
 8006990:	1980      	adds	r0, r0, r6
 8006992:	4179      	adcs	r1, r7
 8006994:	1912      	adds	r2, r2, r4
 8006996:	416b      	adcs	r3, r5
 8006998:	900e      	str	r0, [sp, #56]	; 0x38
 800699a:	910f      	str	r1, [sp, #60]	; 0x3c
 800699c:	9e0f      	ldr	r6, [sp, #60]	; 0x3c
 800699e:	0052      	lsls	r2, r2, #1
 80069a0:	9c02      	ldr	r4, [sp, #8]
 80069a2:	0852      	lsrs	r2, r2, #1
 80069a4:	9218      	str	r2, [sp, #96]	; 0x60
 80069a6:	1c31      	adds	r1, r6, #0
 80069a8:	1c3a      	adds	r2, r7, #0
 80069aa:	1909      	adds	r1, r1, r4
 80069ac:	416a      	adcs	r2, r5
 80069ae:	9110      	str	r1, [sp, #64]	; 0x40
 80069b0:	9211      	str	r2, [sp, #68]	; 0x44
 80069b2:	9e11      	ldr	r6, [sp, #68]	; 0x44
 80069b4:	9c04      	ldr	r4, [sp, #16]
 80069b6:	1c32      	adds	r2, r6, #0
 80069b8:	1c3b      	adds	r3, r7, #0
 80069ba:	1912      	adds	r2, r2, r4
 80069bc:	416b      	adcs	r3, r5
 80069be:	9212      	str	r2, [sp, #72]	; 0x48
 80069c0:	9313      	str	r3, [sp, #76]	; 0x4c
 80069c2:	9e13      	ldr	r6, [sp, #76]	; 0x4c
 80069c4:	9c06      	ldr	r4, [sp, #24]
 80069c6:	1c30      	adds	r0, r6, #0
 80069c8:	1c39      	adds	r1, r7, #0
 80069ca:	1900      	adds	r0, r0, r4
 80069cc:	4169      	adcs	r1, r5
 80069ce:	9014      	str	r0, [sp, #80]	; 0x50
 80069d0:	9115      	str	r1, [sp, #84]	; 0x54
 80069d2:	9e15      	ldr	r6, [sp, #84]	; 0x54
 80069d4:	9c08      	ldr	r4, [sp, #32]
 80069d6:	1c31      	adds	r1, r6, #0
 80069d8:	1c3a      	adds	r2, r7, #0
 80069da:	1909      	adds	r1, r1, r4
 80069dc:	416a      	adcs	r2, r5
 80069de:	9116      	str	r1, [sp, #88]	; 0x58
 80069e0:	9217      	str	r2, [sp, #92]	; 0x5c
 80069e2:	9e17      	ldr	r6, [sp, #92]	; 0x5c
 80069e4:	9c0a      	ldr	r4, [sp, #40]	; 0x28
 80069e6:	1c30      	adds	r0, r6, #0
 80069e8:	1c39      	adds	r1, r7, #0
 80069ea:	1900      	adds	r0, r0, r4
 80069ec:	4169      	adcs	r1, r5
 80069ee:	9a0c      	ldr	r2, [sp, #48]	; 0x30
 80069f0:	1c0e      	adds	r6, r1, #0
 80069f2:	2300      	movs	r3, #0
 80069f4:	18b6      	adds	r6, r6, r2
 80069f6:	415f      	adcs	r7, r3
 80069f8:	9c18      	ldr	r4, [sp, #96]	; 0x60
 80069fa:	1c3a      	adds	r2, r7, #0
 80069fc:	1912      	adds	r2, r2, r4
 80069fe:	416b      	adcs	r3, r5
 8006a00:	005d      	lsls	r5, r3, #1
 8006a02:	0051      	lsls	r1, r2, #1
 8006a04:	0fd2      	lsrs	r2, r2, #31
 8006a06:	432a      	orrs	r2, r5
 8006a08:	4253      	negs	r3, r2
 8006a0a:	9c00      	ldr	r4, [sp, #0]
 8006a0c:	9a0e      	ldr	r2, [sp, #56]	; 0x38
 8006a0e:	1c25      	adds	r5, r4, #0
 8006a10:	4062      	eors	r2, r4
 8006a12:	401a      	ands	r2, r3
 8006a14:	4055      	eors	r5, r2
 8006a16:	9c10      	ldr	r4, [sp, #64]	; 0x40
 8006a18:	9a02      	ldr	r2, [sp, #8]
 8006a1a:	0849      	lsrs	r1, r1, #1
 8006a1c:	4054      	eors	r4, r2
 8006a1e:	401c      	ands	r4, r3
 8006a20:	1c17      	adds	r7, r2, #0
 8006a22:	4067      	eors	r7, r4
 8006a24:	9a04      	ldr	r2, [sp, #16]
 8006a26:	9c12      	ldr	r4, [sp, #72]	; 0x48
 8006a28:	953a      	str	r5, [sp, #232]	; 0xe8
 8006a2a:	4054      	eors	r4, r2
 8006a2c:	401c      	ands	r4, r3
 8006a2e:	4062      	eors	r2, r4
 8006a30:	4692      	mov	sl, r2
 8006a32:	9c06      	ldr	r4, [sp, #24]
 8006a34:	923c      	str	r2, [sp, #240]	; 0xf0
 8006a36:	9a14      	ldr	r2, [sp, #80]	; 0x50
 8006a38:	973b      	str	r7, [sp, #236]	; 0xec
 8006a3a:	4062      	eors	r2, r4
 8006a3c:	401a      	ands	r2, r3
 8006a3e:	4054      	eors	r4, r2
 8006a40:	46a3      	mov	fp, r4
 8006a42:	943d      	str	r4, [sp, #244]	; 0xf4
 8006a44:	9a16      	ldr	r2, [sp, #88]	; 0x58
 8006a46:	9c08      	ldr	r4, [sp, #32]
 8006a48:	4062      	eors	r2, r4
 8006a4a:	401a      	ands	r2, r3
 8006a4c:	4054      	eors	r4, r2
 8006a4e:	46a4      	mov	ip, r4
 8006a50:	943e      	str	r4, [sp, #248]	; 0xf8
 8006a52:	9c0c      	ldr	r4, [sp, #48]	; 0x30
 8006a54:	9a0a      	ldr	r2, [sp, #40]	; 0x28
 8006a56:	4066      	eors	r6, r4
 8006a58:	401e      	ands	r6, r3
 8006a5a:	4074      	eors	r4, r6
 8006a5c:	9e18      	ldr	r6, [sp, #96]	; 0x60
 8006a5e:	4050      	eors	r0, r2
 8006a60:	4071      	eors	r1, r6
 8006a62:	4018      	ands	r0, r3
 8006a64:	4050      	eors	r0, r2
 8006a66:	400b      	ands	r3, r1
 8006a68:	0a2a      	lsrs	r2, r5, #8
 8006a6a:	4641      	mov	r1, r8
 8006a6c:	704a      	strb	r2, [r1, #1]
 8006a6e:	0c2a      	lsrs	r2, r5, #16
 8006a70:	4073      	eors	r3, r6
 8006a72:	700d      	strb	r5, [r1, #0]
 8006a74:	708a      	strb	r2, [r1, #2]
 8006a76:	0e2d      	lsrs	r5, r5, #24
 8006a78:	0a3a      	lsrs	r2, r7, #8
 8006a7a:	70cd      	strb	r5, [r1, #3]
 8006a7c:	710f      	strb	r7, [r1, #4]
 8006a7e:	903f      	str	r0, [sp, #252]	; 0xfc
 8006a80:	9440      	str	r4, [sp, #256]	; 0x100
 8006a82:	9341      	str	r3, [sp, #260]	; 0x104
 8006a84:	714a      	strb	r2, [r1, #5]
 8006a86:	0c3a      	lsrs	r2, r7, #16
 8006a88:	718a      	strb	r2, [r1, #6]
 8006a8a:	4656      	mov	r6, sl
 8006a8c:	4652      	mov	r2, sl
 8006a8e:	720a      	strb	r2, [r1, #8]
 8006a90:	0a32      	lsrs	r2, r6, #8
 8006a92:	724a      	strb	r2, [r1, #9]
 8006a94:	0e3f      	lsrs	r7, r7, #24
 8006a96:	0c32      	lsrs	r2, r6, #16
 8006a98:	71cf      	strb	r7, [r1, #7]
 8006a9a:	728a      	strb	r2, [r1, #10]
 8006a9c:	465f      	mov	r7, fp
 8006a9e:	0e32      	lsrs	r2, r6, #24
 8006aa0:	72ca      	strb	r2, [r1, #11]
 8006aa2:	730f      	strb	r7, [r1, #12]
 8006aa4:	4659      	mov	r1, fp
 8006aa6:	4646      	mov	r6, r8
 8006aa8:	0a0a      	lsrs	r2, r1, #8
 8006aaa:	7372      	strb	r2, [r6, #13]
 8006aac:	0c0a      	lsrs	r2, r1, #16
 8006aae:	73b2      	strb	r2, [r6, #14]
 8006ab0:	0e0a      	lsrs	r2, r1, #24
 8006ab2:	4661      	mov	r1, ip
 8006ab4:	73f2      	strb	r2, [r6, #15]
 8006ab6:	0a0a      	lsrs	r2, r1, #8
 8006ab8:	7472      	strb	r2, [r6, #17]
 8006aba:	0c0a      	lsrs	r2, r1, #16
 8006abc:	74b2      	strb	r2, [r6, #18]
 8006abe:	0e0a      	lsrs	r2, r1, #24
 8006ac0:	74f2      	strb	r2, [r6, #19]
 8006ac2:	0a02      	lsrs	r2, r0, #8
 8006ac4:	7572      	strb	r2, [r6, #21]
 8006ac6:	0c02      	lsrs	r2, r0, #16
 8006ac8:	75b2      	strb	r2, [r6, #22]
 8006aca:	0a22      	lsrs	r2, r4, #8
 8006acc:	7672      	strb	r2, [r6, #25]
 8006ace:	0c22      	lsrs	r2, r4, #16
 8006ad0:	76b2      	strb	r2, [r6, #26]
 8006ad2:	0a1a      	lsrs	r2, r3, #8
 8006ad4:	4667      	mov	r7, ip
 8006ad6:	7530      	strb	r0, [r6, #20]
 8006ad8:	7634      	strb	r4, [r6, #24]
 8006ada:	7733      	strb	r3, [r6, #28]
 8006adc:	7772      	strb	r2, [r6, #29]
 8006ade:	0e00      	lsrs	r0, r0, #24
 8006ae0:	0c1a      	lsrs	r2, r3, #16
 8006ae2:	0e24      	lsrs	r4, r4, #24
 8006ae4:	0e1b      	lsrs	r3, r3, #24
 8006ae6:	7437      	strb	r7, [r6, #16]
 8006ae8:	75f0      	strb	r0, [r6, #23]
 8006aea:	76f4      	strb	r4, [r6, #27]
 8006aec:	77b2      	strb	r2, [r6, #30]
 8006aee:	77f3      	strb	r3, [r6, #31]
 8006af0:	a922      	add	r1, sp, #136	; 0x88
 8006af2:	2220      	movs	r2, #32
 8006af4:	a83a      	add	r0, sp, #232	; 0xe8
 8006af6:	469a      	mov	sl, r3
 8006af8:	f000 f8d6 	bl	8006ca8 <memcpy>
 8006afc:	9e41      	ldr	r6, [sp, #260]	; 0x104
 8006afe:	2413      	movs	r4, #19
 8006b00:	17f3      	asrs	r3, r6, #31
 8006b02:	2500      	movs	r5, #0
 8006b04:	401c      	ands	r4, r3
 8006b06:	9a3a      	ldr	r2, [sp, #232]	; 0xe8
 8006b08:	2300      	movs	r3, #0
 8006b0a:	1c20      	adds	r0, r4, #0
 8006b0c:	1c29      	adds	r1, r5, #0
 8006b0e:	1880      	adds	r0, r0, r2
 8006b10:	4159      	adcs	r1, r3
 8006b12:	9000      	str	r0, [sp, #0]
 8006b14:	9101      	str	r1, [sp, #4]
 8006b16:	9c01      	ldr	r4, [sp, #4]
 8006b18:	9a3b      	ldr	r2, [sp, #236]	; 0xec
 8006b1a:	1c20      	adds	r0, r4, #0
 8006b1c:	1c29      	adds	r1, r5, #0
 8006b1e:	1880      	adds	r0, r0, r2
 8006b20:	4159      	adcs	r1, r3
 8006b22:	9002      	str	r0, [sp, #8]
 8006b24:	9103      	str	r1, [sp, #12]
 8006b26:	9c03      	ldr	r4, [sp, #12]
 8006b28:	9a3c      	ldr	r2, [sp, #240]	; 0xf0
 8006b2a:	903b      	str	r0, [sp, #236]	; 0xec
 8006b2c:	1c29      	adds	r1, r5, #0
 8006b2e:	1c20      	adds	r0, r4, #0
 8006b30:	1880      	adds	r0, r0, r2
 8006b32:	4159      	adcs	r1, r3
 8006b34:	9004      	str	r0, [sp, #16]
 8006b36:	9105      	str	r1, [sp, #20]
 8006b38:	9c05      	ldr	r4, [sp, #20]
 8006b3a:	9a3d      	ldr	r2, [sp, #244]	; 0xf4
 8006b3c:	903c      	str	r0, [sp, #240]	; 0xf0
 8006b3e:	1c29      	adds	r1, r5, #0
 8006b40:	1c20      	adds	r0, r4, #0
 8006b42:	1880      	adds	r0, r0, r2
 8006b44:	4159      	adcs	r1, r3
 8006b46:	9006      	str	r0, [sp, #24]
 8006b48:	9107      	str	r1, [sp, #28]
 8006b4a:	9c07      	ldr	r4, [sp, #28]
 8006b4c:	9a3e      	ldr	r2, [sp, #248]	; 0xf8
 8006b4e:	903d      	str	r0, [sp, #244]	; 0xf4
 8006b50:	1c29      	adds	r1, r5, #0
 8006b52:	1c20      	adds	r0, r4, #0
 8006b54:	1880      	adds	r0, r0, r2
 8006b56:	4159      	adcs	r1, r3
 8006b58:	9008      	str	r0, [sp, #32]
 8006b5a:	9109      	str	r1, [sp, #36]	; 0x24
 8006b5c:	9c09      	ldr	r4, [sp, #36]	; 0x24
 8006b5e:	9a3f      	ldr	r2, [sp, #252]	; 0xfc
 8006b60:	903e      	str	r0, [sp, #248]	; 0xf8
 8006b62:	1c29      	adds	r1, r5, #0
 8006b64:	1c20      	adds	r0, r4, #0
 8006b66:	1880      	adds	r0, r0, r2
 8006b68:	4159      	adcs	r1, r3
 8006b6a:	900a      	str	r0, [sp, #40]	; 0x28
 8006b6c:	910b      	str	r1, [sp, #44]	; 0x2c
 8006b6e:	9c0b      	ldr	r4, [sp, #44]	; 0x2c
 8006b70:	9a40      	ldr	r2, [sp, #256]	; 0x100
 8006b72:	903f      	str	r0, [sp, #252]	; 0xfc
 8006b74:	1c29      	adds	r1, r5, #0
 8006b76:	1c20      	adds	r0, r4, #0
 8006b78:	1880      	adds	r0, r0, r2
 8006b7a:	4159      	adcs	r1, r3
 8006b7c:	1c0c      	adds	r4, r1, #0
 8006b7e:	1c32      	adds	r2, r6, #0
 8006b80:	1912      	adds	r2, r2, r4
 8006b82:	416b      	adcs	r3, r5
 8006b84:	9e00      	ldr	r6, [sp, #0]
 8006b86:	0054      	lsls	r4, r2, #1
 8006b88:	2700      	movs	r7, #0
 8006b8a:	2213      	movs	r2, #19
 8006b8c:	2300      	movs	r3, #0
 8006b8e:	18b6      	adds	r6, r6, r2
 8006b90:	415f      	adcs	r7, r3
 8006b92:	9a02      	ldr	r2, [sp, #8]
 8006b94:	46a4      	mov	ip, r4
 8006b96:	2300      	movs	r3, #0
 8006b98:	1c3c      	adds	r4, r7, #0
 8006b9a:	1912      	adds	r2, r2, r4
 8006b9c:	416b      	adcs	r3, r5
 8006b9e:	9a04      	ldr	r2, [sp, #16]
 8006ba0:	1c1c      	adds	r4, r3, #0
 8006ba2:	2300      	movs	r3, #0
 8006ba4:	1912      	adds	r2, r2, r4
 8006ba6:	416b      	adcs	r3, r5
 8006ba8:	9a06      	ldr	r2, [sp, #24]
 8006baa:	1c1c      	adds	r4, r3, #0
 8006bac:	2300      	movs	r3, #0
 8006bae:	1912      	adds	r2, r2, r4
 8006bb0:	416b      	adcs	r3, r5
 8006bb2:	9a08      	ldr	r2, [sp, #32]
 8006bb4:	1c1c      	adds	r4, r3, #0
 8006bb6:	2300      	movs	r3, #0
 8006bb8:	1912      	adds	r2, r2, r4
 8006bba:	416b      	adcs	r3, r5
 8006bbc:	9a0a      	ldr	r2, [sp, #40]	; 0x28
 8006bbe:	1c1c      	adds	r4, r3, #0
 8006bc0:	2300      	movs	r3, #0
 8006bc2:	1912      	adds	r2, r2, r4
 8006bc4:	416b      	adcs	r3, r5
 8006bc6:	1c1c      	adds	r4, r3, #0
 8006bc8:	1c02      	adds	r2, r0, #0
 8006bca:	2300      	movs	r3, #0
 8006bcc:	9040      	str	r0, [sp, #256]	; 0x100
 8006bce:	1c29      	adds	r1, r5, #0
 8006bd0:	1c20      	adds	r0, r4, #0
 8006bd2:	1880      	adds	r0, r0, r2
 8006bd4:	4159      	adcs	r1, r3
 8006bd6:	4664      	mov	r4, ip
 8006bd8:	1c0a      	adds	r2, r1, #0
 8006bda:	0860      	lsrs	r0, r4, #1
 8006bdc:	2100      	movs	r1, #0
 8006bde:	1880      	adds	r0, r0, r2
 8006be0:	4159      	adcs	r1, r3
 8006be2:	004a      	lsls	r2, r1, #1
 8006be4:	0fc3      	lsrs	r3, r0, #31
 8006be6:	9800      	ldr	r0, [sp, #0]
 8006be8:	4313      	orrs	r3, r2
 8006bea:	425b      	negs	r3, r3
 8006bec:	4046      	eors	r6, r0
 8006bee:	401e      	ands	r6, r3
 8006bf0:	4046      	eors	r6, r0
 8006bf2:	2301      	movs	r3, #1
 8006bf4:	963a      	str	r6, [sp, #232]	; 0xe8
 8006bf6:	401e      	ands	r6, r3
 8006bf8:	4651      	mov	r1, sl
 8006bfa:	01f6      	lsls	r6, r6, #7
 8006bfc:	404e      	eors	r6, r1
 8006bfe:	4642      	mov	r2, r8
 8006c00:	4648      	mov	r0, r9
 8006c02:	77d6      	strb	r6, [r2, #31]
 8006c04:	3020      	adds	r0, #32
 8006c06:	4641      	mov	r1, r8
 8006c08:	2220      	movs	r2, #32
 8006c0a:	f000 f856 	bl	8006cba <memmove>
 8006c0e:	9c19      	ldr	r4, [sp, #100]	; 0x64
 8006c10:	2000      	movs	r0, #0
 8006c12:	2c00      	cmp	r4, #0
 8006c14:	d000      	beq.n	8006c18 <ED25519keyGen+0x578>
 8006c16:	4811      	ldr	r0, [pc, #68]	; (8006c5c <ED25519keyGen+0x5bc>)
 8006c18:	23b1      	movs	r3, #177	; 0xb1
 8006c1a:	009b      	lsls	r3, r3, #2
 8006c1c:	449d      	add	sp, r3
 8006c1e:	bc3c      	pop	{r2, r3, r4, r5}
 8006c20:	4690      	mov	r8, r2
 8006c22:	4699      	mov	r9, r3
 8006c24:	46a2      	mov	sl, r4
 8006c26:	46ab      	mov	fp, r5
 8006c28:	bdf0      	pop	{r4, r5, r6, r7, pc}
 8006c2a:	20ac      	movs	r0, #172	; 0xac
 8006c2c:	0140      	lsls	r0, r0, #5
 8006c2e:	e7f3      	b.n	8006c18 <ED25519keyGen+0x578>
 8006c30:	ab7b      	add	r3, sp, #492	; 0x1ec
 8006c32:	781a      	ldrb	r2, [r3, #0]
 8006c34:	2304      	movs	r3, #4
 8006c36:	4313      	orrs	r3, r2
 8006c38:	ac7b      	add	r4, sp, #492	; 0x1ec
 8006c3a:	7023      	strb	r3, [r4, #0]
 8006c3c:	ac5a      	add	r4, sp, #360	; 0x168
 8006c3e:	a87a      	add	r0, sp, #488	; 0x1e8
 8006c40:	1c21      	adds	r1, r4, #0
 8006c42:	f7fc fb3d 	bl	80032c0 <SHA512Final>
 8006c46:	9a7c      	ldr	r2, [sp, #496]	; 0x1f0
 8006c48:	ad4a      	add	r5, sp, #296	; 0x128
 8006c4a:	2a00      	cmp	r2, #0
 8006c4c:	dd03      	ble.n	8006c56 <ED25519keyGen+0x5b6>
 8006c4e:	1c28      	adds	r0, r5, #0
 8006c50:	1c21      	adds	r1, r4, #0
 8006c52:	f000 f829 	bl	8006ca8 <memcpy>
 8006c56:	2600      	movs	r6, #0
 8006c58:	9619      	str	r6, [sp, #100]	; 0x64
 8006c5a:	e591      	b.n	8006780 <ED25519keyGen+0xe0>
 8006c5c:	00000fab 	.word	0x00000fab

08006c60 <__libc_init_array>:
 8006c60:	b570      	push	{r4, r5, r6, lr}
 8006c62:	2600      	movs	r6, #0
 8006c64:	4d0c      	ldr	r5, [pc, #48]	; (8006c98 <__libc_init_array+0x38>)
 8006c66:	4c0d      	ldr	r4, [pc, #52]	; (8006c9c <__libc_init_array+0x3c>)
 8006c68:	1b64      	subs	r4, r4, r5
 8006c6a:	10a4      	asrs	r4, r4, #2
 8006c6c:	42a6      	cmp	r6, r4
 8006c6e:	d109      	bne.n	8006c84 <__libc_init_array+0x24>
 8006c70:	2600      	movs	r6, #0
 8006c72:	f000 f83d 	bl	8006cf0 <_init>
 8006c76:	4d0a      	ldr	r5, [pc, #40]	; (8006ca0 <__libc_init_array+0x40>)
 8006c78:	4c0a      	ldr	r4, [pc, #40]	; (8006ca4 <__libc_init_array+0x44>)
 8006c7a:	1b64      	subs	r4, r4, r5
 8006c7c:	10a4      	asrs	r4, r4, #2
 8006c7e:	42a6      	cmp	r6, r4
 8006c80:	d105      	bne.n	8006c8e <__libc_init_array+0x2e>
 8006c82:	bd70      	pop	{r4, r5, r6, pc}
 8006c84:	00b3      	lsls	r3, r6, #2
 8006c86:	58eb      	ldr	r3, [r5, r3]
 8006c88:	4798      	blx	r3
 8006c8a:	3601      	adds	r6, #1
 8006c8c:	e7ee      	b.n	8006c6c <__libc_init_array+0xc>
 8006c8e:	00b3      	lsls	r3, r6, #2
 8006c90:	58eb      	ldr	r3, [r5, r3]
 8006c92:	4798      	blx	r3
 8006c94:	3601      	adds	r6, #1
 8006c96:	e7f2      	b.n	8006c7e <__libc_init_array+0x1e>
 8006c98:	080078bc 	.word	0x080078bc
 8006c9c:	080078bc 	.word	0x080078bc
 8006ca0:	080078bc 	.word	0x080078bc
 8006ca4:	080078c0 	.word	0x080078c0

08006ca8 <memcpy>:
 8006ca8:	2300      	movs	r3, #0
 8006caa:	b510      	push	{r4, lr}
 8006cac:	429a      	cmp	r2, r3
 8006cae:	d100      	bne.n	8006cb2 <memcpy+0xa>
 8006cb0:	bd10      	pop	{r4, pc}
 8006cb2:	5ccc      	ldrb	r4, [r1, r3]
 8006cb4:	54c4      	strb	r4, [r0, r3]
 8006cb6:	3301      	adds	r3, #1
 8006cb8:	e7f8      	b.n	8006cac <memcpy+0x4>

08006cba <memmove>:
 8006cba:	b510      	push	{r4, lr}
 8006cbc:	4288      	cmp	r0, r1
 8006cbe:	d902      	bls.n	8006cc6 <memmove+0xc>
 8006cc0:	188b      	adds	r3, r1, r2
 8006cc2:	4298      	cmp	r0, r3
 8006cc4:	d303      	bcc.n	8006cce <memmove+0x14>
 8006cc6:	2300      	movs	r3, #0
 8006cc8:	e007      	b.n	8006cda <memmove+0x20>
 8006cca:	5c8b      	ldrb	r3, [r1, r2]
 8006ccc:	5483      	strb	r3, [r0, r2]
 8006cce:	3a01      	subs	r2, #1
 8006cd0:	d2fb      	bcs.n	8006cca <memmove+0x10>
 8006cd2:	bd10      	pop	{r4, pc}
 8006cd4:	5ccc      	ldrb	r4, [r1, r3]
 8006cd6:	54c4      	strb	r4, [r0, r3]
 8006cd8:	3301      	adds	r3, #1
 8006cda:	429a      	cmp	r2, r3
 8006cdc:	d1fa      	bne.n	8006cd4 <memmove+0x1a>
 8006cde:	e7f8      	b.n	8006cd2 <memmove+0x18>

08006ce0 <memset>:
 8006ce0:	0003      	movs	r3, r0
 8006ce2:	1812      	adds	r2, r2, r0
 8006ce4:	4293      	cmp	r3, r2
 8006ce6:	d100      	bne.n	8006cea <memset+0xa>
 8006ce8:	4770      	bx	lr
 8006cea:	7019      	strb	r1, [r3, #0]
 8006cec:	3301      	adds	r3, #1
 8006cee:	e7f9      	b.n	8006ce4 <memset+0x4>

08006cf0 <_init>:
 8006cf0:	b5f8      	push	{r3, r4, r5, r6, r7, lr}
 8006cf2:	46c0      	nop			; (mov r8, r8)
 8006cf4:	bcf8      	pop	{r3, r4, r5, r6, r7}
 8006cf6:	bc08      	pop	{r3}
 8006cf8:	469e      	mov	lr, r3
 8006cfa:	4770      	bx	lr

08006cfc <_fini>:
 8006cfc:	b5f8      	push	{r3, r4, r5, r6, r7, lr}
 8006cfe:	46c0      	nop			; (mov r8, r8)
 8006d00:	bcf8      	pop	{r3, r4, r5, r6, r7}
 8006d02:	bc08      	pop	{r3}
 8006d04:	469e      	mov	lr, r3
 8006d06:	4770      	bx	lr
